
UDPClient.elf:     file format elf32-littleriscv
UDPClient.elf
architecture: riscv:rv32, flags 0x00000112:
EXEC_P, HAS_SYMS, D_PAGED
start address 0x00000000

Program Header:
    LOAD off    0x00001000 vaddr 0x00000000 paddr 0x00000000 align 2**12
         filesz 0x00008e74 memsz 0x00008e74 flags r-x
    LOAD off    0x0000a000 vaddr 0x20000000 paddr 0x00008e74 align 2**12
         filesz 0x000000dc memsz 0x000042d8 flags rw-
    LOAD off    0x0000a800 vaddr 0x2000f800 paddr 0x2000f800 align 2**12
         filesz 0x00000000 memsz 0x00000800 flags rw-

Sections:
Idx Name          Size      VMA       LMA       File off  Algn
  0 .init         00000004  00000000  00000000  00001000  2**1
                  CONTENTS, ALLOC, LOAD, READONLY, CODE
  1 .vector       0000013c  00000004  00000004  00001004  2**1
                  CONTENTS, ALLOC, LOAD, READONLY, CODE
  2 .text         00008d34  00000140  00000140  00001140  2**2
                  CONTENTS, ALLOC, LOAD, READONLY, CODE
  3 .fini         00000000  00008e74  00008e74  0000a0dc  2**0
                  CONTENTS, ALLOC, LOAD, CODE
  4 .dalign       00000000  20000000  20000000  0000a0dc  2**0
                  CONTENTS
  5 .dlalign      00000000  00008e74  00008e74  0000a0dc  2**0
                  CONTENTS
  6 .data         000000dc  20000000  00008e74  0000a000  2**2
                  CONTENTS, ALLOC, LOAD, DATA
  7 .bss          000041fc  200000dc  00008f50  0000a0dc  2**2
                  ALLOC
  8 .stack        00000800  2000f800  2000f800  0000a800  2**0
                  ALLOC
  9 .debug_info   0000ea13  00000000  00000000  0000a0dc  2**0
                  CONTENTS, READONLY, DEBUGGING
 10 .debug_abbrev 00002620  00000000  00000000  00018aef  2**0
                  CONTENTS, READONLY, DEBUGGING
 11 .debug_aranges 000009a8  00000000  00000000  0001b110  2**3
                  CONTENTS, READONLY, DEBUGGING
 12 .debug_ranges 00000a98  00000000  00000000  0001bab8  2**3
                  CONTENTS, READONLY, DEBUGGING
 13 .debug_line   0000ce45  00000000  00000000  0001c550  2**0
                  CONTENTS, READONLY, DEBUGGING
 14 .debug_str    000032d4  00000000  00000000  00029395  2**0
                  CONTENTS, READONLY, DEBUGGING
 15 .comment      00000033  00000000  00000000  0002c669  2**0
                  CONTENTS, READONLY
 16 .debug_frame  00002024  00000000  00000000  0002c69c  2**2
                  CONTENTS, READONLY, DEBUGGING
 17 .debug_loc    000047fa  00000000  00000000  0002e6c0  2**0
                  CONTENTS, READONLY, DEBUGGING
 18 .stab         00000084  00000000  00000000  00032ebc  2**2
                  CONTENTS, READONLY, DEBUGGING
 19 .stabstr      00000117  00000000  00000000  00032f40  2**0
                  CONTENTS, READONLY, DEBUGGING
SYMBOL TABLE:
00000000 l    d  .init	00000000 .init
00000004 l    d  .vector	00000000 .vector
00000140 l    d  .text	00000000 .text
00008e74 l    d  .fini	00000000 .fini
20000000 l    d  .dalign	00000000 .dalign
00008e74 l    d  .dlalign	00000000 .dlalign
20000000 l    d  .data	00000000 .data
200000dc l    d  .bss	00000000 .bss
2000f800 l    d  .stack	00000000 .stack
00000000 l    d  .debug_info	00000000 .debug_info
00000000 l    d  .debug_abbrev	00000000 .debug_abbrev
00000000 l    d  .debug_aranges	00000000 .debug_aranges
00000000 l    d  .debug_ranges	00000000 .debug_ranges
00000000 l    d  .debug_line	00000000 .debug_line
00000000 l    d  .debug_str	00000000 .debug_str
00000000 l    d  .comment	00000000 .comment
00000000 l    d  .debug_frame	00000000 .debug_frame
00000000 l    d  .debug_loc	00000000 .debug_loc
00000000 l    d  .stab	00000000 .stab
00000000 l    d  .stabstr	00000000 .stabstr
00000000 l    df *ABS*	00000000 ./Startup/startup_ch32v20x_D8W.o
00000004 l       .vector	00000000 _vector_base
00000000 l    df *ABS*	00000000 ch32v20x_it.c
00000000 l    df *ABS*	00000000 main.c
00000000 l    df *ABS*	00000000 system_ch32v20x.c
00000000 l    df *ABS*	00000000 ch32v20x_flash.c
00000000 l    df *ABS*	00000000 ch32v20x_gpio.c
00000000 l    df *ABS*	00000000 ch32v20x_rcc.c
20000000 l     O .data	00000010 APBAHBPrescTable
20000088 l     O .data	00000004 ADCPrescTable
00000000 l    df *ABS*	00000000 ch32v20x_tim.c
00000000 l    df *ABS*	00000000 ch32v20x_usart.c
00000000 l    df *ABS*	00000000 eth_driver.c
00000000 l    df *ABS*	00000000 debug.c
20000110 l     O .bss	00000002 p_ms
20000112 l     O .bss	00000001 p_us
20000090 l     O .data	00000004 curbrk.4731
00000000 l    df *ABS*	00000000 core_riscv.c
00000000 l    df *ABS*	00000000 eth_api.c
00000000 l    df *ABS*	00000000 ipcheck.c
00000000 l    df *ABS*	00000000 socket.c
00000000 l    df *ABS*	00000000 etharp.c
00002340 l     F .text	0000017e find_entry
000024be l     F .text	000000b2 update_arp_entry
20000140 l     O .bss	00000001 etharp_cached_entry
00000000 l    df *ABS*	00000000 ethernetif.c
00002b4e l     F .text	00000052 low_level_output
00000000 l    df *ABS*	00000000 inet.c
00000000 l    df *ABS*	00000000 ip.c
2000014c l     O .bss	00000002 ip_id.2936
00000000 l    df *ABS*	00000000 ip_addr.c
00000000 l    df *ABS*	00000000 ip_frag.c
2000014e l     O .bss	00000002 ip_reass_pbufcount
20000150 l     O .bss	00000004 reassdatagrams
00000000 l    df *ABS*	00000000 dhcp.c
000037d2 l     F .text	0000000e dhcp_set_state
000037e0 l     F .text	00000020 dhcp_option
00003800 l     F .text	00000012 dhcp_option_byte
00003812 l     F .text	00000048 dhcp_option_long
0000385a l     F .text	00000034 dhcp_option_trailer
0000388e l     F .text	0000018a dhcp_create_request
00003a18 l     F .text	0000001e dhcp_delete_request
00000000 l    df *ABS*	00000000 init.c
00000000 l    df *ABS*	00000000 mem.c
20000154 l     O .bss	00000004 lfree
20000158 l     O .bss	00000004 ram
2000015c l     O .bss	00000004 ram_end
00000000 l    df *ABS*	00000000 memp.c
200042a0 l     O .bss	00000020 memp_tab
00000000 l    df *ABS*	00000000 netif.c
20000168 l     O .bss	00000001 netifnum.2471
00000000 l    df *ABS*	00000000 pbuf.c
00000000 l    df *ABS*	00000000 raw.c
2000016c l     O .bss	00000004 raw_pcbs
00000000 l    df *ABS*	00000000 tcp.c
00004416 l     F .text	0000005c tcp_new_port
20000180 l     O .bss	00000001 tcp_timer
200000a4 l     O .data	00000004 iss.3186
200000a8 l     O .data	00000002 port.3018
00000000 l    df *ABS*	00000000 tcp_in.c
00004e30 l     F .text	000000ce tcp_oos_insert_segment
00004efe l     F .text	000008f0 tcp_receive
000057ee l     F .text	000000a6 tcp_parseopt.isra.0
200042c0 l     O .bss	00000014 inseg
2000018c l     O .bss	00000004 ackno
20000190 l     O .bss	00000001 flags
20000194 l     O .bss	00000004 iphdr
20000198 l     O .bss	00000004 recv_data
2000019c l     O .bss	00000001 recv_flags
200001a0 l     O .bss	00000004 seqno
200001a8 l     O .bss	00000004 tcphdr
200001ac l     O .bss	00000002 tcplen
00000000 l    df *ABS*	00000000 tcp_out.c
0000626a l     F .text	000000d4 tcp_output_set_header.isra.0.constprop.1
00000000 l    df *ABS*	00000000 udp.c
00000000 l    df *ABS*	00000000 icmp.c
0000733e l     F .text	00000074 icmp_send_response.isra.0
00000000 l    df *ABS*	00000000 inet_chksum.c
0000762a l     F .text	0000007e lwip_standard_chksum
00000000 l    df *ABS*	00000000 memcpy.c
00000000 l    df *ABS*	00000000 printf.c
00000000 l    df *ABS*	00000000 putchar.c
00000000 l    df *ABS*	00000000 puts.c
00000000 l    df *ABS*	00000000 wbuf.c
00000000 l    df *ABS*	00000000 wsetup.c
00000000 l    df *ABS*	00000000 fflush.c
00000000 l    df *ABS*	00000000 findfp.c
00007d7a l     F .text	00000066 std
00000000 l    df *ABS*	00000000 fwalk.c
00000000 l    df *ABS*	00000000 makebuf.c
00000000 l    df *ABS*	00000000 nano-mallocr.c
00000000 l    df *ABS*	00000000 nano-mallocr.c
00000000 l    df *ABS*	00000000 nano-vfprintf.c
00008210 l     F .text	00000028 __sfputc_r
00000000 l    df *ABS*	00000000 nano-vfprintf_i.c
00000000 l    df *ABS*	00000000 putc.c
00000000 l    df *ABS*	00000000 sbrkr.c
00000000 l    df *ABS*	00000000 stdio.c
00000000 l    df *ABS*	00000000 writer.c
00000000 l    df *ABS*	00000000 closer.c
00000000 l    df *ABS*	00000000 fstatr.c
00000000 l    df *ABS*	00000000 isattyr.c
00000000 l    df *ABS*	00000000 lseekr.c
00000000 l    df *ABS*	00000000 memchr.c
00000000 l    df *ABS*	00000000 mlock.c
00000000 l    df *ABS*	00000000 readr.c
00000000 l    df *ABS*	00000000 close.c
00000000 l    df *ABS*	00000000 fstat.c
00000000 l    df *ABS*	00000000 isatty.c
00000000 l    df *ABS*	00000000 lseek.c
00000000 l    df *ABS*	00000000 read.c
00000000 l    df *ABS*	00000000 impure.c
20000010 l     O .data	00000060 impure_data
00000000 l    df *ABS*	00000000 net_dhcp.c
00000000 l    df *ABS*	00000000 reent.c
00000892  w      .text	00000000 EXTI2_IRQHandler
00007922 g     F .text	0000002a putchar
000077b2 g     F .text	00000014 inet_chksum
000005e0 g     F .text	00000082 WCHNET_HandleGlobalInt
000043a4 g     F .text	0000001e raw_bind
00003278 g     F .text	000003dc ip_reass
000041fc g     F .text	00000058 pbuf_realloc
00008aaa g     F .text	00000030 _isatty_r
20000082 g     O .data	00000002 srcport
00004c7c g     F .text	00000010 tcp_next_iss
0000794c g     F .text	000000d4 _puts_r
00004588 g     F .text	00000048 tcp_update_rcv_ann_wnd
0000181e g     F .text	00000012 setRxBuffAddr
00008ada g     F .text	00000034 _lseek_r
20000164 g     O .bss	00000004 netif_list
00000662 g     F .text	00000072 my_NET_init
00006b74 g     F .text	00000108 tcp_rst
2000012c g     O .bss	00000004 TCPTimer
00002780 g     F .text	000000ce etharp_request
000078e2 g     F .text	00000040 printf
20000870 g       .data	00000000 __global_pointer$
00000148 g     F .text	00000028 .hidden __riscv_save_8
00004680 g     F .text	00000006 tcp_err
200000c0 g     O .data	00000004 ip_addr_any
00000892  w      .text	00000000 TIM1_CC_IRQHandler
000076a8 g     F .text	0000010a inet_chksum_pseudo
000089dc g     F .text	00000030 __sseek
00007e30 g     F .text	0000006c __sinit
00006786 g     F .text	00000016 tcp_send_ctrl
00007a2c g     F .text	000000bc __swbuf_r
0000024c g     F .text	00000052 HardFault_Handler
00000956 g     F .text	0000004e FLASH_ProgramWord
00002fb8 g     F .text	0000015a ip_output_if
00007dea g     F .text	00000046 __sfmoreglue
00003e9c g     F .text	00000018 memp_free
00008b28 g     F .text	00000002 __malloc_unlock
0000406e g     F .text	0000004e pbuf_free
00000194 g     F .text	0000000c .hidden __riscv_restore_3
000022c6 g     F .text	00000012 WCHNET_GetGlobalInt
0000138e g     F .text	00000052 ETH_Init
00000892  w      .text	00000000 SysTick_Handler
000004cc g     F .text	0000006e NET_DataInUart
00004270 g     F .text	0000001c pbuf_cat
00000892  w      .text	00000000 PVD_IRQHandler
00003112 g     F .text	00000036 ip_output
000011f2 g     F .text	00000030 ETH_LinkUpCfg
0000033e g     F .text	0000006c CreateUdpSocket
00000180 g     F .text	00000020 .hidden __riscv_restore_10
00007268 g     F .text	0000002e udp_sendto
00000d58 g     F .text	00000038 ETH_TxPktChainMode
20000134 g     O .bss	00000004 phydatatime
00000248 g     F .text	00000004 NMI_Handler
00006d90 g     F .text	0000005e tcp_keepalive
00000892  w      .text	00000000 EXTI3_IRQHandler
00001b98 g     F .text	000000aa WCHNET_Init
00000148 g     F .text	00000028 .hidden __riscv_save_11
00002570 g     F .text	0000004e etharp_tmr
2000077c g     O .bss	00000400 uart_rx_bf
00004c8c g     F .text	00000134 tcp_alloc
00001726 g     F .text	00000014 WCHNET_NetInput
00008d68 g     O .text	00000010 MemSize
00007192 g     F .text	000000d6 udp_sendto_if
000012a4 g     F .text	000000ea WCHNET_ETHIsr
0000467c g     F .text	00000004 tcp_arg
00002618 g     F .text	00000168 etharp_arp_input
200000ec g     O .bss	00000002 uart_pntr
20000170 g     O .bss	00000004 tcp_active_pcbs
00000d4e g     F .text	0000000a USART_GetFlagStatus
00008a78 g     F .text	00000032 _fstat_r
200001b0 g     O .bss	00000004 udp_pcbs
200042d4 g     O .bss	00000004 errno
200000dc g     O .bss	00000006 MACAddr
00002a64 g     F .text	00000086 ethernet_input
200000dc g       .bss	00000000 _sbss
00000800 g       *ABS*	00000000 __stack_size
00004266 g     F .text	0000000a pbuf_ref
000005a0 g     F .text	00000040 my_FLASH_WRITE
00004ab2 g     F .text	00000030 tcp_recv_null
20000138 g     O .bss	00000001 SockNumber
00000892  w      .text	00000000 USBFS_IRQHandler
00004a00 g     F .text	000000b2 tcp_close
20004174 g     O .bss	0000000c SelARP
000045d0 g     F .text	0000003c tcp_recved
0000053a g     F .text	00000066 WCHNET_HandleSockInt
00000194 g     F .text	0000000c .hidden __riscv_restore_2
00004686 g     F .text	0000004e tcp_pcb_purge
00000d90 g     F .text	0000001e ETH_LedDataSet
200000c8 g     O .data	00000007 tcp_persist_backoff
00007830 g     F .text	000000b2 memcpy
00003c0e g     F .text	00000084 mem_free
2000017c g     O .bss	00000004 tcp_ticks
20000178 g     O .bss	00000004 tcp_listen_pcbs
00006c7c g     F .text	00000036 tcp_rexmit_rto
00007de0 g     F .text	0000000a _cleanup_r
00003148 g     F .text	0000004a ip_addr_isbroadcast
200000f0 g     O .bss	00000004 DMARxDescToGet
00004dc0 g     F .text	00000010 tcp_new
00000892  w      .text	00000000 EXTI0_IRQHandler
00000892  w      .text	00000000 I2C2_EV_IRQHandler
00001862 g     F .text	0000000e GetChipID
00001930 g     F .text	0000003e IPCheckTmr
00000c64 g     F .text	00000018 TIM_Cmd
00007a20 g     F .text	0000000c puts
20004180 g     O .bss	00000018 DHCPCtrl
20000084 g     O .data	00000004 SystemCoreClock
000077c6 g     F .text	0000006a inet_chksum_pbuf
00000d46 g     F .text	00000008 USART_ReceiveData
00008b6e g     F .text	00000010 _fstat
000073b2 g     F .text	00000250 icmp_input
00000004 g       .init	00000000 _einit
00000c8e g     F .text	0000000c TIM_ClearITPendingBit
00003f98 g     F .text	0000005a netif_add
000009a4 g     F .text	0000001e FLASH_Unlock_Fast
00000ba4 g     F .text	0000001e RCC_APB2PeriphClockCmd
00000140 g     F .text	00000030 .hidden __riscv_save_12
00004636 g     F .text	0000001e tcp_segs_free
00002288 g     F .text	0000003e WCHNET_QueryGlobalInt
00000892  w      .text	00000000 ADC1_2_IRQHandler
00000892  w      .text	00000000 BB_IRQHandler
000009fe g     F .text	000000c0 GPIO_Init
20000104 g     O .bss	00000001 phyLinkCnt
00000892  w      .text	00000000 Break_Point_Handler
00003eb4 g     F .text	00000096 netif_set_ipaddr
00000180 g     F .text	00000020 .hidden __riscv_restore_11
00000892  w      .text	00000000 SPI1_IRQHandler
00000d28 g     F .text	00000016 USART_Cmd
000022d8 g     F .text	0000002a WCHNET_GetSocketInt
00008936 g     F .text	00000032 _sbrk_r
00000892  w      .text	00000000 TAMPER_IRQHandler
00000170 g     F .text	0000000c .hidden __riscv_save_1
2000423c g     O .bss	0000002c WCHCfg
00000194 g     F .text	0000000c .hidden __riscv_restore_0
00008b2a g     F .text	00000034 _read_r
00004b66 g     F .text	0000007c tcp_fastsendack
00000156 g     F .text	0000001a .hidden __riscv_save_7
20000094 g     O .data	00000004 DHCPXid
00004472 g     F .text	00000116 tcp_bind
00000892  w      .text	00000000 OSCWakeUp_IRQHandler
00007616 g     F .text	00000014 icmp_time_exceeded
20000bcc g     O .bss	00001800 MACRxBuf
00003654 g     F .text	0000017e ip_frag
00000bc2 g     F .text	0000001e RCC_APB1PeriphClockCmd
00001ff0 g     F .text	000000e6 WCHNET_SocketRecv
20000100 g     O .bss	00000004 pDMARxSet
00000892  w      .text	00000000 Ecall_M_Mode_Handler
2000f800 g       .stack	00000000 _heap_end
20004198 g     O .bss	00000040 dhcp_host_name
00008b7e g     F .text	00000010 _isatty
00001488 g     F .text	00000036 Delay_Us
200000d0 g     O .data	00000004 _global_impure_ptr
0000018a g     F .text	00000016 .hidden __riscv_restore_5
200000e2 g     O .bss	00000001 SocketId
00000892  w      .text	00000000 DMA1_Channel4_IRQHandler
00001532 g     F .text	0000002a _sbrk
000042a0 g     F .text	0000009c pbuf_copy
00006cb2 g     F .text	0000007c tcp_rexmit
2000010c g     O .bss	00000001 phyPNChangeCnt
200000f4 g     O .bss	00000004 DMATxDescToSet
2000007c g     O .data	00000004 IPMask
0000018a g     F .text	00000016 .hidden __riscv_restore_6
00000892  w      .text	00000000 USART3_IRQHandler
00000892  w      .text	00000000 RTC_IRQHandler
20000184 g     O .bss	00000004 tcp_tmp_pcb
200042d8 g       .bss	00000000 _ebss
20002e7c g     O .bss	00000678 Mem_Heap_Memory
00000892  w      .text	00000000 DMA1_Channel7_IRQHandler
2000011c g     O .bss	00000004 DHCPcoarseTimer
00000892  w      .text	00000000 CAN1_RX1_IRQHandler
00001462 g     F .text	00000026 Delay_Init
00003bd0 g     F .text	0000003e mem_init
0000680c g     F .text	00000368 tcp_output
000088b2 g     F .text	00000084 _putc_r
00000dae g     F .text	0000001e ETH_LedLinkSet
00000abe g     F .text	00000004 GPIO_SetBits
00000892  w      .text	00000000 TIM4_IRQHandler
200001a4 g     O .bss	00000004 tcp_input_pcb
0000433c g     F .text	00000068 raw_input
0000679c g     F .text	00000070 tcp_send_empty_ack
00000148 g     F .text	00000028 .hidden __riscv_save_9
200000ee g     O .bss	00000001 CRCErrPktCnt
00006d2e g     F .text	00000062 tcp_rexmit_fast
200034f4 g     O .bss	00000c43 Memp_Memory
00002c10 g     F .text	00000076 wch_ethernetif_init
00001870 g     F .text	0000006a getTxBuffAddr
00002cc6 g     F .text	0000000c ntohl
00008dd8 g     O .text	00000020 __sf_fake_stderr
00000156 g     F .text	0000001a .hidden __riscv_save_4
00003ff2 g     F .text	00000006 netif_set_default
00001b4c g     F .text	0000004c WCHSocketInit
00007314 g     F .text	00000006 udp_recv
00000892  w      .text	00000000 I2C1_EV_IRQHandler
20000105 g     O .bss	00000001 phyLinkReset
0000196e g     F .text	0000002c IPConflictHandle
000040bc g     F .text	00000140 pbuf_alloc
000018f8 g     F .text	00000038 SelIPARPSend
0000219c g     F .text	00000052 WCHScokedIntHandle
00000ac6 g     F .text	000000de RCC_GetClocksFreq
000020d6 g     F .text	000000c6 WCHNET_SocketUdpSendTo
00000fd0 g     F .text	000000a2 WCHNET_HandlePhyNegotiation
00000892  w      .text	00000000 DMA1_Channel6_IRQHandler
00008238 g     F .text	00000042 __sfputs_r
2000008c g     O .data	00000001 phyPN
00000892  w      .text	00000000 UART4_IRQHandler
00008b0e g     F .text	00000018 memchr
200000c4 g     O .data	00000004 ip_addr_broadcast
00003192 g     F .text	000000e6 ip_reass_tmr
00000c9a g     F .text	0000008e USART_Init
200000a0 g     O .data	00000004 memp_sizes
00008090 g     F .text	000000a8 _free_r
00000dcc g     F .text	00000020 WCHNET_GetMacAddr
00000892  w      .text	00000000 TIM3_IRQHandler
00000892  w      .text	00000000 RCC_IRQHandler
20000bbc g     O .bss	00000010 DMATxDscrTab
00000170 g     F .text	0000000c .hidden __riscv_save_3
00007296 g     F .text	0000007e udp_connect
00000892  w      .text	00000000 TIM1_TRG_COM_IRQHandler
00008d78 g     O .text	00000010 ErrTable
00000892  w      .text	00000000 DMA1_Channel1_IRQHandler
00003f4a g     F .text	0000004e netif_set_addr
00003a36 g     F .text	00000182 dhcp_arp_reply
2000013c g     O .bss	00000004 tcpSendAckFlag
00000000 g       .init	00000000 _start
00008b8e g     F .text	00000010 _lseek
00003e7c g     F .text	00000020 memp_malloc
00006dee g     F .text	000000d2 tcp_zero_window_probe
00000936 g     F .text	00000020 FLASH_WaitForLastOperation
00000be0 g     F .text	0000001a RCC_ETHDIVConfig
00000892  w      .text	00000000 EXTI15_10_IRQHandler
00000c7c g     F .text	00000012 TIM_ITConfig
200041ec g     O .bss	0000000c KeepLiveCfg
00001dd4 g     F .text	000001d2 WCHNET_SocketCreat
2000010e g     O .bss	00000001 phyStatus
20004268 g     O .bss	00000038 WCHNetIf
20000174 g     O .bss	00000004 tcp_bound_pcbs
00000892  w      .text	00000000 DMA1_Channel8_IRQHandler
00002ca2 g     F .text	00000024 htonl
0000460c g     F .text	0000002a tcp_seg_free
000003aa g     F .text	00000084 u2_parsing
000021ee g     F .text	0000009a LwipRemoveTcpPcb
00000ac2 g     F .text	00000004 GPIO_ResetBits
00001562 g     F .text	00000006 __get_MCAUSE
000009d0 g     F .text	0000002e FLASH_ErasePage_Fast
00008a48 g     F .text	00000030 _close_r
00003d5c g     F .text	000000d0 mem_malloc
20000000 g       .dalign	00000000 _data_vma
00001122 g     F .text	0000000e ETH_SetClock
00000892  w      .text	00000000 TIM5_IRQHandler
000010c6 g     F .text	00000046 ETH_DMARxDescChainInit
00007ae8 g     F .text	000000fc __swsetup_r
00000892  w      .text	00000000 EXTI9_5_IRQHandler
00007e9c g     F .text	000000a0 __sfp
0000633e g     F .text	00000448 tcp_enqueue
00004dd0 g     F .text	0000002e tcp_eff_send_mss
00001d76 g     F .text	0000005e WCHFindCorrectTCBPcb
00000148 g     F .text	00000028 .hidden __riscv_save_10
00008968 g     F .text	0000002c __sread
000013e0 g     F .text	00000082 ETH_LibInit
00008b26 g     F .text	00000002 __malloc_lock
0000018a g     F .text	00000016 .hidden __riscv_restore_4
00001568 g     F .text	00000006 __get_MTVAL
00000180 g     F .text	00000020 .hidden __riscv_restore_8
0000155c g     F .text	00000006 __get_MEPC
00007d14 g     F .text	00000066 _fflush_r
00000156 g     F .text	0000001a .hidden __riscv_save_6
000043c2 g     F .text	0000001e raw_connect
00000892  w      .text	00000000 SPI2_IRQHandler
00008df8 g     O .text	00000020 __sf_fake_stdin
00001082 g     F .text	00000044 ETH_LedConfiguration
00000892  w      .text	00000000 OSC32KCal_IRQHandler
20000070 g     O .data	00000004 DESIP
000001a0 g     F .text	000000a8 memset
00000180 g     F .text	00000020 .hidden __riscv_restore_9
0000018a g     F .text	00000016 .hidden __riscv_restore_7
000006d4 g     F .text	000000c6 main
00000df8 g     F .text	00000190 WCHNET_LinkProcess
200000f8 g     O .bss	00000004 LocalTime
2000009c g     O .data	00000004 memp_num
20000074 g     O .data	00000004 GWIPAddr
000002ba g     F .text	00000018 mStopIfError
00007602 g     F .text	00000014 icmp_dest_unreach
0000199c g     F .text	000000c0 SocketIPRAWReceive
00003ff8 g     F .text	00000008 netif_is_up
00008a0c g     F .text	00000006 __sclose
00002c94 g     F .text	0000000e ntohs
00008138 g     F .text	000000d8 _malloc_r
000043e6 g     F .text	00000030 raw_new
20000128 g     O .bss	00000004 IPFragTimer
0000199a g     F .text	00000002 NET_TCPError
00002ba0 g     F .text	00000070 ethernetif_input
00000892  w      .text	00000000 DMA1_Channel5_IRQHandler
2000010f g     O .bss	00000001 phySucCnt
00000892  w      .text	00000000 EXTI4_IRQHandler
000014be g     F .text	00000036 Delay_Ms
00000892  w      .text	00000000 USB_LP_CAN1_RX0_IRQHandler
200000fc g     O .bss	00000001 PhyPolarityDetect
200041d8 g     O .bss	00000014 DNSInf
000070f8 g     F .text	0000009a udp_bind
00004b44 g     F .text	00000022 tcp_tmr
0000284e g     F .text	000000e2 etharp_query
00001072 g     F .text	00000010 WCHNET_MainTask
00003bb8 g     F .text	00000018 lwip_init
00001830 g     F .text	00000032 WCHNET_Tx
00002930 g     F .text	00000134 etharp_output
0000079a g     F .text	000000f8 SystemInit
20000b7c g     O .bss	00000040 DMARxDscrTab
20000108 g     O .bss	00000004 phyLinkTime
000078e2 g     F .text	00000040 iprintf
00000892  w      .text	00000000 USB_HP_CAN1_TX_IRQHandler
00000892  w      .text	00000000 LLE_IRQHandler
00004254 g     F .text	00000012 pbuf_clen
00000000 g       .init	00000000 _sinit
00001222 g     F .text	00000026 ETH_LinkDownCfg
00008a12 g     F .text	00000036 _write_r
00001b32 g     F .text	0000001a ErrorEncode
000004a8 g     F .text	00000024 UART_2_write_byte
00000892  w      .text	00000000 DMA1_Channel3_IRQHandler
000043e0 g     F .text	00000006 raw_recv
20000144 g     O .bss	00000008 frame
00008d58 g     O .text	00000010 MemNum
0000029e g     F .text	00000008 ETH_IRQHandler
00008504 g     F .text	0000010c _printf_common
200000ac g     O .data	00000004 _impure_ptr
00000892  w      .text	00000000 TIM1_UP_IRQHandler
000046d4 g     F .text	000002ba tcp_slowtmr
00007be4 g     F .text	00000130 __sflush_r
00001788 g     F .text	00000096 WCHNET_Rx
20000078 g     O .data	00000004 IPAddr
00000892  w      .text	00000000 WWDG_IRQHandler
0000110c g     F .text	00000016 ETH_Start
00000892  w      .text	00000000 Ecall_U_Mode_Handler
00002aea g     F .text	00000064 ethernetif_init
000002a6 g     F .text	00000014 TIM2_IRQHandler
20010000 g       .stack	00000000 _eusrstack
00000170 g     F .text	0000000c .hidden __riscv_save_2
00000892  w      .text	00000000 SW_Handler
00001fa6 g     F .text	0000004a tcp_recved_socket
200023cc g     O .bss	00000600 MACTxBuf
000009c2 g     F .text	0000000e FLASH_Lock_Fast
00002302 g     F .text	0000000a WCHNET_GetPHYStatus
000018da g     F .text	0000001e IPCheckParaInit
00000892  w      .text	00000000 TIM1_BRK_IRQHandler
00007fa6 g     F .text	00000058 __swhatbuf_r
00000d3e g     F .text	00000008 USART_SendData
20000188 g     O .bss	00000004 tcp_tw_pcbs
00000892  w      .text	00000000 EXTI1_IRQHandler
00006ec0 g     F .text	00000238 udp_input
00000156 g     F .text	0000001a .hidden __riscv_save_5
20000120 g     O .bss	00000004 DHCPfineTimer
20000130 g     O .bss	00000004 TxTimer
000014f4 g     F .text	0000003e _write
200000dc g       .data	00000000 _edata
200042d8 g       .bss	00000000 _end
00002c86 g     F .text	0000000e htons
20000124 g     O .bss	00000004 DNSTimer
00001130 g     F .text	000000c2 ETH_Configuration
20000118 g     O .bss	00000004 ArpCheckTime
00000bfa g     F .text	0000006a TIM_TimeBaseInit
00002cd2 g     F .text	0000004c ip_route
00000892  w      .text	00000000 RTCAlarm_IRQHandler
00008e74 g       .dlalign	00000000 _data_lma
00004000 g     F .text	0000006e pbuf_header
00003c92 g     F .text	000000ca mem_realloc
20000160 g     O .bss	00000004 netif_default
0000498e g     F .text	00000072 tcp_pcb_remove
00000892  w      .text	00000000 USART2_IRQHandler
00008994 g     F .text	00000048 __swrite
20000106 g     O .bss	00000001 phyLinkStatus
200000e4 g     O .bss	00000001 ip_flash
0000428c g     F .text	00000014 pbuf_chain
200029cc g     O .bss	000004b0 Mem_ArpTable
20000114 g     O .bss	00000004 ARPTimer
20000080 g     O .data	00000002 desport
00004be2 g     F .text	0000009a tcp_abandon
20000098 g     O .data	00000004 arp_table
00001a5c g     F .text	000000d6 SocketUdpReceive
0000827a g     F .text	0000028a _vfiprintf_r
00000892  w      .text	00000000 ETHWakeUp_IRQHandler
00007f3c g     F .text	0000006a _fwalk_reent
20004138 g     O .bss	0000003c SocketInf
00003e2c g     F .text	00000050 memp_init
00004ae2 g     F .text	00000062 tcp_fasttmr
00001d72 g     F .text	00000004 WCHNET_GetVer
00000892  w      .text	00000000 I2C2_ER_IRQHandler
0000042e g     F .text	0000007a UART_2_Init
20000139 g     O .bss	00000001 phydata
00000892  w      .text	00000000 DMA1_Channel2_IRQHandler
00008e18 g     O .text	00000020 __sf_fake_stdout
000025be g     F .text	0000005a etharp_ip_input
0000017c g     F .text	00000024 .hidden __riscv_restore_12
00008b9e g     F .text	00000010 _read
00000894  w      .text	00000000 handle_reset
200000e3 g     O .bss	00000001 inverter
00000892  w      .text	00000000 CAN1_SCE_IRQHandler
200001bc g     O .bss	000005c0 SocketRecvBuf
00001248 g     F .text	0000005c ETH_PHYLink
00000892  w      .text	00000000 FLASH_IRQHandler
00000170 g     F .text	0000000c .hidden __riscv_save_0
0000230c g     F .text	0000000e QueryPingEnable
00004654 g     F .text	00000028 tcp_seg_copy
00000892  w      .text	00000000 USBFSWakeUp_IRQHandler
000002d2 g     F .text	0000006c TIM2_Init
00000892  w      .text	00000000 USART1_IRQHandler
00007ffe g     F .text	00000092 __smakebuf_r
00008610 g     F .text	000002a2 _printf_i
0000731a g     F .text	00000024 udp_new
200001b8 g     O .bss	00000004 __malloc_sbrk_start
00000f88 g     F .text	00000048 WCHNET_PhyPNProcess
00000892  w      .text	00000000 I2C1_ER_IRQHandler
200000b0 g     O .data	00000006 ethbroadcast
00008da8 g     O .text	0000000d tcp_backoff
00000dec g     F .text	0000000c WCHNET_TimeIsr
200001b4 g     O .bss	00000004 __malloc_free_list
00000194 g     F .text	0000000c .hidden __riscv_restore_1
200041f8 g     O .bss	00000044 NetInf
0000827a g     F .text	0000028a _vfprintf_r
00002334 g     F .text	0000000c LwipArpCheck
0000091e g     F .text	00000018 FLASH_GetBank1Status
00005894 g     F .text	000009d6 tcp_input
00004dfe g     F .text	00000032 RemoveTimeWaiTCP
00002d1e g     F .text	0000029a ip_input
200000b8 g     O .data	00000006 ethzero
00000892  w      .text	00000000 USBWakeUp_IRQHandler
00001c42 g     F .text	00000130 WCHNET_ConfigLIB
00008b5e g     F .text	00000010 _close
0000231a g     F .text	0000001a LwipUnreachPort
200000e8 g     O .bss	00000004 ti_data
2000010d g     O .bss	00000001 phyRetryCnt
0000173a g     F .text	0000004e WCHNET_PhyStatus
0000156e g     F .text	000001b8 WCHNET_PeriodicHandle



Disassembly of section .init:

00000000 <_sinit>:
   0:	0950006f          	j	894 <handle_reset>

Disassembly of section .vector:

00000004 <_vector_base>:
	...
   c:	0248                	addi	a0,sp,260
   e:	0000                	unimp
  10:	024c                	addi	a1,sp,260
  12:	0000                	unimp
  14:	0000                	unimp
  16:	0000                	unimp
  18:	0892                	slli	a7,a7,0x4
	...
  22:	0000                	unimp
  24:	0892                	slli	a7,a7,0x4
  26:	0000                	unimp
  28:	0892                	slli	a7,a7,0x4
	...
  32:	0000                	unimp
  34:	0892                	slli	a7,a7,0x4
  36:	0000                	unimp
  38:	0000                	unimp
  3a:	0000                	unimp
  3c:	0892                	slli	a7,a7,0x4
  3e:	0000                	unimp
  40:	0000                	unimp
  42:	0000                	unimp
  44:	0892                	slli	a7,a7,0x4
  46:	0000                	unimp
  48:	0892                	slli	a7,a7,0x4
  4a:	0000                	unimp
  4c:	0892                	slli	a7,a7,0x4
  4e:	0000                	unimp
  50:	0892                	slli	a7,a7,0x4
  52:	0000                	unimp
  54:	0892                	slli	a7,a7,0x4
  56:	0000                	unimp
  58:	0892                	slli	a7,a7,0x4
  5a:	0000                	unimp
  5c:	0892                	slli	a7,a7,0x4
  5e:	0000                	unimp
  60:	0892                	slli	a7,a7,0x4
  62:	0000                	unimp
  64:	0892                	slli	a7,a7,0x4
  66:	0000                	unimp
  68:	0892                	slli	a7,a7,0x4
  6a:	0000                	unimp
  6c:	0892                	slli	a7,a7,0x4
  6e:	0000                	unimp
  70:	0892                	slli	a7,a7,0x4
  72:	0000                	unimp
  74:	0892                	slli	a7,a7,0x4
  76:	0000                	unimp
  78:	0892                	slli	a7,a7,0x4
  7a:	0000                	unimp
  7c:	0892                	slli	a7,a7,0x4
  7e:	0000                	unimp
  80:	0892                	slli	a7,a7,0x4
  82:	0000                	unimp
  84:	0892                	slli	a7,a7,0x4
  86:	0000                	unimp
  88:	0892                	slli	a7,a7,0x4
  8a:	0000                	unimp
  8c:	0892                	slli	a7,a7,0x4
  8e:	0000                	unimp
  90:	0892                	slli	a7,a7,0x4
  92:	0000                	unimp
  94:	0892                	slli	a7,a7,0x4
  96:	0000                	unimp
  98:	0892                	slli	a7,a7,0x4
  9a:	0000                	unimp
  9c:	0892                	slli	a7,a7,0x4
  9e:	0000                	unimp
  a0:	0892                	slli	a7,a7,0x4
  a2:	0000                	unimp
  a4:	0892                	slli	a7,a7,0x4
  a6:	0000                	unimp
  a8:	0892                	slli	a7,a7,0x4
  aa:	0000                	unimp
  ac:	0892                	slli	a7,a7,0x4
  ae:	0000                	unimp
  b0:	0892                	slli	a7,a7,0x4
  b2:	0000                	unimp
  b4:	02a6                	slli	t0,t0,0x9
  b6:	0000                	unimp
  b8:	0892                	slli	a7,a7,0x4
  ba:	0000                	unimp
  bc:	0892                	slli	a7,a7,0x4
  be:	0000                	unimp
  c0:	0892                	slli	a7,a7,0x4
  c2:	0000                	unimp
  c4:	0892                	slli	a7,a7,0x4
  c6:	0000                	unimp
  c8:	0892                	slli	a7,a7,0x4
  ca:	0000                	unimp
  cc:	0892                	slli	a7,a7,0x4
  ce:	0000                	unimp
  d0:	0892                	slli	a7,a7,0x4
  d2:	0000                	unimp
  d4:	0892                	slli	a7,a7,0x4
  d6:	0000                	unimp
  d8:	0892                	slli	a7,a7,0x4
  da:	0000                	unimp
  dc:	0892                	slli	a7,a7,0x4
  de:	0000                	unimp
  e0:	0892                	slli	a7,a7,0x4
  e2:	0000                	unimp
  e4:	0892                	slli	a7,a7,0x4
  e6:	0000                	unimp
  e8:	0892                	slli	a7,a7,0x4
  ea:	0000                	unimp
  ec:	0892                	slli	a7,a7,0x4
  ee:	0000                	unimp
  f0:	0892                	slli	a7,a7,0x4
  f2:	0000                	unimp
  f4:	0892                	slli	a7,a7,0x4
  f6:	0000                	unimp
  f8:	029e                	slli	t0,t0,0x7
  fa:	0000                	unimp
  fc:	0892                	slli	a7,a7,0x4
  fe:	0000                	unimp
 100:	0892                	slli	a7,a7,0x4
 102:	0000                	unimp
 104:	0892                	slli	a7,a7,0x4
 106:	0000                	unimp
 108:	0892                	slli	a7,a7,0x4
 10a:	0000                	unimp
 10c:	0892                	slli	a7,a7,0x4
 10e:	0000                	unimp
 110:	0892                	slli	a7,a7,0x4
 112:	0000                	unimp
 114:	0892                	slli	a7,a7,0x4
 116:	0000                	unimp
 118:	0892                	slli	a7,a7,0x4
	...

Disassembly of section .text:

00000140 <__riscv_save_12>:
     140:	7139                	addi	sp,sp,-64
     142:	4301                	li	t1,0
     144:	c66e                	sw	s11,12(sp)
     146:	a019                	j	14c <__riscv_save_10+0x4>

00000148 <__riscv_save_10>:
     148:	7139                	addi	sp,sp,-64
     14a:	5341                	li	t1,-16
     14c:	c86a                	sw	s10,16(sp)
     14e:	ca66                	sw	s9,20(sp)
     150:	cc62                	sw	s8,24(sp)
     152:	ce5e                	sw	s7,28(sp)
     154:	a019                	j	15a <__riscv_save_4+0x4>

00000156 <__riscv_save_4>:
     156:	7139                	addi	sp,sp,-64
     158:	5301                	li	t1,-32
     15a:	d05a                	sw	s6,32(sp)
     15c:	d256                	sw	s5,36(sp)
     15e:	d452                	sw	s4,40(sp)
     160:	d64e                	sw	s3,44(sp)
     162:	d84a                	sw	s2,48(sp)
     164:	da26                	sw	s1,52(sp)
     166:	dc22                	sw	s0,56(sp)
     168:	de06                	sw	ra,60(sp)
     16a:	40610133          	sub	sp,sp,t1
     16e:	8282                	jr	t0

00000170 <__riscv_save_0>:
     170:	1141                	addi	sp,sp,-16
     172:	c04a                	sw	s2,0(sp)
     174:	c226                	sw	s1,4(sp)
     176:	c422                	sw	s0,8(sp)
     178:	c606                	sw	ra,12(sp)
     17a:	8282                	jr	t0

0000017c <__riscv_restore_12>:
     17c:	4db2                	lw	s11,12(sp)
     17e:	0141                	addi	sp,sp,16

00000180 <__riscv_restore_10>:
     180:	4d02                	lw	s10,0(sp)
     182:	4c92                	lw	s9,4(sp)
     184:	4c22                	lw	s8,8(sp)
     186:	4bb2                	lw	s7,12(sp)
     188:	0141                	addi	sp,sp,16

0000018a <__riscv_restore_4>:
     18a:	4b02                	lw	s6,0(sp)
     18c:	4a92                	lw	s5,4(sp)
     18e:	4a22                	lw	s4,8(sp)
     190:	49b2                	lw	s3,12(sp)
     192:	0141                	addi	sp,sp,16

00000194 <__riscv_restore_0>:
     194:	4902                	lw	s2,0(sp)
     196:	4492                	lw	s1,4(sp)
     198:	4422                	lw	s0,8(sp)
     19a:	40b2                	lw	ra,12(sp)
     19c:	0141                	addi	sp,sp,16
     19e:	8082                	ret

000001a0 <memset>:
     1a0:	433d                	li	t1,15
     1a2:	872a                	mv	a4,a0
     1a4:	02c37363          	bgeu	t1,a2,1ca <memset+0x2a>
     1a8:	00f77793          	andi	a5,a4,15
     1ac:	efbd                	bnez	a5,22a <memset+0x8a>
     1ae:	e5ad                	bnez	a1,218 <memset+0x78>
     1b0:	ff067693          	andi	a3,a2,-16
     1b4:	8a3d                	andi	a2,a2,15
     1b6:	96ba                	add	a3,a3,a4
     1b8:	c30c                	sw	a1,0(a4)
     1ba:	c34c                	sw	a1,4(a4)
     1bc:	c70c                	sw	a1,8(a4)
     1be:	c74c                	sw	a1,12(a4)
     1c0:	0741                	addi	a4,a4,16
     1c2:	fed76be3          	bltu	a4,a3,1b8 <memset+0x18>
     1c6:	e211                	bnez	a2,1ca <memset+0x2a>
     1c8:	8082                	ret
     1ca:	40c306b3          	sub	a3,t1,a2
     1ce:	068a                	slli	a3,a3,0x2
     1d0:	00000297          	auipc	t0,0x0
     1d4:	9696                	add	a3,a3,t0
     1d6:	00a68067          	jr	10(a3)
     1da:	00b70723          	sb	a1,14(a4)
     1de:	00b706a3          	sb	a1,13(a4)
     1e2:	00b70623          	sb	a1,12(a4)
     1e6:	00b705a3          	sb	a1,11(a4)
     1ea:	00b70523          	sb	a1,10(a4)
     1ee:	00b704a3          	sb	a1,9(a4)
     1f2:	00b70423          	sb	a1,8(a4)
     1f6:	00b703a3          	sb	a1,7(a4)
     1fa:	00b70323          	sb	a1,6(a4)
     1fe:	00b702a3          	sb	a1,5(a4)
     202:	00b70223          	sb	a1,4(a4)
     206:	00b701a3          	sb	a1,3(a4)
     20a:	00b70123          	sb	a1,2(a4)
     20e:	00b700a3          	sb	a1,1(a4)
     212:	00b70023          	sb	a1,0(a4)
     216:	8082                	ret
     218:	0ff5f593          	andi	a1,a1,255
     21c:	00859693          	slli	a3,a1,0x8
     220:	8dd5                	or	a1,a1,a3
     222:	01059693          	slli	a3,a1,0x10
     226:	8dd5                	or	a1,a1,a3
     228:	b761                	j	1b0 <memset+0x10>
     22a:	00279693          	slli	a3,a5,0x2
     22e:	00000297          	auipc	t0,0x0
     232:	9696                	add	a3,a3,t0
     234:	8286                	mv	t0,ra
     236:	fa8680e7          	jalr	-88(a3)
     23a:	8096                	mv	ra,t0
     23c:	17c1                	addi	a5,a5,-16
     23e:	8f1d                	sub	a4,a4,a5
     240:	963e                	add	a2,a2,a5
     242:	f8c374e3          	bgeu	t1,a2,1ca <memset+0x2a>
     246:	b7a5                	j	1ae <memset+0xe>

00000248 <NMI_Handler>:
     248:	30200073          	mret

0000024c <HardFault_Handler>:
     24c:	00009537          	lui	a0,0x9
     250:	bb050513          	addi	a0,a0,-1104 # 8bb0 <_read+0x12>
     254:	7cc070ef          	jal	ra,7a20 <puts>
     258:	30a010ef          	jal	ra,1562 <__get_MCAUSE>
     25c:	85aa                	mv	a1,a0
     25e:	00009537          	lui	a0,0x9
     262:	bc450513          	addi	a0,a0,-1084 # 8bc4 <_read+0x26>
     266:	67c070ef          	jal	ra,78e2 <iprintf>
     26a:	2fe010ef          	jal	ra,1568 <__get_MTVAL>
     26e:	85aa                	mv	a1,a0
     270:	00009537          	lui	a0,0x9
     274:	bd450513          	addi	a0,a0,-1068 # 8bd4 <_read+0x36>
     278:	66a070ef          	jal	ra,78e2 <iprintf>
     27c:	2e0010ef          	jal	ra,155c <__get_MEPC>
     280:	85aa                	mv	a1,a0
     282:	00009537          	lui	a0,0x9
     286:	be450513          	addi	a0,a0,-1052 # 8be4 <_read+0x46>
     28a:	658070ef          	jal	ra,78e2 <iprintf>
     28e:	beef07b7          	lui	a5,0xbeef0
     292:	e000e737          	lui	a4,0xe000e
     296:	08078793          	addi	a5,a5,128 # beef0080 <_eusrstack+0x9eee0080>
     29a:	c73c                	sw	a5,72(a4)
     29c:	a001                	j	29c <HardFault_Handler+0x50>

0000029e <ETH_IRQHandler>:
     29e:	006010ef          	jal	ra,12a4 <WCHNET_ETHIsr>
     2a2:	30200073          	mret

000002a6 <TIM2_IRQHandler>:
     2a6:	4529                	li	a0,10
     2a8:	345000ef          	jal	ra,dec <WCHNET_TimeIsr>
     2ac:	4585                	li	a1,1
     2ae:	40000537          	lui	a0,0x40000
     2b2:	1dd000ef          	jal	ra,c8e <TIM_ClearITPendingBit>
     2b6:	30200073          	mret

000002ba <mStopIfError>:
     2ba:	c919                	beqz	a0,2d0 <mStopIfError+0x16>
     2bc:	eb5ff2ef          	jal	t0,170 <__riscv_save_0>
     2c0:	85aa                	mv	a1,a0
     2c2:	00009537          	lui	a0,0x9
     2c6:	c8c50513          	addi	a0,a0,-884 # 8c8c <_read+0xee>
     2ca:	618070ef          	jal	ra,78e2 <iprintf>
     2ce:	b5d9                	j	194 <__riscv_restore_0>
     2d0:	8082                	ret

000002d2 <TIM2_Init>:
     2d2:	e9fff2ef          	jal	t0,170 <__riscv_save_0>
     2d6:	1141                	addi	sp,sp,-16
     2d8:	4585                	li	a1,1
     2da:	4505                	li	a0,1
     2dc:	c202                	sw	zero,4(sp)
     2de:	c402                	sw	zero,8(sp)
     2e0:	00011623          	sh	zero,12(sp)
     2e4:	0df000ef          	jal	ra,bc2 <RCC_APB1PeriphClockCmd>
     2e8:	8141a783          	lw	a5,-2028(gp) # 20000084 <SystemCoreClock>
     2ec:	000f4737          	lui	a4,0xf4
     2f0:	24070713          	addi	a4,a4,576 # f4240 <_data_lma+0xeb3cc>
     2f4:	02e7d7b3          	divu	a5,a5,a4
     2f8:	004c                	addi	a1,sp,4
     2fa:	40000537          	lui	a0,0x40000
     2fe:	00011523          	sh	zero,10(sp)
     302:	847c                	sh	a5,8(sp)
     304:	6789                	lui	a5,0x2
     306:	70f78793          	addi	a5,a5,1807 # 270f <etharp_arp_input+0xf7>
     30a:	c23e                	sw	a5,4(sp)
     30c:	0ef000ef          	jal	ra,bfa <TIM_TimeBaseInit>
     310:	4605                	li	a2,1
     312:	4585                	li	a1,1
     314:	40000537          	lui	a0,0x40000
     318:	165000ef          	jal	ra,c7c <TIM_ITConfig>
     31c:	4585                	li	a1,1
     31e:	40000537          	lui	a0,0x40000
     322:	143000ef          	jal	ra,c64 <TIM_Cmd>
     326:	4585                	li	a1,1
     328:	40000537          	lui	a0,0x40000
     32c:	163000ef          	jal	ra,c8e <TIM_ClearITPendingBit>
     330:	e000e7b7          	lui	a5,0xe000e
     334:	6705                	lui	a4,0x1
     336:	10e7a223          	sw	a4,260(a5) # e000e104 <_eusrstack+0xbfffe104>
     33a:	0141                	addi	sp,sp,16
     33c:	bda1                	j	194 <__riscv_restore_0>

0000033e <CreateUdpSocket>:
     33e:	e33ff2ef          	jal	t0,170 <__riscv_save_0>
     342:	7139                	addi	sp,sp,-64
     344:	03c00613          	li	a2,60
     348:	4581                	li	a1,0
     34a:	0048                	addi	a0,sp,4
     34c:	3d91                	jal	1a0 <memset>
     34e:	200007b7          	lui	a5,0x20000
     352:	0707a783          	lw	a5,112(a5) # 20000070 <DESIP>
     356:	87218413          	addi	s0,gp,-1934 # 200000e2 <SocketId>
     35a:	d83e                	sw	a5,48(sp)
     35c:	8101d783          	lhu	a5,-2032(gp) # 20000080 <desport>
     360:	004c                	addi	a1,sp,4
     362:	87218513          	addi	a0,gp,-1934 # 200000e2 <SocketId>
     366:	d43e                	sw	a5,40(sp)
     368:	81218793          	addi	a5,gp,-2030 # 20000082 <srcport>
     36c:	239a                	lhu	a4,0(a5)
     36e:	00170693          	addi	a3,a4,1 # 1001 <WCHNET_HandlePhyNegotiation+0x31>
     372:	a396                	sh	a3,0(a5)
     374:	4789                	li	a5,2
     376:	d03e                	sw	a5,32(sp)
     378:	201c                	lbu	a5,0(s0)
     37a:	5c000693          	li	a3,1472
     37e:	d63a                	sw	a4,44(sp)
     380:	02d78733          	mul	a4,a5,a3
     384:	94c18793          	addi	a5,gp,-1716 # 200001bc <SocketRecvBuf>
     388:	c836                	sw	a3,16(sp)
     38a:	97ba                	add	a5,a5,a4
     38c:	c63e                	sw	a5,12(sp)
     38e:	247010ef          	jal	ra,1dd4 <WCHNET_SocketCreat>
     392:	200c                	lbu	a1,0(s0)
     394:	84aa                	mv	s1,a0
     396:	00009537          	lui	a0,0x9
     39a:	bf050513          	addi	a0,a0,-1040 # 8bf0 <_read+0x52>
     39e:	544070ef          	jal	ra,78e2 <iprintf>
     3a2:	8526                	mv	a0,s1
     3a4:	3f19                	jal	2ba <mStopIfError>
     3a6:	6121                	addi	sp,sp,64
     3a8:	b3f5                	j	194 <__riscv_restore_0>

000003aa <u2_parsing>:
     3aa:	dc7ff2ef          	jal	t0,170 <__riscv_save_0>
     3ae:	400044b7          	lui	s1,0x40004
     3b2:	1141                	addi	sp,sp,-16
     3b4:	02000593          	li	a1,32
     3b8:	40048513          	addi	a0,s1,1024 # 40004400 <_eusrstack+0x1fff4400>
     3bc:	193000ef          	jal	ra,d4e <USART_GetFlagStatus>
     3c0:	87818413          	addi	s0,gp,-1928 # 200000e8 <ti_data>
     3c4:	c505                	beqz	a0,3ec <u2_parsing+0x42>
     3c6:	40048513          	addi	a0,s1,1024
     3ca:	17d000ef          	jal	ra,d46 <USART_ReceiveData>
     3ce:	87c18693          	addi	a3,gp,-1924 # 200000ec <uart_pntr>
     3d2:	229e                	lhu	a5,0(a3)
     3d4:	f0c18713          	addi	a4,gp,-244 # 2000077c <uart_rx_bf>
     3d8:	973e                	add	a4,a4,a5
     3da:	a308                	sb	a0,0(a4)
     3dc:	00042023          	sw	zero,0(s0)
     3e0:	7ff00713          	li	a4,2047
     3e4:	00f76463          	bltu	a4,a5,3ec <u2_parsing+0x42>
     3e8:	0785                	addi	a5,a5,1
     3ea:	a29e                	sh	a5,0(a3)
     3ec:	401c                	lw	a5,0(s0)
     3ee:	6741                	lui	a4,0x10
     3f0:	fdc70713          	addi	a4,a4,-36 # ffdc <_data_lma+0x7168>
     3f4:	0785                	addi	a5,a5,1
     3f6:	c01c                	sw	a5,0(s0)
     3f8:	02f77963          	bgeu	a4,a5,42a <u2_parsing+0x80>
     3fc:	87c18413          	addi	s0,gp,-1924 # 200000ec <uart_pntr>
     400:	201e                	lhu	a5,0(s0)
     402:	c785                	beqz	a5,42a <u2_parsing+0x80>
     404:	8681a783          	lw	a5,-1944(gp) # 200000d8 <_global_impure_ptr+0x8>
     408:	0074                	addi	a3,sp,12
     40a:	c63e                	sw	a5,12(sp)
     40c:	8101d703          	lhu	a4,-2032(gp) # 20000080 <desport>
     410:	8721c503          	lbu	a0,-1934(gp) # 200000e2 <SocketId>
     414:	87c18613          	addi	a2,gp,-1924 # 200000ec <uart_pntr>
     418:	f0c18593          	addi	a1,gp,-244 # 2000077c <uart_rx_bf>
     41c:	4bb010ef          	jal	ra,20d6 <WCHNET_SocketUdpSendTo>
     420:	4529                	li	a0,10
     422:	09c010ef          	jal	ra,14be <Delay_Ms>
     426:	00041023          	sh	zero,0(s0)
     42a:	0141                	addi	sp,sp,16
     42c:	b3a5                	j	194 <__riscv_restore_0>

0000042e <UART_2_Init>:
     42e:	d43ff2ef          	jal	t0,170 <__riscv_save_0>
     432:	1101                	addi	sp,sp,-32
     434:	84aa                	mv	s1,a0
     436:	4585                	li	a1,1
     438:	4511                	li	a0,4
     43a:	c202                	sw	zero,4(sp)
     43c:	c402                	sw	zero,8(sp)
     43e:	c602                	sw	zero,12(sp)
     440:	c802                	sw	zero,16(sp)
     442:	ca02                	sw	zero,20(sp)
     444:	cc02                	sw	zero,24(sp)
     446:	ce02                	sw	zero,28(sp)
     448:	75c000ef          	jal	ra,ba4 <RCC_APB2PeriphClockCmd>
     44c:	4585                	li	a1,1
     44e:	00020537          	lui	a0,0x20
     452:	770000ef          	jal	ra,bc2 <RCC_APB1PeriphClockCmd>
     456:	4791                	li	a5,4
     458:	827c                	sh	a5,4(sp)
     45a:	40011437          	lui	s0,0x40011
     45e:	4785                	li	a5,1
     460:	c43e                	sw	a5,8(sp)
     462:	004c                	addi	a1,sp,4
     464:	47e1                	li	a5,24
     466:	80040513          	addi	a0,s0,-2048 # 40010800 <_eusrstack+0x20000800>
     46a:	c63e                	sw	a5,12(sp)
     46c:	2b49                	jal	9fe <GPIO_Init>
     46e:	47a1                	li	a5,8
     470:	827c                	sh	a5,4(sp)
     472:	004c                	addi	a1,sp,4
     474:	4791                	li	a5,4
     476:	80040513          	addi	a0,s0,-2048
     47a:	c63e                	sw	a5,12(sp)
     47c:	40004437          	lui	s0,0x40004
     480:	2bbd                	jal	9fe <GPIO_Init>
     482:	000c07b7          	lui	a5,0xc0
     486:	080c                	addi	a1,sp,16
     488:	40040513          	addi	a0,s0,1024 # 40004400 <_eusrstack+0x1fff4400>
     48c:	cc3e                	sw	a5,24(sp)
     48e:	c826                	sw	s1,16(sp)
     490:	ca02                	sw	zero,20(sp)
     492:	00011e23          	sh	zero,28(sp)
     496:	005000ef          	jal	ra,c9a <USART_Init>
     49a:	4585                	li	a1,1
     49c:	40040513          	addi	a0,s0,1024
     4a0:	089000ef          	jal	ra,d28 <USART_Cmd>
     4a4:	6105                	addi	sp,sp,32
     4a6:	b1fd                	j	194 <__riscv_restore_0>

000004a8 <UART_2_write_byte>:
     4a8:	cc9ff2ef          	jal	t0,170 <__riscv_save_0>
     4ac:	40004437          	lui	s0,0x40004
     4b0:	85aa                	mv	a1,a0
     4b2:	40040513          	addi	a0,s0,1024 # 40004400 <_eusrstack+0x1fff4400>
     4b6:	089000ef          	jal	ra,d3e <USART_SendData>
     4ba:	40040413          	addi	s0,s0,1024
     4be:	08000593          	li	a1,128
     4c2:	8522                	mv	a0,s0
     4c4:	08b000ef          	jal	ra,d4e <USART_GetFlagStatus>
     4c8:	d97d                	beqz	a0,4be <UART_2_write_byte+0x16>
     4ca:	b1e9                	j	194 <__riscv_restore_0>

000004cc <NET_DataInUart>:
     4cc:	c8bff2ef          	jal	t0,156 <__riscv_save_4>
     4d0:	03c00713          	li	a4,60
     4d4:	02e50733          	mul	a4,a0,a4
     4d8:	200047b7          	lui	a5,0x20004
     4dc:	13878793          	addi	a5,a5,312 # 20004138 <SocketInf>
     4e0:	1141                	addi	sp,sp,-16
     4e2:	84aa                	mv	s1,a0
     4e4:	97ba                	add	a5,a5,a4
     4e6:	47d4                	lw	a3,12(a5)
     4e8:	4798                	lw	a4,8(a5)
     4ea:	9736                	add	a4,a4,a3
     4ec:	4bd4                	lw	a3,20(a5)
     4ee:	4f9c                	lw	a5,24(a5)
     4f0:	00f68633          	add	a2,a3,a5
     4f4:	00c77463          	bgeu	a4,a2,4fc <NET_DataInUart+0x30>
     4f8:	40d707b3          	sub	a5,a4,a3
     4fc:	5c000913          	li	s2,1472
     500:	03248933          	mul	s2,s1,s2
     504:	00009537          	lui	a0,0x9
     508:	c0850513          	addi	a0,a0,-1016 # 8c08 <_read+0x6a>
     50c:	c63e                	sw	a5,12(sp)
     50e:	4401                	li	s0,0
     510:	3d2070ef          	jal	ra,78e2 <iprintf>
     514:	94c18993          	addi	s3,gp,-1716 # 200001bc <SocketRecvBuf>
     518:	47b2                	lw	a5,12(sp)
     51a:	00f46963          	bltu	s0,a5,52c <NET_DataInUart+0x60>
     51e:	0070                	addi	a2,sp,12
     520:	4581                	li	a1,0
     522:	8526                	mv	a0,s1
     524:	2cd010ef          	jal	ra,1ff0 <WCHNET_SocketRecv>
     528:	0141                	addi	sp,sp,16
     52a:	b185                	j	18a <__riscv_restore_4>
     52c:	012407b3          	add	a5,s0,s2
     530:	97ce                	add	a5,a5,s3
     532:	2388                	lbu	a0,0(a5)
     534:	0405                	addi	s0,s0,1
     536:	3f8d                	jal	4a8 <UART_2_write_byte>
     538:	b7c5                	j	518 <NET_DataInUart+0x4c>

0000053a <WCHNET_HandleSockInt>:
     53a:	c37ff2ef          	jal	t0,170 <__riscv_save_0>
     53e:	0045f793          	andi	a5,a1,4
     542:	842e                	mv	s0,a1
     544:	c385                	beqz	a5,564 <WCHNET_HandleSockInt+0x2a>
     546:	3759                	jal	4cc <NET_DataInUart>
     548:	87318793          	addi	a5,gp,-1933 # 200000e3 <inverter>
     54c:	2398                	lbu	a4,0(a5)
     54e:	4585                	li	a1,1
     550:	40011537          	lui	a0,0x40011
     554:	00174713          	xori	a4,a4,1
     558:	a398                	sb	a4,0(a5)
     55a:	239c                	lbu	a5,0(a5)
     55c:	0ff7f793          	andi	a5,a5,255
     560:	cf95                	beqz	a5,59c <WCHNET_HandleSockInt+0x62>
     562:	2bb1                	jal	abe <GPIO_SetBits>
     564:	00847793          	andi	a5,s0,8
     568:	c799                	beqz	a5,576 <WCHNET_HandleSockInt+0x3c>
     56a:	00009537          	lui	a0,0x9
     56e:	c5450513          	addi	a0,a0,-940 # 8c54 <_read+0xb6>
     572:	4ae070ef          	jal	ra,7a20 <puts>
     576:	01047793          	andi	a5,s0,16
     57a:	c799                	beqz	a5,588 <WCHNET_HandleSockInt+0x4e>
     57c:	00009537          	lui	a0,0x9
     580:	c6c50513          	addi	a0,a0,-916 # 8c6c <_read+0xce>
     584:	49c070ef          	jal	ra,7a20 <puts>
     588:	04047413          	andi	s0,s0,64
     58c:	c419                	beqz	s0,59a <WCHNET_HandleSockInt+0x60>
     58e:	00009537          	lui	a0,0x9
     592:	c7c50513          	addi	a0,a0,-900 # 8c7c <_read+0xde>
     596:	48a070ef          	jal	ra,7a20 <puts>
     59a:	beed                	j	194 <__riscv_restore_0>
     59c:	231d                	jal	ac2 <GPIO_ResetBits>
     59e:	b7d9                	j	564 <WCHNET_HandleSockInt+0x2a>

000005a0 <my_FLASH_WRITE>:
     5a0:	bd1ff2ef          	jal	t0,170 <__riscv_save_0>
     5a4:	1141                	addi	sp,sp,-16
     5a6:	84aa                	mv	s1,a0
     5a8:	c62e                	sw	a1,12(sp)
     5aa:	08800413          	li	s0,136
     5ae:	80043073          	csrc	0x800,s0
     5b2:	2ecd                	jal	9a4 <FLASH_Unlock_Fast>
     5b4:	4505                	li	a0,1
     5b6:	709000ef          	jal	ra,14be <Delay_Ms>
     5ba:	08010537          	lui	a0,0x8010
     5be:	f0050513          	addi	a0,a0,-256 # 800ff00 <_data_lma+0x800708c>
     5c2:	2139                	jal	9d0 <FLASH_ErasePage_Fast>
     5c4:	4505                	li	a0,1
     5c6:	6f9000ef          	jal	ra,14be <Delay_Ms>
     5ca:	45b2                	lw	a1,12(sp)
     5cc:	8526                	mv	a0,s1
     5ce:	2661                	jal	956 <FLASH_ProgramWord>
     5d0:	4505                	li	a0,1
     5d2:	6ed000ef          	jal	ra,14be <Delay_Ms>
     5d6:	26f5                	jal	9c2 <FLASH_Lock_Fast>
     5d8:	80042073          	csrs	0x800,s0
     5dc:	0141                	addi	sp,sp,16
     5de:	be5d                	j	194 <__riscv_restore_0>

000005e0 <WCHNET_HandleGlobalInt>:
     5e0:	b91ff2ef          	jal	t0,170 <__riscv_save_0>
     5e4:	4e3010ef          	jal	ra,22c6 <WCHNET_GetGlobalInt>
     5e8:	00157793          	andi	a5,a0,1
     5ec:	842a                	mv	s0,a0
     5ee:	c799                	beqz	a5,5fc <WCHNET_HandleGlobalInt+0x1c>
     5f0:	00009537          	lui	a0,0x9
     5f4:	c1450513          	addi	a0,a0,-1004 # 8c14 <_read+0x76>
     5f8:	428070ef          	jal	ra,7a20 <puts>
     5fc:	00247793          	andi	a5,s0,2
     600:	cb8d                	beqz	a5,632 <WCHNET_HandleGlobalInt+0x52>
     602:	00009537          	lui	a0,0x9
     606:	c2850513          	addi	a0,a0,-984 # 8c28 <_read+0x8a>
     60a:	416070ef          	jal	ra,7a20 <puts>
     60e:	87418793          	addi	a5,gp,-1932 # 200000e4 <ip_flash>
     612:	238c                	lbu	a1,0(a5)
     614:	08010537          	lui	a0,0x8010
     618:	1541                	addi	a0,a0,-16
     61a:	0585                	addi	a1,a1,1
     61c:	0ff5f593          	andi	a1,a1,255
     620:	a38c                	sb	a1,0(a5)
     622:	3fbd                	jal	5a0 <my_FLASH_WRITE>
     624:	beef07b7          	lui	a5,0xbeef0
     628:	e000e737          	lui	a4,0xe000e
     62c:	08078793          	addi	a5,a5,128 # beef0080 <_eusrstack+0x9eee0080>
     630:	c73c                	sw	a5,72(a4)
     632:	00447793          	andi	a5,s0,4
     636:	cb99                	beqz	a5,64c <WCHNET_HandleGlobalInt+0x6c>
     638:	4cb010ef          	jal	ra,2302 <WCHNET_GetPHYStatus>
     63c:	8911                	andi	a0,a0,4
     63e:	c519                	beqz	a0,64c <WCHNET_HandleGlobalInt+0x6c>
     640:	00009537          	lui	a0,0x9
     644:	c4050513          	addi	a0,a0,-960 # 8c40 <_read+0xa2>
     648:	3d8070ef          	jal	ra,7a20 <puts>
     64c:	8841                	andi	s0,s0,16
     64e:	e011                	bnez	s0,652 <WCHNET_HandleGlobalInt+0x72>
     650:	b691                	j	194 <__riscv_restore_0>
     652:	4501                	li	a0,0
     654:	485010ef          	jal	ra,22d8 <WCHNET_GetSocketInt>
     658:	85aa                	mv	a1,a0
     65a:	d97d                	beqz	a0,650 <WCHNET_HandleGlobalInt+0x70>
     65c:	4501                	li	a0,0
     65e:	3df1                	jal	53a <WCHNET_HandleSockInt>
     660:	bfc5                	j	650 <WCHNET_HandleGlobalInt+0x70>

00000662 <my_NET_init>:
     662:	b0fff2ef          	jal	t0,170 <__riscv_save_0>
     666:	080107b7          	lui	a5,0x8010
     66a:	ff07a703          	lw	a4,-16(a5) # 800fff0 <_data_lma+0x800717c>
     66e:	ff078513          	addi	a0,a5,-16
     672:	0ff77713          	andi	a4,a4,255
     676:	86e18a23          	sb	a4,-1932(gp) # 200000e4 <ip_flash>
     67a:	03900693          	li	a3,57
     67e:	87418413          	addi	s0,gp,-1932 # 200000e4 <ip_flash>
     682:	00d71a63          	bne	a4,a3,696 <my_NET_init+0x34>
     686:	4585                	li	a1,1
     688:	3f21                	jal	5a0 <my_FLASH_WRITE>
     68a:	00009537          	lui	a0,0x9
     68e:	d3050513          	addi	a0,a0,-720 # 8d30 <_read+0x192>
     692:	250070ef          	jal	ra,78e2 <iprintf>
     696:	080107b7          	lui	a5,0x8010
     69a:	ff07a783          	lw	a5,-16(a5) # 800fff0 <_data_lma+0x800717c>
     69e:	0ff7f793          	andi	a5,a5,255
     6a2:	80818713          	addi	a4,gp,-2040 # 20000078 <IPAddr>
     6a6:	86c18693          	addi	a3,gp,-1940 # 200000dc <_edata>
     6aa:	80c18613          	addi	a2,gp,-2036 # 2000007c <IPMask>
     6ae:	80418593          	addi	a1,gp,-2044 # 20000074 <GWIPAddr>
     6b2:	80818513          	addi	a0,gp,-2040 # 20000078 <IPAddr>
     6b6:	a01c                	sb	a5,0(s0)
     6b8:	b33c                	sb	a5,3(a4)
     6ba:	527000ef          	jal	ra,13e0 <ETH_LibInit>
     6be:	842a                	mv	s0,a0
     6c0:	3eed                	jal	2ba <mStopIfError>
     6c2:	e419                	bnez	s0,6d0 <my_NET_init+0x6e>
     6c4:	00009537          	lui	a0,0x9
     6c8:	d4050513          	addi	a0,a0,-704 # 8d40 <_read+0x1a2>
     6cc:	354070ef          	jal	ra,7a20 <puts>
     6d0:	31bd                	jal	33e <CreateUdpSocket>
     6d2:	b4c9                	j	194 <__riscv_restore_0>

000006d4 <main>:
     6d4:	a83ff2ef          	jal	t0,156 <__riscv_save_4>
     6d8:	58b000ef          	jal	ra,1462 <Delay_Init>
     6dc:	6571                	lui	a0,0x1c
     6de:	20050513          	addi	a0,a0,512 # 1c200 <_data_lma+0x1338c>
     6e2:	33b1                	jal	42e <UART_2_Init>
     6e4:	00009537          	lui	a0,0x9
     6e8:	c9c50513          	addi	a0,a0,-868 # 8c9c <_read+0xfe>
     6ec:	334070ef          	jal	ra,7a20 <puts>
     6f0:	8141a583          	lw	a1,-2028(gp) # 20000084 <SystemCoreClock>
     6f4:	039387b7          	lui	a5,0x3938
     6f8:	70078793          	addi	a5,a5,1792 # 3938700 <_data_lma+0x392f88c>
     6fc:	00f58863          	beq	a1,a5,70c <main+0x38>
     700:	072717b7          	lui	a5,0x7271
     704:	e0078793          	addi	a5,a5,-512 # 7270e00 <_data_lma+0x7267f8c>
     708:	08f59263          	bne	a1,a5,78c <main+0xb8>
     70c:	00009537          	lui	a0,0x9
     710:	cac50513          	addi	a0,a0,-852 # 8cac <_read+0x10e>
     714:	1ce070ef          	jal	ra,78e2 <iprintf>
     718:	65a010ef          	jal	ra,1d72 <WCHNET_GetVer>
     71c:	85aa                	mv	a1,a0
     71e:	00009537          	lui	a0,0x9
     722:	d0050513          	addi	a0,a0,-768 # 8d00 <_read+0x162>
     726:	1bc070ef          	jal	ra,78e2 <iprintf>
     72a:	648010ef          	jal	ra,1d72 <WCHNET_GetVer>
     72e:	47e9                	li	a5,26
     730:	00f50863          	beq	a0,a5,740 <main+0x6c>
     734:	00009537          	lui	a0,0x9
     738:	d1050513          	addi	a0,a0,-752 # 8d10 <_read+0x172>
     73c:	2e4070ef          	jal	ra,7a20 <puts>
     740:	86c18513          	addi	a0,gp,-1940 # 200000dc <_edata>
     744:	2561                	jal	dcc <WCHNET_GetMacAddr>
     746:	00009537          	lui	a0,0x9
     74a:	d2050513          	addi	a0,a0,-736 # 8d20 <_read+0x182>
     74e:	194070ef          	jal	ra,78e2 <iprintf>
     752:	4401                	li	s0,0
     754:	86c18493          	addi	s1,gp,-1940 # 200000dc <_edata>
     758:	000099b7          	lui	s3,0x9
     75c:	4919                	li	s2,6
     75e:	008487b3          	add	a5,s1,s0
     762:	238c                	lbu	a1,0(a5)
     764:	d2c98513          	addi	a0,s3,-724 # 8d2c <_read+0x18e>
     768:	0405                	addi	s0,s0,1
     76a:	178070ef          	jal	ra,78e2 <iprintf>
     76e:	ff2418e3          	bne	s0,s2,75e <main+0x8a>
     772:	4529                	li	a0,10
     774:	1ae070ef          	jal	ra,7922 <putchar>
     778:	3ea9                	jal	2d2 <TIM2_Init>
     77a:	35e5                	jal	662 <my_NET_init>
     77c:	313d                	jal	3aa <u2_parsing>
     77e:	0f5000ef          	jal	ra,1072 <WCHNET_MainTask>
     782:	307010ef          	jal	ra,2288 <WCHNET_QueryGlobalInt>
     786:	d97d                	beqz	a0,77c <main+0xa8>
     788:	3da1                	jal	5e0 <WCHNET_HandleGlobalInt>
     78a:	bfcd                	j	77c <main+0xa8>
     78c:	00009537          	lui	a0,0x9
     790:	cbc50513          	addi	a0,a0,-836 # 8cbc <_read+0x11e>
     794:	28c070ef          	jal	ra,7a20 <puts>
     798:	b741                	j	718 <main+0x44>

0000079a <SystemInit>:
     79a:	400217b7          	lui	a5,0x40021
     79e:	4398                	lw	a4,0(a5)
     7a0:	f0ff06b7          	lui	a3,0xf0ff0
     7a4:	1141                	addi	sp,sp,-16
     7a6:	00176713          	ori	a4,a4,1
     7aa:	c398                	sw	a4,0(a5)
     7ac:	43d8                	lw	a4,4(a5)
     7ae:	00020637          	lui	a2,0x20
     7b2:	8f75                	and	a4,a4,a3
     7b4:	c3d8                	sw	a4,4(a5)
     7b6:	4398                	lw	a4,0(a5)
     7b8:	fef706b7          	lui	a3,0xfef70
     7bc:	16fd                	addi	a3,a3,-1
     7be:	8f75                	and	a4,a4,a3
     7c0:	c398                	sw	a4,0(a5)
     7c2:	4398                	lw	a4,0(a5)
     7c4:	fffc06b7          	lui	a3,0xfffc0
     7c8:	16fd                	addi	a3,a3,-1
     7ca:	8f75                	and	a4,a4,a3
     7cc:	c398                	sw	a4,0(a5)
     7ce:	43d8                	lw	a4,4(a5)
     7d0:	ff0106b7          	lui	a3,0xff010
     7d4:	16fd                	addi	a3,a3,-1
     7d6:	8f75                	and	a4,a4,a3
     7d8:	c3d8                	sw	a4,4(a5)
     7da:	009f0737          	lui	a4,0x9f0
     7de:	c798                	sw	a4,8(a5)
     7e0:	c402                	sw	zero,8(sp)
     7e2:	c602                	sw	zero,12(sp)
     7e4:	4398                	lw	a4,0(a5)
     7e6:	66c1                	lui	a3,0x10
     7e8:	8f55                	or	a4,a4,a3
     7ea:	c398                	sw	a4,0(a5)
     7ec:	400216b7          	lui	a3,0x40021
     7f0:	6705                	lui	a4,0x1
     7f2:	429c                	lw	a5,0(a3)
     7f4:	8ff1                	and	a5,a5,a2
     7f6:	c63e                	sw	a5,12(sp)
     7f8:	47a2                	lw	a5,8(sp)
     7fa:	0785                	addi	a5,a5,1
     7fc:	c43e                	sw	a5,8(sp)
     7fe:	47b2                	lw	a5,12(sp)
     800:	e781                	bnez	a5,808 <__stack_size+0x8>
     802:	47a2                	lw	a5,8(sp)
     804:	fee797e3          	bne	a5,a4,7f2 <SystemInit+0x58>
     808:	400217b7          	lui	a5,0x40021
     80c:	439c                	lw	a5,0(a5)
     80e:	00e79713          	slli	a4,a5,0xe
     812:	06075e63          	bgez	a4,88e <__stack_size+0x8e>
     816:	4785                	li	a5,1
     818:	c63e                	sw	a5,12(sp)
     81a:	4732                	lw	a4,12(sp)
     81c:	4785                	li	a5,1
     81e:	06f71663          	bne	a4,a5,88a <__stack_size+0x8a>
     822:	400217b7          	lui	a5,0x40021
     826:	43d8                	lw	a4,4(a5)
     828:	00c006b7          	lui	a3,0xc00
     82c:	8f55                	or	a4,a4,a3
     82e:	c3d8                	sw	a4,4(a5)
     830:	43d8                	lw	a4,4(a5)
     832:	ffc106b7          	lui	a3,0xffc10
     836:	16fd                	addi	a3,a3,-1
     838:	08076713          	ori	a4,a4,128
     83c:	c3d8                	sw	a4,4(a5)
     83e:	43d8                	lw	a4,4(a5)
     840:	c3d8                	sw	a4,4(a5)
     842:	43d8                	lw	a4,4(a5)
     844:	40076713          	ori	a4,a4,1024
     848:	c3d8                	sw	a4,4(a5)
     84a:	43d8                	lw	a4,4(a5)
     84c:	8f75                	and	a4,a4,a3
     84e:	c3d8                	sw	a4,4(a5)
     850:	43d8                	lw	a4,4(a5)
     852:	003506b7          	lui	a3,0x350
     856:	8f55                	or	a4,a4,a3
     858:	c3d8                	sw	a4,4(a5)
     85a:	4398                	lw	a4,0(a5)
     85c:	010006b7          	lui	a3,0x1000
     860:	8f55                	or	a4,a4,a3
     862:	c398                	sw	a4,0(a5)
     864:	4398                	lw	a4,0(a5)
     866:	00671693          	slli	a3,a4,0x6
     86a:	fe06dde3          	bgez	a3,864 <__stack_size+0x64>
     86e:	43d8                	lw	a4,4(a5)
     870:	400216b7          	lui	a3,0x40021
     874:	9b71                	andi	a4,a4,-4
     876:	c3d8                	sw	a4,4(a5)
     878:	43d8                	lw	a4,4(a5)
     87a:	00276713          	ori	a4,a4,2
     87e:	c3d8                	sw	a4,4(a5)
     880:	4721                	li	a4,8
     882:	42dc                	lw	a5,4(a3)
     884:	8bb1                	andi	a5,a5,12
     886:	fee79ee3          	bne	a5,a4,882 <__stack_size+0x82>
     88a:	0141                	addi	sp,sp,16
     88c:	8082                	ret
     88e:	c602                	sw	zero,12(sp)
     890:	b769                	j	81a <__stack_size+0x1a>

00000892 <ADC1_2_IRQHandler>:
     892:	a001                	j	892 <ADC1_2_IRQHandler>

00000894 <handle_reset>:
     894:	20000197          	auipc	gp,0x20000
     898:	fdc18193          	addi	gp,gp,-36 # 20000870 <__global_pointer$>
     89c:	2000f117          	auipc	sp,0x2000f
     8a0:	76410113          	addi	sp,sp,1892 # 20010000 <_eusrstack>
     8a4:	00008517          	auipc	a0,0x8
     8a8:	5d050513          	addi	a0,a0,1488 # 8e74 <_data_lma>
     8ac:	1ffff597          	auipc	a1,0x1ffff
     8b0:	75458593          	addi	a1,a1,1876 # 20000000 <_data_vma>
     8b4:	86c18613          	addi	a2,gp,-1940 # 200000dc <_edata>
     8b8:	00c5fa63          	bgeu	a1,a2,8cc <handle_reset+0x38>
     8bc:	00052283          	lw	t0,0(a0)
     8c0:	0055a023          	sw	t0,0(a1)
     8c4:	0511                	addi	a0,a0,4
     8c6:	0591                	addi	a1,a1,4
     8c8:	fec5eae3          	bltu	a1,a2,8bc <handle_reset+0x28>
     8cc:	86c18513          	addi	a0,gp,-1940 # 200000dc <_edata>
     8d0:	20004597          	auipc	a1,0x20004
     8d4:	a0858593          	addi	a1,a1,-1528 # 200042d8 <_ebss>
     8d8:	00b57763          	bgeu	a0,a1,8e6 <handle_reset+0x52>
     8dc:	00052023          	sw	zero,0(a0)
     8e0:	0511                	addi	a0,a0,4
     8e2:	feb56de3          	bltu	a0,a1,8dc <handle_reset+0x48>
     8e6:	42fd                	li	t0,31
     8e8:	bc029073          	csrw	0xbc0,t0
     8ec:	428d                	li	t0,3
     8ee:	80429073          	csrw	0x804,t0
     8f2:	08800293          	li	t0,136
     8f6:	30029073          	csrw	mstatus,t0
     8fa:	fffff297          	auipc	t0,0xfffff
     8fe:	70a28293          	addi	t0,t0,1802 # 4 <_einit>
     902:	0032e293          	ori	t0,t0,3
     906:	30529073          	csrw	mtvec,t0
     90a:	e91ff0ef          	jal	ra,79a <SystemInit>
     90e:	00000297          	auipc	t0,0x0
     912:	dc628293          	addi	t0,t0,-570 # 6d4 <main>
     916:	34129073          	csrw	mepc,t0
     91a:	30200073          	mret

0000091e <FLASH_GetBank1Status>:
     91e:	40022737          	lui	a4,0x40022
     922:	475c                	lw	a5,12(a4)
     924:	4505                	li	a0,1
     926:	8b85                	andi	a5,a5,1
     928:	e791                	bnez	a5,934 <FLASH_GetBank1Status+0x16>
     92a:	4748                	lw	a0,12(a4)
     92c:	8941                	andi	a0,a0,16
     92e:	00153513          	seqz	a0,a0
     932:	050d                	addi	a0,a0,3
     934:	8082                	ret

00000936 <FLASH_WaitForLastOperation>:
     936:	83bff2ef          	jal	t0,170 <__riscv_save_0>
     93a:	842a                	mv	s0,a0
     93c:	4485                	li	s1,1
     93e:	37c5                	jal	91e <FLASH_GetBank1Status>
     940:	00951863          	bne	a0,s1,950 <FLASH_WaitForLastOperation+0x1a>
     944:	e019                	bnez	s0,94a <FLASH_WaitForLastOperation+0x14>
     946:	4515                	li	a0,5
     948:	a029                	j	952 <FLASH_WaitForLastOperation+0x1c>
     94a:	3fd1                	jal	91e <FLASH_GetBank1Status>
     94c:	147d                	addi	s0,s0,-1
     94e:	bfcd                	j	940 <FLASH_WaitForLastOperation+0xa>
     950:	d87d                	beqz	s0,946 <FLASH_WaitForLastOperation+0x10>
     952:	843ff06f          	j	194 <__riscv_restore_0>

00000956 <FLASH_ProgramWord>:
     956:	801ff2ef          	jal	t0,156 <__riscv_save_4>
     95a:	1141                	addi	sp,sp,-16
     95c:	892a                	mv	s2,a0
     95e:	6515                	lui	a0,0x5
     960:	84ae                	mv	s1,a1
     962:	c602                	sw	zero,12(sp)
     964:	4991                	li	s3,4
     966:	3fc1                	jal	936 <FLASH_WaitForLastOperation>
     968:	03351b63          	bne	a0,s3,99e <FLASH_ProgramWord+0x48>
     96c:	40022437          	lui	s0,0x40022
     970:	481c                	lw	a5,16(s0)
     972:	6515                	lui	a0,0x5
     974:	0017e793          	ori	a5,a5,1
     978:	c81c                	sw	a5,16(s0)
     97a:	01049793          	slli	a5,s1,0x10
     97e:	83c1                	srli	a5,a5,0x10
     980:	00f91023          	sh	a5,0(s2)
     984:	3f4d                	jal	936 <FLASH_WaitForLastOperation>
     986:	01351963          	bne	a0,s3,998 <FLASH_ProgramWord+0x42>
     98a:	0909                	addi	s2,s2,2
     98c:	c64a                	sw	s2,12(sp)
     98e:	47b2                	lw	a5,12(sp)
     990:	80c1                	srli	s1,s1,0x10
     992:	6515                	lui	a0,0x5
     994:	a386                	sh	s1,0(a5)
     996:	3745                	jal	936 <FLASH_WaitForLastOperation>
     998:	481c                	lw	a5,16(s0)
     99a:	9bf9                	andi	a5,a5,-2
     99c:	c81c                	sw	a5,16(s0)
     99e:	0141                	addi	sp,sp,16
     9a0:	feaff06f          	j	18a <__riscv_restore_4>

000009a4 <FLASH_Unlock_Fast>:
     9a4:	456706b7          	lui	a3,0x45670
     9a8:	400227b7          	lui	a5,0x40022
     9ac:	12368693          	addi	a3,a3,291 # 45670123 <_eusrstack+0x25660123>
     9b0:	cdef9737          	lui	a4,0xcdef9
     9b4:	c3d4                	sw	a3,4(a5)
     9b6:	9ab70713          	addi	a4,a4,-1621 # cdef89ab <_eusrstack+0xadee89ab>
     9ba:	c3d8                	sw	a4,4(a5)
     9bc:	d3d4                	sw	a3,36(a5)
     9be:	d3d8                	sw	a4,36(a5)
     9c0:	8082                	ret

000009c2 <FLASH_Lock_Fast>:
     9c2:	40022737          	lui	a4,0x40022
     9c6:	4b1c                	lw	a5,16(a4)
     9c8:	66a1                	lui	a3,0x8
     9ca:	8fd5                	or	a5,a5,a3
     9cc:	cb1c                	sw	a5,16(a4)
     9ce:	8082                	ret

000009d0 <FLASH_ErasePage_Fast>:
     9d0:	400227b7          	lui	a5,0x40022
     9d4:	4b98                	lw	a4,16(a5)
     9d6:	000206b7          	lui	a3,0x20
     9da:	f0057513          	andi	a0,a0,-256
     9de:	8f55                	or	a4,a4,a3
     9e0:	cb98                	sw	a4,16(a5)
     9e2:	cbc8                	sw	a0,20(a5)
     9e4:	4b98                	lw	a4,16(a5)
     9e6:	04076713          	ori	a4,a4,64
     9ea:	cb98                	sw	a4,16(a5)
     9ec:	47d8                	lw	a4,12(a5)
     9ee:	8b05                	andi	a4,a4,1
     9f0:	ff75                	bnez	a4,9ec <FLASH_ErasePage_Fast+0x1c>
     9f2:	4b98                	lw	a4,16(a5)
     9f4:	7681                	lui	a3,0xfffe0
     9f6:	16fd                	addi	a3,a3,-1
     9f8:	8f75                	and	a4,a4,a3
     9fa:	cb98                	sw	a4,16(a5)
     9fc:	8082                	ret

000009fe <GPIO_Init>:
     9fe:	459c                	lw	a5,8(a1)
     a00:	0107f713          	andi	a4,a5,16
     a04:	00f7f813          	andi	a6,a5,15
     a08:	c701                	beqz	a4,a10 <GPIO_Init+0x12>
     a0a:	41d8                	lw	a4,4(a1)
     a0c:	00e86833          	or	a6,a6,a4
     a10:	218e                	lhu	a1,0(a1)
     a12:	0ff5f713          	andi	a4,a1,255
     a16:	c339                	beqz	a4,a5c <GPIO_Init+0x5e>
     a18:	4118                	lw	a4,0(a0)
     a1a:	4681                	li	a3,0
     a1c:	4e85                	li	t4,1
     a1e:	4f3d                	li	t5,15
     a20:	02800f93          	li	t6,40
     a24:	04800293          	li	t0,72
     a28:	4e21                	li	t3,8
     a2a:	00de9633          	sll	a2,t4,a3
     a2e:	00c5f8b3          	and	a7,a1,a2
     a32:	03161163          	bne	a2,a7,a54 <GPIO_Init+0x56>
     a36:	00269893          	slli	a7,a3,0x2
     a3a:	011f1333          	sll	t1,t5,a7
     a3e:	fff34313          	not	t1,t1
     a42:	00e37733          	and	a4,t1,a4
     a46:	011818b3          	sll	a7,a6,a7
     a4a:	00e8e733          	or	a4,a7,a4
     a4e:	05f79f63          	bne	a5,t6,aac <GPIO_Init+0xae>
     a52:	c950                	sw	a2,20(a0)
     a54:	0685                	addi	a3,a3,1
     a56:	fdc69ae3          	bne	a3,t3,a2a <GPIO_Init+0x2c>
     a5a:	c118                	sw	a4,0(a0)
     a5c:	0ff00713          	li	a4,255
     a60:	04b77563          	bgeu	a4,a1,aaa <GPIO_Init+0xac>
     a64:	4154                	lw	a3,4(a0)
     a66:	4621                	li	a2,8
     a68:	4e85                	li	t4,1
     a6a:	4f3d                	li	t5,15
     a6c:	02800f93          	li	t6,40
     a70:	04800293          	li	t0,72
     a74:	4e41                	li	t3,16
     a76:	00ce98b3          	sll	a7,t4,a2
     a7a:	0115f733          	and	a4,a1,a7
     a7e:	02e89263          	bne	a7,a4,aa2 <GPIO_Init+0xa4>
     a82:	00261713          	slli	a4,a2,0x2
     a86:	1701                	addi	a4,a4,-32
     a88:	00ef1333          	sll	t1,t5,a4
     a8c:	fff34313          	not	t1,t1
     a90:	00d376b3          	and	a3,t1,a3
     a94:	00e81733          	sll	a4,a6,a4
     a98:	8ed9                	or	a3,a3,a4
     a9a:	01f79d63          	bne	a5,t6,ab4 <GPIO_Init+0xb6>
     a9e:	01152a23          	sw	a7,20(a0) # 5014 <tcp_receive+0x116>
     aa2:	0605                	addi	a2,a2,1
     aa4:	fdc619e3          	bne	a2,t3,a76 <GPIO_Init+0x78>
     aa8:	c154                	sw	a3,4(a0)
     aaa:	8082                	ret
     aac:	fa5794e3          	bne	a5,t0,a54 <GPIO_Init+0x56>
     ab0:	c910                	sw	a2,16(a0)
     ab2:	b74d                	j	a54 <GPIO_Init+0x56>
     ab4:	fe5797e3          	bne	a5,t0,aa2 <GPIO_Init+0xa4>
     ab8:	01152823          	sw	a7,16(a0)
     abc:	b7dd                	j	aa2 <GPIO_Init+0xa4>

00000abe <GPIO_SetBits>:
     abe:	c90c                	sw	a1,16(a0)
     ac0:	8082                	ret

00000ac2 <GPIO_ResetBits>:
     ac2:	c94c                	sw	a1,20(a0)
     ac4:	8082                	ret

00000ac6 <RCC_GetClocksFreq>:
     ac6:	40021737          	lui	a4,0x40021
     aca:	435c                	lw	a5,4(a4)
     acc:	4691                	li	a3,4
     ace:	8bb1                	andi	a5,a5,12
     ad0:	06d78563          	beq	a5,a3,b3a <RCC_GetClocksFreq+0x74>
     ad4:	46a1                	li	a3,8
     ad6:	06d78763          	beq	a5,a3,b44 <RCC_GetClocksFreq+0x7e>
     ada:	007a17b7          	lui	a5,0x7a1
     ade:	20078793          	addi	a5,a5,512 # 7a1200 <_data_lma+0x79838c>
     ae2:	c11c                	sw	a5,0(a0)
     ae4:	40021637          	lui	a2,0x40021
     ae8:	425c                	lw	a5,4(a2)
     aea:	20000737          	lui	a4,0x20000
     aee:	00070713          	mv	a4,a4
     af2:	8391                	srli	a5,a5,0x4
     af4:	8bbd                	andi	a5,a5,15
     af6:	97ba                	add	a5,a5,a4
     af8:	2394                	lbu	a3,0(a5)
     afa:	411c                	lw	a5,0(a0)
     afc:	00d7d7b3          	srl	a5,a5,a3
     b00:	c15c                	sw	a5,4(a0)
     b02:	4254                	lw	a3,4(a2)
     b04:	82a1                	srli	a3,a3,0x8
     b06:	8a9d                	andi	a3,a3,7
     b08:	96ba                	add	a3,a3,a4
     b0a:	2294                	lbu	a3,0(a3)
     b0c:	00d7d6b3          	srl	a3,a5,a3
     b10:	c514                	sw	a3,8(a0)
     b12:	4254                	lw	a3,4(a2)
     b14:	82ad                	srli	a3,a3,0xb
     b16:	8a9d                	andi	a3,a3,7
     b18:	9736                	add	a4,a4,a3
     b1a:	2318                	lbu	a4,0(a4)
     b1c:	00e7d7b3          	srl	a5,a5,a4
     b20:	c55c                	sw	a5,12(a0)
     b22:	4258                	lw	a4,4(a2)
     b24:	8339                	srli	a4,a4,0xe
     b26:	00377693          	andi	a3,a4,3
     b2a:	81818713          	addi	a4,gp,-2024 # 20000088 <ADCPrescTable>
     b2e:	9736                	add	a4,a4,a3
     b30:	2318                	lbu	a4,0(a4)
     b32:	02e7d7b3          	divu	a5,a5,a4
     b36:	c91c                	sw	a5,16(a0)
     b38:	8082                	ret
     b3a:	01e857b7          	lui	a5,0x1e85
     b3e:	80078793          	addi	a5,a5,-2048 # 1e84800 <_data_lma+0x1e7b98c>
     b42:	b745                	j	ae2 <RCC_GetClocksFreq+0x1c>
     b44:	435c                	lw	a5,4(a4)
     b46:	4358                	lw	a4,4(a4)
     b48:	66c1                	lui	a3,0x10
     b4a:	83c9                	srli	a5,a5,0x12
     b4c:	8bbd                	andi	a5,a5,15
     b4e:	8f75                	and	a4,a4,a3
     b50:	0789                	addi	a5,a5,2
     b52:	46c5                	li	a3,17
     b54:	00d79363          	bne	a5,a3,b5a <RCC_GetClocksFreq+0x94>
     b58:	47c9                	li	a5,18
     b5a:	ef01                	bnez	a4,b72 <RCC_GetClocksFreq+0xac>
     b5c:	40024737          	lui	a4,0x40024
     b60:	80072703          	lw	a4,-2048(a4) # 40023800 <_eusrstack+0x20013800>
     b64:	8b41                	andi	a4,a4,16
     b66:	cb15                	beqz	a4,b9a <RCC_GetClocksFreq+0xd4>
     b68:	007a1737          	lui	a4,0x7a1
     b6c:	20070713          	addi	a4,a4,512 # 7a1200 <_data_lma+0x79838c>
     b70:	a829                	j	b8a <RCC_GetClocksFreq+0xc4>
     b72:	400216b7          	lui	a3,0x40021
     b76:	42d8                	lw	a4,4(a3)
     b78:	00c00637          	lui	a2,0xc00
     b7c:	8f71                	and	a4,a4,a2
     b7e:	00c71963          	bne	a4,a2,b90 <RCC_GetClocksFreq+0xca>
     b82:	00f42737          	lui	a4,0xf42
     b86:	40070713          	addi	a4,a4,1024 # f42400 <_data_lma+0xf3958c>
     b8a:	02e787b3          	mul	a5,a5,a4
     b8e:	bf91                	j	ae2 <RCC_GetClocksFreq+0x1c>
     b90:	42d8                	lw	a4,4(a3)
     b92:	00e71693          	slli	a3,a4,0xe
     b96:	fc06d9e3          	bgez	a3,b68 <RCC_GetClocksFreq+0xa2>
     b9a:	003d1737          	lui	a4,0x3d1
     b9e:	90070713          	addi	a4,a4,-1792 # 3d0900 <_data_lma+0x3c7a8c>
     ba2:	b7e5                	j	b8a <RCC_GetClocksFreq+0xc4>

00000ba4 <RCC_APB2PeriphClockCmd>:
     ba4:	c599                	beqz	a1,bb2 <RCC_APB2PeriphClockCmd+0xe>
     ba6:	40021737          	lui	a4,0x40021
     baa:	4f1c                	lw	a5,24(a4)
     bac:	8d5d                	or	a0,a0,a5
     bae:	cf08                	sw	a0,24(a4)
     bb0:	8082                	ret
     bb2:	400217b7          	lui	a5,0x40021
     bb6:	4f98                	lw	a4,24(a5)
     bb8:	fff54513          	not	a0,a0
     bbc:	8d79                	and	a0,a0,a4
     bbe:	cf88                	sw	a0,24(a5)
     bc0:	8082                	ret

00000bc2 <RCC_APB1PeriphClockCmd>:
     bc2:	c599                	beqz	a1,bd0 <RCC_APB1PeriphClockCmd+0xe>
     bc4:	40021737          	lui	a4,0x40021
     bc8:	4f5c                	lw	a5,28(a4)
     bca:	8d5d                	or	a0,a0,a5
     bcc:	cf48                	sw	a0,28(a4)
     bce:	8082                	ret
     bd0:	400217b7          	lui	a5,0x40021
     bd4:	4fd8                	lw	a4,28(a5)
     bd6:	fff54513          	not	a0,a0
     bda:	8d79                	and	a0,a0,a4
     bdc:	cfc8                	sw	a0,28(a5)
     bde:	8082                	ret

00000be0 <RCC_ETHDIVConfig>:
     be0:	400217b7          	lui	a5,0x40021
     be4:	43d8                	lw	a4,4(a5)
     be6:	f00006b7          	lui	a3,0xf0000
     bea:	16fd                	addi	a3,a3,-1
     bec:	8f75                	and	a4,a4,a3
     bee:	c3d8                	sw	a4,4(a5)
     bf0:	43d8                	lw	a4,4(a5)
     bf2:	0572                	slli	a0,a0,0x1c
     bf4:	8d59                	or	a0,a0,a4
     bf6:	c3c8                	sw	a0,4(a5)
     bf8:	8082                	ret

00000bfa <TIM_TimeBaseInit>:
     bfa:	211e                	lhu	a5,0(a0)
     bfc:	40013737          	lui	a4,0x40013
     c00:	c0070713          	addi	a4,a4,-1024 # 40012c00 <_eusrstack+0x20002c00>
     c04:	07c2                	slli	a5,a5,0x10
     c06:	83c1                	srli	a5,a5,0x10
     c08:	02e50463          	beq	a0,a4,c30 <TIM_TimeBaseInit+0x36>
     c0c:	40000737          	lui	a4,0x40000
     c10:	02e50063          	beq	a0,a4,c30 <TIM_TimeBaseInit+0x36>
     c14:	40070713          	addi	a4,a4,1024 # 40000400 <_eusrstack+0x1fff0400>
     c18:	00e50c63          	beq	a0,a4,c30 <TIM_TimeBaseInit+0x36>
     c1c:	40001737          	lui	a4,0x40001
     c20:	80070693          	addi	a3,a4,-2048 # 40000800 <_eusrstack+0x1fff0800>
     c24:	00d50663          	beq	a0,a3,c30 <TIM_TimeBaseInit+0x36>
     c28:	c0070713          	addi	a4,a4,-1024
     c2c:	00e51663          	bne	a0,a4,c38 <TIM_TimeBaseInit+0x3e>
     c30:	21ba                	lhu	a4,2(a1)
     c32:	f8f7f793          	andi	a5,a5,-113
     c36:	8fd9                	or	a5,a5,a4
     c38:	21fa                	lhu	a4,6(a1)
     c3a:	cff7f793          	andi	a5,a5,-769
     c3e:	07c2                	slli	a5,a5,0x10
     c40:	83c1                	srli	a5,a5,0x10
     c42:	8fd9                	or	a5,a5,a4
     c44:	a11e                	sh	a5,0(a0)
     c46:	21de                	lhu	a5,4(a1)
     c48:	b55e                	sh	a5,44(a0)
     c4a:	219e                	lhu	a5,0(a1)
     c4c:	b51e                	sh	a5,40(a0)
     c4e:	400137b7          	lui	a5,0x40013
     c52:	c0078793          	addi	a5,a5,-1024 # 40012c00 <_eusrstack+0x20002c00>
     c56:	00f51463          	bne	a0,a5,c5e <TIM_TimeBaseInit+0x64>
     c5a:	259c                	lbu	a5,8(a1)
     c5c:	b91e                	sh	a5,48(a0)
     c5e:	4785                	li	a5,1
     c60:	a95e                	sh	a5,20(a0)
     c62:	8082                	ret

00000c64 <TIM_Cmd>:
     c64:	211e                	lhu	a5,0(a0)
     c66:	c589                	beqz	a1,c70 <TIM_Cmd+0xc>
     c68:	0017e793          	ori	a5,a5,1
     c6c:	a11e                	sh	a5,0(a0)
     c6e:	8082                	ret
     c70:	07c2                	slli	a5,a5,0x10
     c72:	83c1                	srli	a5,a5,0x10
     c74:	9bf9                	andi	a5,a5,-2
     c76:	07c2                	slli	a5,a5,0x10
     c78:	83c1                	srli	a5,a5,0x10
     c7a:	bfcd                	j	c6c <TIM_Cmd+0x8>

00000c7c <TIM_ITConfig>:
     c7c:	255e                	lhu	a5,12(a0)
     c7e:	c601                	beqz	a2,c86 <TIM_ITConfig+0xa>
     c80:	8ddd                	or	a1,a1,a5
     c82:	a54e                	sh	a1,12(a0)
     c84:	8082                	ret
     c86:	fff5c593          	not	a1,a1
     c8a:	8dfd                	and	a1,a1,a5
     c8c:	bfdd                	j	c82 <TIM_ITConfig+0x6>

00000c8e <TIM_ClearITPendingBit>:
     c8e:	fff5c593          	not	a1,a1
     c92:	05c2                	slli	a1,a1,0x10
     c94:	81c1                	srli	a1,a1,0x10
     c96:	a90e                	sh	a1,16(a0)
     c98:	8082                	ret

00000c9a <USART_Init>:
     c9a:	cd6ff2ef          	jal	t0,170 <__riscv_save_0>
     c9e:	2916                	lhu	a3,16(a0)
     ca0:	77f5                	lui	a5,0xffffd
     ca2:	17fd                	addi	a5,a5,-1
     ca4:	8ff5                	and	a5,a5,a3
     ca6:	21f6                	lhu	a3,6(a1)
     ca8:	25da                	lhu	a4,12(a1)
     caa:	7179                	addi	sp,sp,-48
     cac:	8fd5                	or	a5,a5,a3
     cae:	a91e                	sh	a5,16(a0)
     cb0:	2556                	lhu	a3,12(a0)
     cb2:	77fd                	lui	a5,0xfffff
     cb4:	9f378793          	addi	a5,a5,-1549 # ffffe9f3 <_eusrstack+0xdffee9f3>
     cb8:	8ff5                	and	a5,a5,a3
     cba:	21d6                	lhu	a3,4(a1)
     cbc:	842a                	mv	s0,a0
     cbe:	c62e                	sw	a1,12(sp)
     cc0:	8fd5                	or	a5,a5,a3
     cc2:	2596                	lhu	a3,8(a1)
     cc4:	8fd5                	or	a5,a5,a3
     cc6:	25b6                	lhu	a3,10(a1)
     cc8:	8fd5                	or	a5,a5,a3
     cca:	a55e                	sh	a5,12(a0)
     ccc:	295e                	lhu	a5,20(a0)
     cce:	07c2                	slli	a5,a5,0x10
     cd0:	83c1                	srli	a5,a5,0x10
     cd2:	cff7f793          	andi	a5,a5,-769
     cd6:	8fd9                	or	a5,a5,a4
     cd8:	a95e                	sh	a5,20(a0)
     cda:	0868                	addi	a0,sp,28
     cdc:	33ed                	jal	ac6 <RCC_GetClocksFreq>
     cde:	400147b7          	lui	a5,0x40014
     ce2:	80078793          	addi	a5,a5,-2048 # 40013800 <_eusrstack+0x20003800>
     ce6:	45b2                	lw	a1,12(sp)
     ce8:	02f41e63          	bne	s0,a5,d24 <USART_Init+0x8a>
     cec:	57a2                	lw	a5,40(sp)
     cee:	4765                	li	a4,25
     cf0:	02e787b3          	mul	a5,a5,a4
     cf4:	4198                	lw	a4,0(a1)
     cf6:	06400693          	li	a3,100
     cfa:	070a                	slli	a4,a4,0x2
     cfc:	02e7d7b3          	divu	a5,a5,a4
     d00:	02d7d733          	divu	a4,a5,a3
     d04:	02d7f7b3          	remu	a5,a5,a3
     d08:	0712                	slli	a4,a4,0x4
     d0a:	0792                	slli	a5,a5,0x4
     d0c:	03278793          	addi	a5,a5,50
     d10:	02d7d7b3          	divu	a5,a5,a3
     d14:	8bbd                	andi	a5,a5,15
     d16:	8fd9                	or	a5,a5,a4
     d18:	07c2                	slli	a5,a5,0x10
     d1a:	83c1                	srli	a5,a5,0x10
     d1c:	a41e                	sh	a5,8(s0)
     d1e:	6145                	addi	sp,sp,48
     d20:	c74ff06f          	j	194 <__riscv_restore_0>
     d24:	5792                	lw	a5,36(sp)
     d26:	b7e1                	j	cee <USART_Init+0x54>

00000d28 <USART_Cmd>:
     d28:	c591                	beqz	a1,d34 <USART_Cmd+0xc>
     d2a:	255e                	lhu	a5,12(a0)
     d2c:	6709                	lui	a4,0x2
     d2e:	8fd9                	or	a5,a5,a4
     d30:	a55e                	sh	a5,12(a0)
     d32:	8082                	ret
     d34:	255a                	lhu	a4,12(a0)
     d36:	77f9                	lui	a5,0xffffe
     d38:	17fd                	addi	a5,a5,-1
     d3a:	8ff9                	and	a5,a5,a4
     d3c:	bfd5                	j	d30 <USART_Cmd+0x8>

00000d3e <USART_SendData>:
     d3e:	1ff5f593          	andi	a1,a1,511
     d42:	a14e                	sh	a1,4(a0)
     d44:	8082                	ret

00000d46 <USART_ReceiveData>:
     d46:	214a                	lhu	a0,4(a0)
     d48:	1ff57513          	andi	a0,a0,511
     d4c:	8082                	ret

00000d4e <USART_GetFlagStatus>:
     d4e:	210a                	lhu	a0,0(a0)
     d50:	8d6d                	and	a0,a0,a1
     d52:	00a03533          	snez	a0,a0
     d56:	8082                	ret

00000d58 <ETH_TxPktChainMode>:
     d58:	88418793          	addi	a5,gp,-1916 # 200000f4 <DMATxDescToSet>
     d5c:	4398                	lw	a4,0(a5)
     d5e:	4314                	lw	a3,0(a4)
     d60:	0206c663          	bltz	a3,d8c <ETH_TxPktChainMode+0x34>
     d64:	4314                	lw	a3,0(a4)
     d66:	80000637          	lui	a2,0x80000
     d6a:	05c2                	slli	a1,a1,0x10
     d6c:	8ed1                	or	a3,a3,a2
     d6e:	c314                	sw	a3,0(a4)
     d70:	40028737          	lui	a4,0x40028
     d74:	a72a                	sh	a0,10(a4)
     d76:	81c1                	srli	a1,a1,0x10
     d78:	a70e                	sh	a1,8(a4)
     d7a:	3374                	lbu	a3,7(a4)
     d7c:	4505                	li	a0,1
     d7e:	0086e693          	ori	a3,a3,8
     d82:	b374                	sb	a3,7(a4)
     d84:	4398                	lw	a4,0(a5)
     d86:	4758                	lw	a4,12(a4)
     d88:	c398                	sw	a4,0(a5)
     d8a:	8082                	ret
     d8c:	4501                	li	a0,0
     d8e:	8082                	ret

00000d90 <ETH_LedDataSet>:
     d90:	be0ff2ef          	jal	t0,170 <__riscv_save_0>
     d94:	4785                	li	a5,1
     d96:	4589                	li	a1,2
     d98:	00f51763          	bne	a0,a5,da6 <ETH_LedDataSet+0x16>
     d9c:	40011537          	lui	a0,0x40011
     da0:	3b39                	jal	abe <GPIO_SetBits>
     da2:	bf2ff06f          	j	194 <__riscv_restore_0>
     da6:	40011537          	lui	a0,0x40011
     daa:	3b21                	jal	ac2 <GPIO_ResetBits>
     dac:	bfdd                	j	da2 <ETH_LedDataSet+0x12>

00000dae <ETH_LedLinkSet>:
     dae:	bc2ff2ef          	jal	t0,170 <__riscv_save_0>
     db2:	4785                	li	a5,1
     db4:	4585                	li	a1,1
     db6:	00f51763          	bne	a0,a5,dc4 <ETH_LedLinkSet+0x16>
     dba:	40011537          	lui	a0,0x40011
     dbe:	3301                	jal	abe <GPIO_SetBits>
     dc0:	bd4ff06f          	j	194 <__riscv_restore_0>
     dc4:	40011537          	lui	a0,0x40011
     dc8:	39ed                	jal	ac2 <GPIO_ResetBits>
     dca:	bfdd                	j	dc0 <ETH_LedLinkSet+0x12>

00000dcc <WCHNET_GetMacAddr>:
     dcc:	1ffff737          	lui	a4,0x1ffff
     dd0:	4781                	li	a5,0
     dd2:	7ed70713          	addi	a4,a4,2029 # 1ffff7ed <_data_lma+0x1fff6979>
     dd6:	4699                	li	a3,6
     dd8:	40f70633          	sub	a2,a4,a5
     ddc:	220c                	lbu	a1,0(a2)
     dde:	00f50633          	add	a2,a0,a5
     de2:	0785                	addi	a5,a5,1
     de4:	a20c                	sb	a1,0(a2)
     de6:	fed799e3          	bne	a5,a3,dd8 <WCHNET_GetMacAddr+0xc>
     dea:	8082                	ret

00000dec <WCHNET_TimeIsr>:
     dec:	88818793          	addi	a5,gp,-1912 # 200000f8 <LocalTime>
     df0:	4398                	lw	a4,0(a5)
     df2:	953a                	add	a0,a0,a4
     df4:	c388                	sw	a0,0(a5)
     df6:	8082                	ret

00000df8 <WCHNET_LinkProcess>:
     df8:	b78ff2ef          	jal	t0,170 <__riscv_save_0>
     dfc:	40028437          	lui	s0,0x40028
     e00:	4795                	li	a5,5
     e02:	02f40223          	sb	a5,36(s0) # 40028024 <_eusrstack+0x20018024>
     e06:	4785                	li	a5,1
     e08:	3016                	lhu	a3,32(s0)
     e0a:	02f40223          	sb	a5,36(s0)
     e0e:	301a                	lhu	a4,32(s0)
     e10:	8afd                	andi	a3,a3,31
     e12:	0742                	slli	a4,a4,0x10
     e14:	8341                	srli	a4,a4,0x10
     e16:	89618793          	addi	a5,gp,-1898 # 20000106 <phyLinkStatus>
     e1a:	cedd                	beqz	a3,ed8 <WCHNET_LinkProcess+0xe0>
     e1c:	2394                	lbu	a3,0(a5)
     e1e:	01869613          	slli	a2,a3,0x18
     e22:	8661                	srai	a2,a2,0x18
     e24:	04064a63          	bltz	a2,e78 <WCHNET_LinkProcess+0x80>
     e28:	81c18713          	addi	a4,gp,-2020 # 2000008c <phyPN>
     e2c:	2310                	lbu	a2,0(a4)
     e2e:	00c67593          	andi	a1,a2,12
     e32:	e991                	bnez	a1,e46 <WCHNET_LinkProcess+0x4e>
     e34:	88018fa3          	sb	zero,-1889(gp) # 2000010f <phySucCnt>
     e38:	88018a23          	sb	zero,-1900(gp) # 20000104 <phyLinkCnt>
     e3c:	f8000713          	li	a4,-128
     e40:	a398                	sb	a4,0(a5)
     e42:	b52ff06f          	j	194 <__riscv_restore_0>
     e46:	0026f593          	andi	a1,a3,2
     e4a:	f5ed                	bnez	a1,e34 <WCHNET_LinkProcess+0x3c>
     e4c:	0026e693          	ori	a3,a3,2
     e50:	9a6d                	andi	a2,a2,-5
     e52:	a310                	sb	a2,0(a4)
     e54:	88018ea3          	sb	zero,-1891(gp) # 2000010d <phyRetryCnt>
     e58:	a394                	sb	a3,0(a5)
     e5a:	02040223          	sb	zero,36(s0)
     e5e:	301e                	lhu	a5,32(s0)
     e60:	2007e793          	ori	a5,a5,512
     e64:	07c2                	slli	a5,a5,0x10
     e66:	1007e793          	ori	a5,a5,256
     e6a:	d05c                	sw	a5,36(s0)
     e6c:	231c                	lbu	a5,0(a4)
     e6e:	07c2                	slli	a5,a5,0x10
     e70:	11e7e793          	ori	a5,a5,286
     e74:	d05c                	sw	a5,36(s0)
     e76:	b7f1                	j	e42 <WCHNET_LinkProcess+0x4a>
     e78:	89f18693          	addi	a3,gp,-1889 # 2000010f <phySucCnt>
     e7c:	2290                	lbu	a2,0(a3)
     e7e:	00160593          	addi	a1,a2,1 # 80000001 <_eusrstack+0x5fff0001>
     e82:	a28c                	sb	a1,0(a3)
     e84:	4595                	li	a1,5
     e86:	fab61ee3          	bne	a2,a1,e42 <WCHNET_LinkProcess+0x4a>
     e8a:	02077713          	andi	a4,a4,32
     e8e:	fb55                	bnez	a4,e42 <WCHNET_LinkProcess+0x4a>
     e90:	88018ea3          	sb	zero,-1891(gp) # 2000010d <phyRetryCnt>
     e94:	00068023          	sb	zero,0(a3) # f0000000 <_eusrstack+0xcfff0000>
     e98:	88018e23          	sb	zero,-1892(gp) # 2000010c <phyPNChangeCnt>
     e9c:	00078023          	sb	zero,0(a5) # ffffe000 <_eusrstack+0xdffee000>
     ea0:	02040223          	sb	zero,36(s0)
     ea4:	301e                	lhu	a5,32(s0)
     ea6:	2007e793          	ori	a5,a5,512
     eaa:	07c2                	slli	a5,a5,0x10
     eac:	1007e793          	ori	a5,a5,256
     eb0:	d05c                	sw	a5,36(s0)
     eb2:	81c1c683          	lbu	a3,-2020(gp) # 2000008c <phyPN>
     eb6:	81c18713          	addi	a4,gp,-2020 # 2000008c <phyPN>
     eba:	00c6f613          	andi	a2,a3,12
     ebe:	0fb6f793          	andi	a5,a3,251
     ec2:	e219                	bnez	a2,ec8 <WCHNET_LinkProcess+0xd0>
     ec4:	0046e793          	ori	a5,a3,4
     ec8:	a31c                	sb	a5,0(a4)
     eca:	07c2                	slli	a5,a5,0x10
     ecc:	11e7e793          	ori	a5,a5,286
     ed0:	40028737          	lui	a4,0x40028
     ed4:	d35c                	sw	a5,36(a4)
     ed6:	b7b5                	j	e42 <WCHNET_LinkProcess+0x4a>
     ed8:	02077713          	andi	a4,a4,32
     edc:	ff21                	bnez	a4,e34 <WCHNET_LinkProcess+0x3c>
     ede:	2398                	lbu	a4,0(a5)
     ee0:	08000693          	li	a3,128
     ee4:	02d71463          	bne	a4,a3,f0c <WCHNET_LinkProcess+0x114>
     ee8:	89418713          	addi	a4,gp,-1900 # 20000104 <phyLinkCnt>
     eec:	2314                	lbu	a3,0(a4)
     eee:	4629                	li	a2,10
     ef0:	00c68563          	beq	a3,a2,efa <WCHNET_LinkProcess+0x102>
     ef4:	0685                	addi	a3,a3,1
     ef6:	a314                	sb	a3,0(a4)
     ef8:	b7a9                	j	e42 <WCHNET_LinkProcess+0x4a>
     efa:	00070023          	sb	zero,0(a4) # 40028000 <_eusrstack+0x20018000>
     efe:	88018ea3          	sb	zero,-1891(gp) # 2000010d <phyRetryCnt>
     f02:	88018e23          	sb	zero,-1892(gp) # 2000010c <phyPNChangeCnt>
     f06:	00078023          	sb	zero,0(a5)
     f0a:	bf25                	j	e42 <WCHNET_LinkProcess+0x4a>
     f0c:	ef05                	bnez	a4,f44 <WCHNET_LinkProcess+0x14c>
     f0e:	89c18793          	addi	a5,gp,-1892 # 2000010c <phyPNChangeCnt>
     f12:	2394                	lbu	a3,0(a5)
     f14:	4629                	li	a2,10
     f16:	00168713          	addi	a4,a3,1
     f1a:	a398                	sb	a4,0(a5)
     f1c:	81c18713          	addi	a4,gp,-2020 # 2000008c <phyPN>
     f20:	00c69e63          	bne	a3,a2,f3c <WCHNET_LinkProcess+0x144>
     f24:	00078023          	sb	zero,0(a5)
     f28:	47f9                	li	a5,30
     f2a:	02f40223          	sb	a5,36(s0)
     f2e:	301e                	lhu	a5,32(s0)
     f30:	0f37f793          	andi	a5,a5,243
     f34:	0037c793          	xori	a5,a5,3
     f38:	a31c                	sb	a5,0(a4)
     f3a:	bf15                	j	e6e <WCHNET_LinkProcess+0x76>
     f3c:	2314                	lbu	a3,0(a4)
     f3e:	00c6f613          	andi	a2,a3,12
     f42:	bfb5                	j	ebe <WCHNET_LinkProcess+0xc6>
     f44:	4689                	li	a3,2
     f46:	eed71ee3          	bne	a4,a3,e42 <WCHNET_LinkProcess+0x4a>
     f4a:	81c18493          	addi	s1,gp,-2020 # 2000008c <phyPN>
     f4e:	2098                	lbu	a4,0(s1)
     f50:	00c77693          	andi	a3,a4,12
     f54:	e28d                	bnez	a3,f76 <WCHNET_LinkProcess+0x17e>
     f56:	00476713          	ori	a4,a4,4
     f5a:	a098                	sb	a4,0(s1)
     f5c:	02040223          	sb	zero,36(s0)
     f60:	301e                	lhu	a5,32(s0)
     f62:	4529                	li	a0,10
     f64:	2007e793          	ori	a5,a5,512
     f68:	07c2                	slli	a5,a5,0x10
     f6a:	1007e793          	ori	a5,a5,256
     f6e:	d05c                	sw	a5,36(s0)
     f70:	2b21                	jal	1488 <Delay_Us>
     f72:	209c                	lbu	a5,0(s1)
     f74:	bded                	j	e6e <WCHNET_LinkProcess+0x76>
     f76:	89d18713          	addi	a4,gp,-1891 # 2000010d <phyRetryCnt>
     f7a:	2314                	lbu	a3,0(a4)
     f7c:	463d                	li	a2,15
     f7e:	f6c69be3          	bne	a3,a2,ef4 <WCHNET_LinkProcess+0xfc>
     f82:	00070023          	sb	zero,0(a4)
     f86:	bfb5                	j	f02 <WCHNET_LinkProcess+0x10a>

00000f88 <WCHNET_PhyPNProcess>:
     f88:	8881a703          	lw	a4,-1912(gp) # 200000f8 <LocalTime>
     f8c:	88e1ac23          	sw	a4,-1896(gp) # 20000108 <phyLinkTime>
     f90:	87e1c603          	lbu	a2,-1922(gp) # 200000ee <CRCErrPktCnt>
     f94:	4709                	li	a4,2
     f96:	87e18693          	addi	a3,gp,-1922 # 200000ee <CRCErrPktCnt>
     f9a:	02c77a63          	bgeu	a4,a2,fce <WCHNET_PhyPNProcess+0x46>
     f9e:	400287b7          	lui	a5,0x40028
     fa2:	4779                	li	a4,30
     fa4:	02e78223          	sb	a4,36(a5) # 40028024 <_eusrstack+0x20018024>
     fa8:	339a                	lhu	a4,32(a5)
     faa:	0742                	slli	a4,a4,0x10
     fac:	8341                	srli	a4,a4,0x10
     fae:	00275613          	srli	a2,a4,0x2
     fb2:	8a05                	andi	a2,a2,1
     fb4:	00476793          	ori	a5,a4,4
     fb8:	c219                	beqz	a2,fbe <WCHNET_PhyPNProcess+0x36>
     fba:	ff377793          	andi	a5,a4,-13
     fbe:	07c2                	slli	a5,a5,0x10
     fc0:	11e7e793          	ori	a5,a5,286
     fc4:	40028737          	lui	a4,0x40028
     fc8:	d35c                	sw	a5,36(a4)
     fca:	00068023          	sb	zero,0(a3)
     fce:	8082                	ret

00000fd0 <WCHNET_HandlePhyNegotiation>:
     fd0:	89518793          	addi	a5,gp,-1899 # 20000105 <phyLinkReset>
     fd4:	2398                	lbu	a4,0(a5)
     fd6:	0ff77713          	andi	a4,a4,255
     fda:	cb21                	beqz	a4,102a <WCHNET_HandlePhyNegotiation+0x5a>
     fdc:	8881a703          	lw	a4,-1912(gp) # 200000f8 <LocalTime>
     fe0:	8981a683          	lw	a3,-1896(gp) # 20000108 <phyLinkTime>
     fe4:	8f15                	sub	a4,a4,a3
     fe6:	1f300693          	li	a3,499
     fea:	08e6f363          	bgeu	a3,a4,1070 <WCHNET_HandlePhyNegotiation+0xa0>
     fee:	00078023          	sb	zero,0(a5)
     ff2:	40024737          	lui	a4,0x40024
     ff6:	80072783          	lw	a5,-2048(a4) # 40023800 <_eusrstack+0x20013800>
     ffa:	0047e793          	ori	a5,a5,4
     ffe:	80f72023          	sw	a5,-2048(a4)
    1002:	800007b7          	lui	a5,0x80000
    1006:	10078793          	addi	a5,a5,256 # 80000100 <_eusrstack+0x5fff0100>
    100a:	40028737          	lui	a4,0x40028
    100e:	d35c                	sw	a5,36(a4)
    1010:	88018fa3          	sb	zero,-1889(gp) # 2000010f <phySucCnt>
    1014:	88018f23          	sb	zero,-1890(gp) # 2000010e <phyStatus>
    1018:	88018a23          	sb	zero,-1900(gp) # 20000104 <phyLinkCnt>
    101c:	88018ea3          	sb	zero,-1891(gp) # 2000010d <phyRetryCnt>
    1020:	88018e23          	sb	zero,-1892(gp) # 2000010c <phyPNChangeCnt>
    1024:	88018b23          	sb	zero,-1898(gp) # 20000106 <phyLinkStatus>
    1028:	8082                	ret
    102a:	946ff2ef          	jal	t0,170 <__riscv_save_0>
    102e:	89e1c783          	lbu	a5,-1890(gp) # 2000010e <phyStatus>
    1032:	e38d                	bnez	a5,1054 <WCHNET_HandlePhyNegotiation+0x84>
    1034:	88818713          	addi	a4,gp,-1912 # 200000f8 <LocalTime>
    1038:	89818793          	addi	a5,gp,-1896 # 20000108 <phyLinkTime>
    103c:	4314                	lw	a3,0(a4)
    103e:	4390                	lw	a2,0(a5)
    1040:	8e91                	sub	a3,a3,a2
    1042:	03100613          	li	a2,49
    1046:	00d67563          	bgeu	a2,a3,1050 <WCHNET_HandlePhyNegotiation+0x80>
    104a:	4318                	lw	a4,0(a4)
    104c:	c398                	sw	a4,0(a5)
    104e:	336d                	jal	df8 <WCHNET_LinkProcess>
    1050:	944ff06f          	j	194 <__riscv_restore_0>
    1054:	88c1c783          	lbu	a5,-1908(gp) # 200000fc <PhyPolarityDetect>
    1058:	dfe5                	beqz	a5,1050 <WCHNET_HandlePhyNegotiation+0x80>
    105a:	8881a783          	lw	a5,-1912(gp) # 200000f8 <LocalTime>
    105e:	8981a703          	lw	a4,-1896(gp) # 20000108 <phyLinkTime>
    1062:	8f99                	sub	a5,a5,a4
    1064:	06300713          	li	a4,99
    1068:	fef774e3          	bgeu	a4,a5,1050 <WCHNET_HandlePhyNegotiation+0x80>
    106c:	3f31                	jal	f88 <WCHNET_PhyPNProcess>
    106e:	b7cd                	j	1050 <WCHNET_HandlePhyNegotiation+0x80>
    1070:	8082                	ret

00001072 <WCHNET_MainTask>:
    1072:	8feff2ef          	jal	t0,170 <__riscv_save_0>
    1076:	6b0000ef          	jal	ra,1726 <WCHNET_NetInput>
    107a:	29d5                	jal	156e <WCHNET_PeriodicHandle>
    107c:	3f91                	jal	fd0 <WCHNET_HandlePhyNegotiation>
    107e:	916ff06f          	j	194 <__riscv_restore_0>

00001082 <ETH_LedConfiguration>:
    1082:	8eeff2ef          	jal	t0,170 <__riscv_save_0>
    1086:	1141                	addi	sp,sp,-16
    1088:	4585                	li	a1,1
    108a:	4541                	li	a0,16
    108c:	c202                	sw	zero,4(sp)
    108e:	c402                	sw	zero,8(sp)
    1090:	c602                	sw	zero,12(sp)
    1092:	b13ff0ef          	jal	ra,ba4 <RCC_APB2PeriphClockCmd>
    1096:	478d                	li	a5,3
    1098:	827c                	sh	a5,4(sp)
    109a:	47c1                	li	a5,16
    109c:	c63e                	sw	a5,12(sp)
    109e:	004c                	addi	a1,sp,4
    10a0:	478d                	li	a5,3
    10a2:	40011537          	lui	a0,0x40011
    10a6:	c43e                	sw	a5,8(sp)
    10a8:	957ff0ef          	jal	ra,9fe <GPIO_Init>
    10ac:	4589                	li	a1,2
    10ae:	40011537          	lui	a0,0x40011
    10b2:	a0dff0ef          	jal	ra,abe <GPIO_SetBits>
    10b6:	4585                	li	a1,1
    10b8:	40011537          	lui	a0,0x40011
    10bc:	a03ff0ef          	jal	ra,abe <GPIO_SetBits>
    10c0:	0141                	addi	sp,sp,16
    10c2:	8d2ff06f          	j	194 <__riscv_restore_0>

000010c6 <ETH_DMARxDescChainInit>:
    10c6:	88a1a023          	sw	a0,-1920(gp) # 200000f0 <DMARxDescToGet>
    10ca:	800008b7          	lui	a7,0x80000
    10ce:	4781                	li	a5,0
    10d0:	60000313          	li	t1,1536
    10d4:	fff60e13          	addi	t3,a2,-1
    10d8:	00c7e363          	bltu	a5,a2,10de <ETH_DMARxDescChainInit+0x18>
    10dc:	8082                	ret
    10de:	02678833          	mul	a6,a5,t1
    10e2:	00479713          	slli	a4,a5,0x4
    10e6:	00e506b3          	add	a3,a0,a4
    10ea:	0116a023          	sw	a7,0(a3)
    10ee:	982e                	add	a6,a6,a1
    10f0:	0106a423          	sw	a6,8(a3)
    10f4:	882a                	mv	a6,a0
    10f6:	01c7f563          	bgeu	a5,t3,1100 <ETH_DMARxDescChainInit+0x3a>
    10fa:	0741                	addi	a4,a4,16
    10fc:	00e50833          	add	a6,a0,a4
    1100:	0785                	addi	a5,a5,1
    1102:	0106a623          	sw	a6,12(a3)
    1106:	0ff7f793          	andi	a5,a5,255
    110a:	b7f9                	j	10d8 <ETH_DMARxDescChainInit+0x12>

0000110c <ETH_Start>:
    110c:	8801a783          	lw	a5,-1920(gp) # 200000f0 <DMARxDescToGet>
    1110:	279a                	lhu	a4,8(a5)
    1112:	400287b7          	lui	a5,0x40028
    1116:	a7da                	sh	a4,12(a5)
    1118:	33f8                	lbu	a4,7(a5)
    111a:	00476713          	ori	a4,a4,4
    111e:	b3f8                	sb	a4,7(a5)
    1120:	8082                	ret

00001122 <ETH_SetClock>:
    1122:	84eff2ef          	jal	t0,170 <__riscv_save_0>
    1126:	4505                	li	a0,1
    1128:	ab9ff0ef          	jal	ra,be0 <RCC_ETHDIVConfig>
    112c:	868ff06f          	j	194 <__riscv_restore_0>

00001130 <ETH_Configuration>:
    1130:	840ff2ef          	jal	t0,170 <__riscv_save_0>
    1134:	1141                	addi	sp,sp,-16
    1136:	c62a                	sw	a0,12(sp)
    1138:	37ed                	jal	1122 <ETH_SetClock>
    113a:	400287b7          	lui	a5,0x40028
    113e:	000781a3          	sb	zero,3(a5) # 40028003 <_eusrstack+0x20018003>
    1142:	33b8                	lbu	a4,3(a5)
    1144:	0db76713          	ori	a4,a4,219
    1148:	b3b8                	sb	a4,3(a5)
    114a:	33b8                	lbu	a4,3(a5)
    114c:	00476713          	ori	a4,a4,4
    1150:	b3b8                	sb	a4,3(a5)
    1152:	577d                	li	a4,-1
    1154:	a3d8                	sb	a4,4(a5)
    1156:	33d8                	lbu	a4,5(a5)
    1158:	0c076713          	ori	a4,a4,192
    115c:	b3d8                	sb	a4,5(a5)
    115e:	33f8                	lbu	a4,7(a5)
    1160:	0c076713          	ori	a4,a4,192
    1164:	b3f8                	sb	a4,7(a5)
    1166:	33f8                	lbu	a4,7(a5)
    1168:	03f77713          	andi	a4,a4,63
    116c:	b3f8                	sb	a4,7(a5)
    116e:	00078c23          	sb	zero,24(a5)
    1172:	4532                	lw	a0,12(sp)
    1174:	3158                	lbu	a4,5(a0)
    1176:	02e78423          	sb	a4,40(a5)
    117a:	2158                	lbu	a4,4(a0)
    117c:	02e784a3          	sb	a4,41(a5)
    1180:	3138                	lbu	a4,3(a0)
    1182:	02e78523          	sb	a4,42(a5)
    1186:	2138                	lbu	a4,2(a0)
    1188:	02e785a3          	sb	a4,43(a5)
    118c:	3118                	lbu	a4,1(a0)
    118e:	02e78623          	sb	a4,44(a5)
    1192:	2118                	lbu	a4,0(a0)
    1194:	02e786a3          	sb	a4,45(a5)
    1198:	3f98                	lbu	a4,25(a5)
    119a:	00176713          	ori	a4,a4,1
    119e:	bf98                	sb	a4,25(a5)
    11a0:	2fb8                	lbu	a4,26(a5)
    11a2:	8b7d                	andi	a4,a4,31
    11a4:	afb8                	sb	a4,26(a5)
    11a6:	2fb8                	lbu	a4,26(a5)
    11a8:	02076713          	ori	a4,a4,32
    11ac:	afb8                	sb	a4,26(a5)
    11ae:	2fb8                	lbu	a4,26(a5)
    11b0:	01076713          	ori	a4,a4,16
    11b4:	afb8                	sb	a4,26(a5)
    11b6:	2fb8                	lbu	a4,26(a5)
    11b8:	0fb77713          	andi	a4,a4,251
    11bc:	afb8                	sb	a4,26(a5)
    11be:	2fb8                	lbu	a4,26(a5)
    11c0:	00176713          	ori	a4,a4,1
    11c4:	afb8                	sb	a4,26(a5)
    11c6:	60000713          	li	a4,1536
    11ca:	affa                	sh	a4,30(a5)
    11cc:	23f8                	lbu	a4,6(a5)
    11ce:	0f177713          	andi	a4,a4,241
    11d2:	a3f8                	sb	a4,6(a5)
    11d4:	23f8                	lbu	a4,6(a5)
    11d6:	00a76713          	ori	a4,a4,10
    11da:	a3f8                	sb	a4,6(a5)
    11dc:	40024737          	lui	a4,0x40024
    11e0:	80072783          	lw	a5,-2048(a4) # 40023800 <_eusrstack+0x20013800>
    11e4:	0047e793          	ori	a5,a5,4
    11e8:	80f72023          	sw	a5,-2048(a4)
    11ec:	0141                	addi	sp,sp,16
    11ee:	fa7fe06f          	j	194 <__riscv_restore_0>

000011f2 <ETH_LinkUpCfg>:
    11f2:	f7ffe2ef          	jal	t0,170 <__riscv_save_0>
    11f6:	2391                	jal	173a <WCHNET_PhyStatus>
    11f8:	40028737          	lui	a4,0x40028
    11fc:	2f1c                	lbu	a5,24(a4)
    11fe:	0207e793          	ori	a5,a5,32
    1202:	af1c                	sb	a5,24(a4)
    1204:	86018f23          	sb	zero,-1922(gp) # 200000ee <CRCErrPktCnt>
    1208:	4705                	li	a4,1
    120a:	88e18623          	sb	a4,-1908(gp) # 200000fc <PhyPolarityDetect>
    120e:	8881a703          	lw	a4,-1912(gp) # 200000f8 <LocalTime>
    1212:	88e1ac23          	sw	a4,-1896(gp) # 20000108 <phyLinkTime>
    1216:	4711                	li	a4,4
    1218:	88e18f23          	sb	a4,-1890(gp) # 2000010e <phyStatus>
    121c:	3dc5                	jal	110c <ETH_Start>
    121e:	f77fe06f          	j	194 <__riscv_restore_0>

00001222 <ETH_LinkDownCfg>:
    1222:	f4ffe2ef          	jal	t0,170 <__riscv_save_0>
    1226:	2b11                	jal	173a <WCHNET_PhyStatus>
    1228:	40024737          	lui	a4,0x40024
    122c:	80072783          	lw	a5,-2048(a4) # 40023800 <_eusrstack+0x20013800>
    1230:	9bed                	andi	a5,a5,-5
    1232:	80f72023          	sw	a5,-2048(a4)
    1236:	4705                	li	a4,1
    1238:	88e18aa3          	sb	a4,-1899(gp) # 20000105 <phyLinkReset>
    123c:	8881a703          	lw	a4,-1912(gp) # 200000f8 <LocalTime>
    1240:	88e1ac23          	sw	a4,-1896(gp) # 20000108 <phyLinkTime>
    1244:	f51fe06f          	j	194 <__riscv_restore_0>

00001248 <ETH_PHYLink>:
    1248:	f29fe2ef          	jal	t0,170 <__riscv_save_0>
    124c:	400287b7          	lui	a5,0x40028
    1250:	4705                	li	a4,1
    1252:	02e78223          	sb	a4,36(a5) # 40028024 <_eusrstack+0x20018024>
    1256:	338a                	lhu	a0,32(a5)
    1258:	4715                	li	a4,5
    125a:	02e78223          	sb	a4,36(a5)
    125e:	0542                	slli	a0,a0,0x10
    1260:	8141                	srli	a0,a0,0x10
    1262:	339a                	lhu	a4,32(a5)
    1264:	00457693          	andi	a3,a0,4
    1268:	ce85                	beqz	a3,12a0 <ETH_PHYLink+0x58>
    126a:	02057693          	andi	a3,a0,32
    126e:	c681                	beqz	a3,1276 <ETH_PHYLink+0x2e>
    1270:	3749                	jal	11f2 <ETH_LinkUpCfg>
    1272:	f23fe06f          	j	194 <__riscv_restore_0>
    1276:	0742                	slli	a4,a4,0x10
    1278:	8341                	srli	a4,a4,0x10
    127a:	e31d                	bnez	a4,12a0 <ETH_PHYLink+0x58>
    127c:	80000737          	lui	a4,0x80000
    1280:	10070713          	addi	a4,a4,256 # 80000100 <_eusrstack+0x5fff0100>
    1284:	d3d8                	sw	a4,36(a5)
    1286:	88018fa3          	sb	zero,-1889(gp) # 2000010f <phySucCnt>
    128a:	88018f23          	sb	zero,-1890(gp) # 2000010e <phyStatus>
    128e:	88018a23          	sb	zero,-1900(gp) # 20000104 <phyLinkCnt>
    1292:	88018ea3          	sb	zero,-1891(gp) # 2000010d <phyRetryCnt>
    1296:	88018e23          	sb	zero,-1892(gp) # 2000010c <phyPNChangeCnt>
    129a:	88018b23          	sb	zero,-1898(gp) # 20000106 <phyLinkStatus>
    129e:	bfd1                	j	1272 <ETH_PHYLink+0x2a>
    12a0:	3749                	jal	1222 <ETH_LinkDownCfg>
    12a2:	bfc1                	j	1272 <ETH_PHYLink+0x2a>

000012a4 <WCHNET_ETHIsr>:
    12a4:	ecdfe2ef          	jal	t0,170 <__riscv_save_0>
    12a8:	400286b7          	lui	a3,0x40028
    12ac:	22c0                	lbu	s0,4(a3)
    12ae:	0ff47413          	andi	s0,s0,255
    12b2:	04047793          	andi	a5,s0,64
    12b6:	cbb5                	beqz	a5,132a <WCHNET_ETHIsr+0x86>
    12b8:	04000793          	li	a5,64
    12bc:	a2dc                	sb	a5,4(a3)
    12be:	88018613          	addi	a2,gp,-1920 # 200000f0 <DMARxDescToGet>
    12c2:	421c                	lw	a5,0(a2)
    12c4:	4398                	lw	a4,0(a5)
    12c6:	04075663          	bgez	a4,1312 <WCHNET_ETHIsr+0x6e>
    12ca:	32d8                	lbu	a4,5(a3)
    12cc:	07877713          	andi	a4,a4,120
    12d0:	ef4d                	bnez	a4,138a <WCHNET_ETHIsr+0xe6>
    12d2:	47cc                	lw	a1,12(a5)
    12d4:	4198                	lw	a4,0(a1)
    12d6:	02075e63          	bgez	a4,1312 <WCHNET_ETHIsr+0x6e>
    12da:	4398                	lw	a4,0(a5)
    12dc:	7561                	lui	a0,0xffff8
    12de:	157d                	addi	a0,a0,-1
    12e0:	0706                	slli	a4,a4,0x1
    12e2:	8305                	srli	a4,a4,0x1
    12e4:	c398                	sw	a4,0(a5)
    12e6:	4398                	lw	a4,0(a5)
    12e8:	8f69                	and	a4,a4,a0
    12ea:	c398                	sw	a4,0(a5)
    12ec:	4398                	lw	a4,0(a5)
    12ee:	c0010537          	lui	a0,0xc0010
    12f2:	157d                	addi	a0,a0,-1
    12f4:	30076713          	ori	a4,a4,768
    12f8:	c398                	sw	a4,0(a5)
    12fa:	4398                	lw	a4,0(a5)
    12fc:	8f69                	and	a4,a4,a0
    12fe:	c398                	sw	a4,0(a5)
    1300:	26fa                	lhu	a4,14(a3)
    1302:	4388                	lw	a0,0(a5)
    1304:	0711                	addi	a4,a4,4
    1306:	0742                	slli	a4,a4,0x10
    1308:	8f49                	or	a4,a4,a0
    130a:	c398                	sw	a4,0(a5)
    130c:	259e                	lhu	a5,8(a1)
    130e:	c20c                	sw	a1,0(a2)
    1310:	a6de                	sh	a5,12(a3)
    1312:	88c18793          	addi	a5,gp,-1908 # 200000fc <PhyPolarityDetect>
    1316:	2398                	lbu	a4,0(a5)
    1318:	cb09                	beqz	a4,132a <WCHNET_ETHIsr+0x86>
    131a:	00078023          	sb	zero,0(a5)
    131e:	40028737          	lui	a4,0x40028
    1322:	2f1c                	lbu	a5,24(a4)
    1324:	0df7f793          	andi	a5,a5,223
    1328:	af1c                	sb	a5,24(a4)
    132a:	00847793          	andi	a5,s0,8
    132e:	cb99                	beqz	a5,1344 <WCHNET_ETHIsr+0xa0>
    1330:	8841a703          	lw	a4,-1916(gp) # 200000f4 <DMATxDescToSet>
    1334:	431c                	lw	a5,0(a4)
    1336:	0786                	slli	a5,a5,0x1
    1338:	8385                	srli	a5,a5,0x1
    133a:	c31c                	sw	a5,0(a4)
    133c:	400287b7          	lui	a5,0x40028
    1340:	4721                	li	a4,8
    1342:	a3d8                	sb	a4,4(a5)
    1344:	01047793          	andi	a5,s0,16
    1348:	c791                	beqz	a5,1354 <WCHNET_ETHIsr+0xb0>
    134a:	3dfd                	jal	1248 <ETH_PHYLink>
    134c:	400287b7          	lui	a5,0x40028
    1350:	4741                	li	a4,16
    1352:	a3d8                	sb	a4,4(a5)
    1354:	00247793          	andi	a5,s0,2
    1358:	cb99                	beqz	a5,136e <WCHNET_ETHIsr+0xca>
    135a:	8841a703          	lw	a4,-1916(gp) # 200000f4 <DMATxDescToSet>
    135e:	431c                	lw	a5,0(a4)
    1360:	0786                	slli	a5,a5,0x1
    1362:	8385                	srli	a5,a5,0x1
    1364:	c31c                	sw	a5,0(a4)
    1366:	400287b7          	lui	a5,0x40028
    136a:	4709                	li	a4,2
    136c:	a3d8                	sb	a4,4(a5)
    136e:	8805                	andi	s0,s0,1
    1370:	cc09                	beqz	s0,138a <WCHNET_ETHIsr+0xe6>
    1372:	88c1c783          	lbu	a5,-1908(gp) # 200000fc <PhyPolarityDetect>
    1376:	c791                	beqz	a5,1382 <WCHNET_ETHIsr+0xde>
    1378:	87e18793          	addi	a5,gp,-1922 # 200000ee <CRCErrPktCnt>
    137c:	2398                	lbu	a4,0(a5)
    137e:	0705                	addi	a4,a4,1
    1380:	a398                	sb	a4,0(a5)
    1382:	400287b7          	lui	a5,0x40028
    1386:	4705                	li	a4,1
    1388:	a3d8                	sb	a4,4(a5)
    138a:	e0bfe06f          	j	194 <__riscv_restore_0>

0000138e <ETH_Init>:
    138e:	de3fe2ef          	jal	t0,170 <__riscv_save_0>
    1392:	842a                	mv	s0,a0
    1394:	31fd                	jal	1082 <ETH_LedConfiguration>
    1396:	06400513          	li	a0,100
    139a:	2215                	jal	14be <Delay_Ms>
    139c:	8522                	mv	a0,s0
    139e:	3b49                	jal	1130 <ETH_Configuration>
    13a0:	34c18793          	addi	a5,gp,844 # 20000bbc <DMATxDscrTab>
    13a4:	88f1a223          	sw	a5,-1916(gp) # 200000f4 <DMATxDescToSet>
    13a8:	20002737          	lui	a4,0x20002
    13ac:	3cc70713          	addi	a4,a4,972 # 200023cc <MACTxBuf>
    13b0:	200015b7          	lui	a1,0x20001
    13b4:	30c18413          	addi	s0,gp,780 # 20000b7c <DMARxDscrTab>
    13b8:	c798                	sw	a4,8(a5)
    13ba:	0007a023          	sw	zero,0(a5) # 40028000 <_eusrstack+0x20018000>
    13be:	c7dc                	sw	a5,12(a5)
    13c0:	4611                	li	a2,4
    13c2:	bcc58593          	addi	a1,a1,-1076 # 20000bcc <MACRxBuf>
    13c6:	30c18513          	addi	a0,gp,780 # 20000b7c <DMARxDscrTab>
    13ca:	39f5                	jal	10c6 <ETH_DMARxDescChainInit>
    13cc:	8881a823          	sw	s0,-1904(gp) # 20000100 <pDMARxSet>
    13d0:	20000737          	lui	a4,0x20000
    13d4:	e000e7b7          	lui	a5,0xe000e
    13d8:	10e7a223          	sw	a4,260(a5) # e000e104 <_eusrstack+0xbfffe104>
    13dc:	db9fe06f          	j	194 <__riscv_restore_0>

000013e0 <ETH_LibInit>:
    13e0:	d91fe2ef          	jal	t0,170 <__riscv_save_0>
    13e4:	7139                	addi	sp,sp,-64
    13e6:	60000793          	li	a5,1536
    13ea:	ca3e                	sw	a5,20(sp)
    13ec:	5b400793          	li	a5,1460
    13f0:	cc3e                	sw	a5,24(sp)
    13f2:	67000793          	li	a5,1648
    13f6:	ce3e                	sw	a5,28(sp)
    13f8:	03200793          	li	a5,50
    13fc:	d03e                	sw	a5,32(sp)
    13fe:	10300793          	li	a5,259
    1402:	d23e                	sw	a5,36(sp)
    1404:	405527b7          	lui	a5,0x40552
    1408:	0785                	addi	a5,a5,1
    140a:	d43e                	sw	a5,40(sp)
    140c:	000017b7          	lui	a5,0x1
    1410:	dae78793          	addi	a5,a5,-594 # dae <ETH_LedLinkSet>
    1414:	d63e                	sw	a5,44(sp)
    1416:	000017b7          	lui	a5,0x1
    141a:	d9078793          	addi	a5,a5,-624 # d90 <ETH_LedDataSet>
    141e:	d83e                	sw	a5,48(sp)
    1420:	000017b7          	lui	a5,0x1
    1424:	d5878793          	addi	a5,a5,-680 # d58 <ETH_TxPktChainMode>
    1428:	da3e                	sw	a5,52(sp)
    142a:	123457b7          	lui	a5,0x12345
    142e:	67878793          	addi	a5,a5,1656 # 12345678 <_data_lma+0x1233c804>
    1432:	892a                	mv	s2,a0
    1434:	0848                	addi	a0,sp,20
    1436:	c62e                	sw	a1,12(sp)
    1438:	c432                	sw	a2,8(sp)
    143a:	84b6                	mv	s1,a3
    143c:	dc02                	sw	zero,56(sp)
    143e:	de3e                	sw	a5,60(sp)
    1440:	003000ef          	jal	ra,1c42 <WCHNET_ConfigLIB>
    1444:	842a                	mv	s0,a0
    1446:	e911                	bnez	a0,145a <ETH_LibInit+0x7a>
    1448:	4622                	lw	a2,8(sp)
    144a:	45b2                	lw	a1,12(sp)
    144c:	86a6                	mv	a3,s1
    144e:	854a                	mv	a0,s2
    1450:	748000ef          	jal	ra,1b98 <WCHNET_Init>
    1454:	842a                	mv	s0,a0
    1456:	8526                	mv	a0,s1
    1458:	3f1d                	jal	138e <ETH_Init>
    145a:	8522                	mv	a0,s0
    145c:	6121                	addi	sp,sp,64
    145e:	d37fe06f          	j	194 <__riscv_restore_0>

00001462 <Delay_Init>:
    1462:	8141a783          	lw	a5,-2028(gp) # 20000084 <SystemCoreClock>
    1466:	007a1737          	lui	a4,0x7a1
    146a:	20070713          	addi	a4,a4,512 # 7a1200 <_data_lma+0x79838c>
    146e:	02e7d7b3          	divu	a5,a5,a4
    1472:	0ff7f793          	andi	a5,a5,255
    1476:	8af18123          	sb	a5,-1886(gp) # 20000112 <p_us>
    147a:	3e800713          	li	a4,1000
    147e:	02e787b3          	mul	a5,a5,a4
    1482:	8af19023          	sh	a5,-1888(gp) # 20000110 <p_ms>
    1486:	8082                	ret

00001488 <Delay_Us>:
    1488:	e000f7b7          	lui	a5,0xe000f
    148c:	43d8                	lw	a4,4(a5)
    148e:	4681                	li	a3,0
    1490:	9b79                	andi	a4,a4,-2
    1492:	c3d8                	sw	a4,4(a5)
    1494:	8a21c703          	lbu	a4,-1886(gp) # 20000112 <p_us>
    1498:	02a70633          	mul	a2,a4,a0
    149c:	cb90                	sw	a2,16(a5)
    149e:	cbd4                	sw	a3,20(a5)
    14a0:	4398                	lw	a4,0(a5)
    14a2:	01076713          	ori	a4,a4,16
    14a6:	c398                	sw	a4,0(a5)
    14a8:	4398                	lw	a4,0(a5)
    14aa:	02176713          	ori	a4,a4,33
    14ae:	c398                	sw	a4,0(a5)
    14b0:	43d8                	lw	a4,4(a5)
    14b2:	8b05                	andi	a4,a4,1
    14b4:	df75                	beqz	a4,14b0 <Delay_Us+0x28>
    14b6:	4398                	lw	a4,0(a5)
    14b8:	9b79                	andi	a4,a4,-2
    14ba:	c398                	sw	a4,0(a5)
    14bc:	8082                	ret

000014be <Delay_Ms>:
    14be:	e000f7b7          	lui	a5,0xe000f
    14c2:	43d8                	lw	a4,4(a5)
    14c4:	4681                	li	a3,0
    14c6:	9b79                	andi	a4,a4,-2
    14c8:	c3d8                	sw	a4,4(a5)
    14ca:	8a01d703          	lhu	a4,-1888(gp) # 20000110 <p_ms>
    14ce:	02a70633          	mul	a2,a4,a0
    14d2:	cb90                	sw	a2,16(a5)
    14d4:	cbd4                	sw	a3,20(a5)
    14d6:	4398                	lw	a4,0(a5)
    14d8:	01076713          	ori	a4,a4,16
    14dc:	c398                	sw	a4,0(a5)
    14de:	4398                	lw	a4,0(a5)
    14e0:	02176713          	ori	a4,a4,33
    14e4:	c398                	sw	a4,0(a5)
    14e6:	43d8                	lw	a4,4(a5)
    14e8:	8b05                	andi	a4,a4,1
    14ea:	df75                	beqz	a4,14e6 <Delay_Ms+0x28>
    14ec:	4398                	lw	a4,0(a5)
    14ee:	9b79                	andi	a4,a4,-2
    14f0:	c398                	sw	a4,0(a5)
    14f2:	8082                	ret

000014f4 <_write>:
    14f4:	c63fe2ef          	jal	t0,156 <__riscv_save_4>
    14f8:	400144b7          	lui	s1,0x40014
    14fc:	89ae                	mv	s3,a1
    14fe:	8932                	mv	s2,a2
    1500:	4401                	li	s0,0
    1502:	80048493          	addi	s1,s1,-2048 # 40013800 <_eusrstack+0x20003800>
    1506:	01244563          	blt	s0,s2,1510 <_write+0x1c>
    150a:	854a                	mv	a0,s2
    150c:	c7ffe06f          	j	18a <__riscv_restore_4>
    1510:	04000593          	li	a1,64
    1514:	8526                	mv	a0,s1
    1516:	839ff0ef          	jal	ra,d4e <USART_GetFlagStatus>
    151a:	d97d                	beqz	a0,1510 <_write+0x1c>
    151c:	008987b3          	add	a5,s3,s0
    1520:	00078583          	lb	a1,0(a5) # e000f000 <_eusrstack+0xbffff000>
    1524:	8526                	mv	a0,s1
    1526:	0405                	addi	s0,s0,1
    1528:	05c2                	slli	a1,a1,0x10
    152a:	81c1                	srli	a1,a1,0x10
    152c:	813ff0ef          	jal	ra,d3e <USART_SendData>
    1530:	bfd9                	j	1506 <_write+0x12>

00001532 <_sbrk>:
    1532:	82018713          	addi	a4,gp,-2016 # 20000090 <curbrk.4731>
    1536:	431c                	lw	a5,0(a4)
    1538:	200046b7          	lui	a3,0x20004
    153c:	2d868693          	addi	a3,a3,728 # 200042d8 <_ebss>
    1540:	953e                	add	a0,a0,a5
    1542:	00d56b63          	bltu	a0,a3,1558 <_sbrk+0x26>
    1546:	200106b7          	lui	a3,0x20010
    154a:	80068693          	addi	a3,a3,-2048 # 2000f800 <_heap_end>
    154e:	00a6e563          	bltu	a3,a0,1558 <_sbrk+0x26>
    1552:	c308                	sw	a0,0(a4)
    1554:	853e                	mv	a0,a5
    1556:	8082                	ret
    1558:	57fd                	li	a5,-1
    155a:	bfed                	j	1554 <_sbrk+0x22>

0000155c <__get_MEPC>:
    155c:	34102573          	csrr	a0,mepc
    1560:	8082                	ret

00001562 <__get_MCAUSE>:
    1562:	34202573          	csrr	a0,mcause
    1566:	8082                	ret

00001568 <__get_MTVAL>:
    1568:	34302573          	csrr	a0,mtval
    156c:	8082                	ret

0000156e <WCHNET_PeriodicHandle>:
    156e:	c03fe2ef          	jal	t0,170 <__riscv_save_0>
    1572:	8881a783          	lw	a5,-1912(gp) # 200000f8 <LocalTime>
    1576:	1141                	addi	sp,sp,-16
    1578:	c63e                	sw	a5,12(sp)
    157a:	589000ef          	jal	ra,2302 <WCHNET_GetPHYStatus>
    157e:	8911                	andi	a0,a0,4
    1580:	14050063          	beqz	a0,16c0 <WCHNET_PeriodicHandle+0x152>
    1584:	8bc18793          	addi	a5,gp,-1860 # 2000012c <TCPTimer>
    1588:	4398                	lw	a4,0(a5)
    158a:	46b2                	lw	a3,12(sp)
    158c:	8e99                	sub	a3,a3,a4
    158e:	20004737          	lui	a4,0x20004
    1592:	21472703          	lw	a4,532(a4) # 20004214 <NetInf+0x1c>
    1596:	8305                	srli	a4,a4,0x1
    1598:	00d77663          	bgeu	a4,a3,15a4 <WCHNET_PeriodicHandle+0x36>
    159c:	4732                	lw	a4,12(sp)
    159e:	c398                	sw	a4,0(a5)
    15a0:	5a4030ef          	jal	ra,4b44 <tcp_tmr>
    15a4:	05b030ef          	jal	ra,4dfe <RemoveTimeWaiTCP>
    15a8:	8cc1a783          	lw	a5,-1844(gp) # 2000013c <tcpSendAckFlag>
    15ac:	c791                	beqz	a5,15b8 <WCHNET_PeriodicHandle+0x4a>
    15ae:	5b8030ef          	jal	ra,4b66 <tcp_fastsendack>
    15b2:	e119                	bnez	a0,15b8 <WCHNET_PeriodicHandle+0x4a>
    15b4:	8c01a623          	sw	zero,-1844(gp) # 2000013c <tcpSendAckFlag>
    15b8:	8b818493          	addi	s1,gp,-1864 # 20000128 <IPFragTimer>
    15bc:	4098                	lw	a4,0(s1)
    15be:	47b2                	lw	a5,12(sp)
    15c0:	8f99                	sub	a5,a5,a4
    15c2:	3e700713          	li	a4,999
    15c6:	00f77663          	bgeu	a4,a5,15d2 <WCHNET_PeriodicHandle+0x64>
    15ca:	3c9010ef          	jal	ra,3192 <ip_reass_tmr>
    15ce:	47b2                	lw	a5,12(sp)
    15d0:	c09c                	sw	a5,0(s1)
    15d2:	8a418793          	addi	a5,gp,-1884 # 20000114 <ARPTimer>
    15d6:	4398                	lw	a4,0(a5)
    15d8:	46b2                	lw	a3,12(sp)
    15da:	8e99                	sub	a3,a3,a4
    15dc:	6705                	lui	a4,0x1
    15de:	38770713          	addi	a4,a4,903 # 1387 <WCHNET_ETHIsr+0xe3>
    15e2:	00d77663          	bgeu	a4,a3,15ee <WCHNET_PeriodicHandle+0x80>
    15e6:	4732                	lw	a4,12(sp)
    15e8:	c398                	sw	a4,0(a5)
    15ea:	787000ef          	jal	ra,2570 <etharp_tmr>
    15ee:	200047b7          	lui	a5,0x20004
    15f2:	1d878793          	addi	a5,a5,472 # 200041d8 <DNSInf>
    15f6:	47d8                	lw	a4,12(a5)
    15f8:	cf11                	beqz	a4,1614 <WCHNET_PeriodicHandle+0xa6>
    15fa:	8b418713          	addi	a4,gp,-1868 # 20000124 <DNSTimer>
    15fe:	4310                	lw	a2,0(a4)
    1600:	46b2                	lw	a3,12(sp)
    1602:	8e91                	sub	a3,a3,a2
    1604:	3e700613          	li	a2,999
    1608:	00d67663          	bgeu	a2,a3,1614 <WCHNET_PeriodicHandle+0xa6>
    160c:	46b2                	lw	a3,12(sp)
    160e:	43dc                	lw	a5,4(a5)
    1610:	c314                	sw	a3,0(a4)
    1612:	9782                	jalr	a5
    1614:	200044b7          	lui	s1,0x20004
    1618:	1804a783          	lw	a5,384(s1) # 20004180 <DHCPCtrl>
    161c:	cba9                	beqz	a5,166e <WCHNET_PeriodicHandle+0x100>
    161e:	8b018713          	addi	a4,gp,-1872 # 20000120 <DHCPfineTimer>
    1622:	431c                	lw	a5,0(a4)
    1624:	46b2                	lw	a3,12(sp)
    1626:	0fa00613          	li	a2,250
    162a:	8e9d                	sub	a3,a3,a5
    162c:	200047b7          	lui	a5,0x20004
    1630:	2507a783          	lw	a5,592(a5) # 20004250 <WCHCfg+0x14>
    1634:	83ed                	srli	a5,a5,0x1b
    1636:	02c787b3          	mul	a5,a5,a2
    163a:	00f6e963          	bltu	a3,a5,164c <WCHNET_PeriodicHandle+0xde>
    163e:	47b2                	lw	a5,12(sp)
    1640:	c31c                	sw	a5,0(a4)
    1642:	18048793          	addi	a5,s1,384
    1646:	4b9c                	lw	a5,16(a5)
    1648:	c391                	beqz	a5,164c <WCHNET_PeriodicHandle+0xde>
    164a:	9782                	jalr	a5
    164c:	8ac18793          	addi	a5,gp,-1876 # 2000011c <DHCPcoarseTimer>
    1650:	4398                	lw	a4,0(a5)
    1652:	46b2                	lw	a3,12(sp)
    1654:	8e99                	sub	a3,a3,a4
    1656:	673d                	lui	a4,0xf
    1658:	a5f70713          	addi	a4,a4,-1441 # ea5f <_data_lma+0x5beb>
    165c:	00d77963          	bgeu	a4,a3,166e <WCHNET_PeriodicHandle+0x100>
    1660:	4732                	lw	a4,12(sp)
    1662:	18048493          	addi	s1,s1,384
    1666:	c398                	sw	a4,0(a5)
    1668:	48dc                	lw	a5,20(s1)
    166a:	c391                	beqz	a5,166e <WCHNET_PeriodicHandle+0x100>
    166c:	9782                	jalr	a5
    166e:	4532                	lw	a0,12(sp)
    1670:	8a818493          	addi	s1,gp,-1880 # 20000118 <ArpCheckTime>
    1674:	2c75                	jal	1930 <IPCheckTmr>
    1676:	409c                	lw	a5,0(s1)
    1678:	4732                	lw	a4,12(sp)
    167a:	8f1d                	sub	a4,a4,a5
    167c:	67bd                	lui	a5,0xf
    167e:	a5f78793          	addi	a5,a5,-1441 # ea5f <_data_lma+0x5beb>
    1682:	00e7f563          	bgeu	a5,a4,168c <WCHNET_PeriodicHandle+0x11e>
    1686:	2c8d                	jal	18f8 <SelIPARPSend>
    1688:	47b2                	lw	a5,12(sp)
    168a:	c09c                	sw	a5,0(s1)
    168c:	8c91c703          	lbu	a4,-1847(gp) # 20000139 <phydata>
    1690:	84be                	mv	s1,a5
    1692:	0ff77713          	andi	a4,a4,255
    1696:	c70d                	beqz	a4,16c0 <WCHNET_PeriodicHandle+0x152>
    1698:	8c91c703          	lbu	a4,-1847(gp) # 20000139 <phydata>
    169c:	0c077713          	andi	a4,a4,192
    16a0:	e31d                	bnez	a4,16c6 <WCHNET_PeriodicHandle+0x158>
    16a2:	200047b7          	lui	a5,0x20004
    16a6:	2587a783          	lw	a5,600(a5) # 20004258 <WCHCfg+0x1c>
    16aa:	c399                	beqz	a5,16b0 <WCHNET_PeriodicHandle+0x142>
    16ac:	4505                	li	a0,1
    16ae:	9782                	jalr	a5
    16b0:	8881a703          	lw	a4,-1912(gp) # 200000f8 <LocalTime>
    16b4:	8ce1a223          	sw	a4,-1852(gp) # 20000134 <phydatatime>
    16b8:	04000793          	li	a5,64
    16bc:	8cf184a3          	sb	a5,-1847(gp) # 20000139 <phydata>
    16c0:	0141                	addi	sp,sp,16
    16c2:	ad3fe06f          	j	194 <__riscv_restore_0>
    16c6:	8c91c703          	lbu	a4,-1847(gp) # 20000139 <phydata>
    16ca:	04077713          	andi	a4,a4,64
    16ce:	cb15                	beqz	a4,1702 <WCHNET_PeriodicHandle+0x194>
    16d0:	8c41a683          	lw	a3,-1852(gp) # 20000134 <phydatatime>
    16d4:	8881a703          	lw	a4,-1912(gp) # 200000f8 <LocalTime>
    16d8:	8c418913          	addi	s2,gp,-1852 # 20000134 <phydatatime>
    16dc:	8f15                	sub	a4,a4,a3
    16de:	06400693          	li	a3,100
    16e2:	fce6ffe3          	bgeu	a3,a4,16c0 <WCHNET_PeriodicHandle+0x152>
    16e6:	200047b7          	lui	a5,0x20004
    16ea:	2587a783          	lw	a5,600(a5) # 20004258 <WCHCfg+0x1c>
    16ee:	c399                	beqz	a5,16f4 <WCHNET_PeriodicHandle+0x186>
    16f0:	4501                	li	a0,0
    16f2:	9782                	jalr	a5
    16f4:	8881a783          	lw	a5,-1912(gp) # 200000f8 <LocalTime>
    16f8:	00f92023          	sw	a5,0(s2)
    16fc:	f8000793          	li	a5,-128
    1700:	bf75                	j	16bc <WCHNET_PeriodicHandle+0x14e>
    1702:	8c91c703          	lbu	a4,-1847(gp) # 20000139 <phydata>
    1706:	0762                	slli	a4,a4,0x18
    1708:	8761                	srai	a4,a4,0x18
    170a:	fa075be3          	bgez	a4,16c0 <WCHNET_PeriodicHandle+0x152>
    170e:	8c41a683          	lw	a3,-1852(gp) # 20000134 <phydatatime>
    1712:	8881a703          	lw	a4,-1912(gp) # 200000f8 <LocalTime>
    1716:	8f15                	sub	a4,a4,a3
    1718:	06400693          	li	a3,100
    171c:	fae6f2e3          	bgeu	a3,a4,16c0 <WCHNET_PeriodicHandle+0x152>
    1720:	8c0184a3          	sb	zero,-1847(gp) # 20000139 <phydata>
    1724:	bf71                	j	16c0 <WCHNET_PeriodicHandle+0x152>

00001726 <WCHNET_NetInput>:
    1726:	a4bfe2ef          	jal	t0,170 <__riscv_save_0>
    172a:	20004537          	lui	a0,0x20004
    172e:	26850513          	addi	a0,a0,616 # 20004268 <WCHNetIf>
    1732:	46e010ef          	jal	ra,2ba0 <ethernetif_input>
    1736:	a5ffe06f          	j	194 <__riscv_restore_0>

0000173a <WCHNET_PhyStatus>:
    173a:	a37fe2ef          	jal	t0,170 <__riscv_save_0>
    173e:	200047b7          	lui	a5,0x20004
    1742:	1f878793          	addi	a5,a5,504 # 200041f8 <NetInf>
    1746:	57d8                	lw	a4,44(a5)
    1748:	20004437          	lui	s0,0x20004
    174c:	d388                	sw	a0,32(a5)
    174e:	00476713          	ori	a4,a4,4
    1752:	d7d8                	sw	a4,44(a5)
    1754:	8911                	andi	a0,a0,4
    1756:	23c40793          	addi	a5,s0,572 # 2000423c <WCHCfg>
    175a:	4f9c                	lw	a5,24(a5)
    175c:	23c40413          	addi	s0,s0,572
    1760:	cd01                	beqz	a0,1778 <WCHNET_PhyStatus+0x3e>
    1762:	c399                	beqz	a5,1768 <WCHNET_PhyStatus+0x2e>
    1764:	4501                	li	a0,0
    1766:	9782                	jalr	a5
    1768:	4c5c                	lw	a5,28(s0)
    176a:	c399                	beqz	a5,1770 <WCHNET_PhyStatus+0x36>
    176c:	4501                	li	a0,0
    176e:	9782                	jalr	a5
    1770:	4505                	li	a0,1
    1772:	22a5                	jal	18da <IPCheckParaInit>
    1774:	a21fe06f          	j	194 <__riscv_restore_0>
    1778:	c399                	beqz	a5,177e <WCHNET_PhyStatus+0x44>
    177a:	4505                	li	a0,1
    177c:	9782                	jalr	a5
    177e:	4c5c                	lw	a5,28(s0)
    1780:	dbf5                	beqz	a5,1774 <WCHNET_PhyStatus+0x3a>
    1782:	4505                	li	a0,1
    1784:	9782                	jalr	a5
    1786:	b7fd                	j	1774 <WCHNET_PhyStatus+0x3a>

00001788 <WCHNET_Rx>:
    1788:	8901a783          	lw	a5,-1904(gp) # 20000100 <pDMARxSet>
    178c:	00052023          	sw	zero,0(a0)
    1790:	cb9d                	beqz	a5,17c6 <WCHNET_Rx+0x3e>
    1792:	4394                	lw	a3,0(a5)
    1794:	0006db63          	bgez	a3,17aa <WCHNET_Rx+0x22>
    1798:	47d4                	lw	a3,12(a5)
    179a:	4290                	lw	a2,0(a3)
    179c:	02064563          	bltz	a2,17c6 <WCHNET_Rx+0x3e>
    17a0:	439c                	lw	a5,0(a5)
    17a2:	0007d463          	bgez	a5,17aa <WCHNET_Rx+0x22>
    17a6:	88d1a823          	sw	a3,-1904(gp) # 20000100 <pDMARxSet>
    17aa:	8901a783          	lw	a5,-1904(gp) # 20000100 <pDMARxSet>
    17ae:	6591                	lui	a1,0x4
    17b0:	4601                	li	a2,0
    17b2:	15fd                	addi	a1,a1,-1
    17b4:	4835                	li	a6,13
    17b6:	800008b7          	lui	a7,0x80000
    17ba:	4394                	lw	a3,0(a5)
    17bc:	0006d763          	bgez	a3,17ca <WCHNET_Rx+0x42>
    17c0:	c219                	beqz	a2,17c6 <WCHNET_Rx+0x3e>
    17c2:	88f1a823          	sw	a5,-1904(gp) # 20000100 <pDMARxSet>
    17c6:	4501                	li	a0,0
    17c8:	8082                	ret
    17ca:	4394                	lw	a3,0(a5)
    17cc:	01069313          	slli	t1,a3,0x10
    17d0:	04034263          	bltz	t1,1814 <WCHNET_Rx+0x8c>
    17d4:	4394                	lw	a3,0(a5)
    17d6:	1006f693          	andi	a3,a3,256
    17da:	ce8d                	beqz	a3,1814 <WCHNET_Rx+0x8c>
    17dc:	4394                	lw	a3,0(a5)
    17de:	2006f693          	andi	a3,a3,512
    17e2:	ca8d                	beqz	a3,1814 <WCHNET_Rx+0x8c>
    17e4:	4394                	lw	a3,0(a5)
    17e6:	82c1                	srli	a3,a3,0x10
    17e8:	8eed                	and	a3,a3,a1
    17ea:	16f1                	addi	a3,a3,-4
    17ec:	c114                	sw	a3,0(a0)
    17ee:	02d87163          	bgeu	a6,a3,1810 <WCHNET_Rx+0x88>
    17f2:	4394                	lw	a3,0(a5)
    17f4:	0206f693          	andi	a3,a3,32
    17f8:	ea81                	bnez	a3,1808 <WCHNET_Rx+0x80>
    17fa:	c219                	beqz	a2,1800 <WCHNET_Rx+0x78>
    17fc:	88f1a823          	sw	a5,-1904(gp) # 20000100 <pDMARxSet>
    1800:	479c                	lw	a5,8(a5)
    1802:	c15c                	sw	a5,4(a0)
    1804:	4505                	li	a0,1
    1806:	8082                	ret
    1808:	4394                	lw	a3,0(a5)
    180a:	0816f693          	andi	a3,a3,129
    180e:	d6f5                	beqz	a3,17fa <WCHNET_Rx+0x72>
    1810:	00052023          	sw	zero,0(a0)
    1814:	0117a023          	sw	a7,0(a5)
    1818:	4605                	li	a2,1
    181a:	47dc                	lw	a5,12(a5)
    181c:	bf79                	j	17ba <WCHNET_Rx+0x32>

0000181e <setRxBuffAddr>:
    181e:	8901a703          	lw	a4,-1904(gp) # 20000100 <pDMARxSet>
    1822:	800006b7          	lui	a3,0x80000
    1826:	c314                	sw	a3,0(a4)
    1828:	4758                	lw	a4,12(a4)
    182a:	88e1a823          	sw	a4,-1904(gp) # 20000100 <pDMARxSet>
    182e:	8082                	ret

00001830 <WCHNET_Tx>:
    1830:	941fe2ef          	jal	t0,170 <__riscv_save_0>
    1834:	8c91c783          	lbu	a5,-1847(gp) # 20000139 <phydata>
    1838:	0ff7f793          	andi	a5,a5,255
    183c:	e781                	bnez	a5,1844 <WCHNET_Tx+0x14>
    183e:	4785                	li	a5,1
    1840:	8cf184a3          	sb	a5,-1847(gp) # 20000139 <phydata>
    1844:	8881a703          	lw	a4,-1912(gp) # 200000f8 <LocalTime>
    1848:	8c018793          	addi	a5,gp,-1856 # 20000130 <TxTimer>
    184c:	cb09                	beqz	a4,185e <WCHNET_Tx+0x2e>
    184e:	c398                	sw	a4,0(a5)
    1850:	200047b7          	lui	a5,0x20004
    1854:	25c7a783          	lw	a5,604(a5) # 2000425c <WCHCfg+0x20>
    1858:	9782                	jalr	a5
    185a:	93bfe06f          	j	194 <__riscv_restore_0>
    185e:	4705                	li	a4,1
    1860:	b7fd                	j	184e <WCHNET_Tx+0x1e>

00001862 <GetChipID>:
    1862:	1ffff7b7          	lui	a5,0x1ffff
    1866:	7067d503          	lhu	a0,1798(a5) # 1ffff706 <_data_lma+0x1fff6892>
    186a:	0f057513          	andi	a0,a0,240
    186e:	8082                	ret

00001870 <getTxBuffAddr>:
    1870:	901fe2ef          	jal	t0,170 <__riscv_save_0>
    1874:	200047b7          	lui	a5,0x20004
    1878:	25c7a783          	lw	a5,604(a5) # 2000425c <WCHCfg+0x20>
    187c:	4901                	li	s2,0
    187e:	c7b1                	beqz	a5,18ca <getTxBuffAddr+0x5a>
    1880:	8841a483          	lw	s1,-1916(gp) # 200000f4 <DMATxDescToSet>
    1884:	c0b9                	beqz	s1,18ca <getTxBuffAddr+0x5a>
    1886:	409c                	lw	a5,0(s1)
    1888:	0084a903          	lw	s2,8(s1)
    188c:	8c018413          	addi	s0,gp,-1856 # 20000130 <TxTimer>
    1890:	0207db63          	bgez	a5,18c6 <getTxBuffAddr+0x56>
    1894:	37f9                	jal	1862 <GetChipID>
    1896:	4014                	lw	a3,0(s0)
    1898:	4781                	li	a5,0
    189a:	08000613          	li	a2,128
    189e:	06300813          	li	a6,99
    18a2:	68a1                	lui	a7,0x8
    18a4:	03000313          	li	t1,48
    18a8:	00c50463          	beq	a0,a2,18b0 <getTxBuffAddr+0x40>
    18ac:	02651263          	bne	a0,t1,18d0 <getTxBuffAddr+0x60>
    18b0:	8881a703          	lw	a4,-1912(gp) # 200000f8 <LocalTime>
    18b4:	8f15                	sub	a4,a4,a3
    18b6:	00e86463          	bltu	a6,a4,18be <getTxBuffAddr+0x4e>
    18ba:	00f8fb63          	bgeu	a7,a5,18d0 <getTxBuffAddr+0x60>
    18be:	409c                	lw	a5,0(s1)
    18c0:	0786                	slli	a5,a5,0x1
    18c2:	8385                	srli	a5,a5,0x1
    18c4:	c09c                	sw	a5,0(s1)
    18c6:	00042023          	sw	zero,0(s0)
    18ca:	854a                	mv	a0,s2
    18cc:	8c9fe06f          	j	194 <__riscv_restore_0>
    18d0:	4098                	lw	a4,0(s1)
    18d2:	fe075ae3          	bgez	a4,18c6 <getTxBuffAddr+0x56>
    18d6:	0785                	addi	a5,a5,1
    18d8:	bfc1                	j	18a8 <getTxBuffAddr+0x38>

000018da <IPCheckParaInit>:
    18da:	8881a703          	lw	a4,-1912(gp) # 200000f8 <LocalTime>
    18de:	200047b7          	lui	a5,0x20004
    18e2:	17478793          	addi	a5,a5,372 # 20004174 <SelARP>
    18e6:	a388                	sb	a0,0(a5)
    18e8:	00079123          	sh	zero,2(a5)
    18ec:	00079223          	sh	zero,4(a5)
    18f0:	c798                	sw	a4,8(a5)
    18f2:	000780a3          	sb	zero,1(a5)
    18f6:	8082                	ret

000018f8 <SelIPARPSend>:
    18f8:	879fe2ef          	jal	t0,170 <__riscv_save_0>
    18fc:	200044b7          	lui	s1,0x20004
    1900:	26848413          	addi	s0,s1,616 # 20004268 <WCHNetIf>
    1904:	405c                	lw	a5,4(s0)
    1906:	1141                	addi	sp,sp,-16
    1908:	006c                	addi	a1,sp,12
    190a:	26848513          	addi	a0,s1,616
    190e:	c63e                	sw	a5,12(sp)
    1910:	00042223          	sw	zero,4(s0)
    1914:	66d000ef          	jal	ra,2780 <etharp_request>
    1918:	47b2                	lw	a5,12(sp)
    191a:	006c                	addi	a1,sp,12
    191c:	26848513          	addi	a0,s1,616
    1920:	c05c                	sw	a5,4(s0)
    1922:	445c                	lw	a5,12(s0)
    1924:	c63e                	sw	a5,12(sp)
    1926:	65b000ef          	jal	ra,2780 <etharp_request>
    192a:	0141                	addi	sp,sp,16
    192c:	869fe06f          	j	194 <__riscv_restore_0>

00001930 <IPCheckTmr>:
    1930:	200047b7          	lui	a5,0x20004
    1934:	17478793          	addi	a5,a5,372 # 20004174 <SelARP>
    1938:	2398                	lbu	a4,0(a5)
    193a:	e319                	bnez	a4,1940 <IPCheckTmr+0x10>
    193c:	c788                	sw	a0,8(a5)
    193e:	8082                	ret
    1940:	4798                	lw	a4,8(a5)
    1942:	3e700693          	li	a3,999
    1946:	40e50733          	sub	a4,a0,a4
    194a:	02e6f163          	bgeu	a3,a4,196c <IPCheckTmr+0x3c>
    194e:	823fe2ef          	jal	t0,170 <__riscv_save_0>
    1952:	23ba                	lhu	a4,2(a5)
    1954:	c788                	sw	a0,8(a5)
    1956:	4691                	li	a3,4
    1958:	00e6f663          	bgeu	a3,a4,1964 <IPCheckTmr+0x34>
    195c:	4501                	li	a0,0
    195e:	3fb5                	jal	18da <IPCheckParaInit>
    1960:	835fe06f          	j	194 <__riscv_restore_0>
    1964:	0705                	addi	a4,a4,1
    1966:	a3ba                	sh	a4,2(a5)
    1968:	3f41                	jal	18f8 <SelIPARPSend>
    196a:	bfdd                	j	1960 <IPCheckTmr+0x30>
    196c:	8082                	ret

0000196e <IPConflictHandle>:
    196e:	803fe2ef          	jal	t0,170 <__riscv_save_0>
    1972:	842a                	mv	s0,a0
    1974:	4501                	li	a0,0
    1976:	3795                	jal	18da <IPCheckParaInit>
    1978:	200047b7          	lui	a5,0x20004
    197c:	17478793          	addi	a5,a5,372 # 20004174 <SelARP>
    1980:	c811                	beqz	s0,1994 <IPConflictHandle+0x26>
    1982:	4705                	li	a4,1
    1984:	b398                	sb	a4,1(a5)
    1986:	200047b7          	lui	a5,0x20004
    198a:	4709                	li	a4,2
    198c:	22e7a223          	sw	a4,548(a5) # 20004224 <NetInf+0x2c>
    1990:	805fe06f          	j	194 <__riscv_restore_0>
    1994:	000780a3          	sb	zero,1(a5)
    1998:	bfe5                	j	1990 <IPConflictHandle+0x22>

0000199a <NET_TCPError>:
    199a:	8082                	ret

0000199c <SocketIPRAWReceive>:
    199c:	facfe2ef          	jal	t0,148 <__riscv_save_10>
    19a0:	425c                	lw	a5,4(a2)
    19a2:	00852a03          	lw	s4,8(a0)
    19a6:	00c52903          	lw	s2,12(a0)
    19aa:	4900                	lw	s0,16(a0)
    19ac:	84aa                	mv	s1,a0
    19ae:	2388                	lbu	a0,0(a5)
    19b0:	339c                	lbu	a5,1(a5)
    19b2:	89b2                	mv	s3,a2
    19b4:	07a2                	slli	a5,a5,0x8
    19b6:	8d5d                	or	a0,a0,a5
    19b8:	2dc010ef          	jal	ra,2c94 <ntohs>
    19bc:	00655593          	srli	a1,a0,0x6
    19c0:	03c5f593          	andi	a1,a1,60
    19c4:	40b005b3          	neg	a1,a1
    19c8:	854e                	mv	a0,s3
    19ca:	636020ef          	jal	ra,4000 <pbuf_header>
    19ce:	e549                	bnez	a0,1a58 <SocketIPRAWReceive+0xbc>
    19d0:	44dc                	lw	a5,12(s1)
    19d2:	4c98                	lw	a4,24(s1)
    19d4:	0089db03          	lhu	s6,8(s3)
    19d8:	8f99                	sub	a5,a5,a4
    19da:	0167f863          	bgeu	a5,s6,19ea <SocketIPRAWReceive+0x4e>
    19de:	854e                	mv	a0,s3
    19e0:	68e020ef          	jal	ra,406e <pbuf_free>
    19e4:	4505                	li	a0,1
    19e6:	f9afe06f          	j	180 <__riscv_restore_10>
    19ea:	9a4a                	add	s4,s4,s2
    19ec:	894e                	mv	s2,s3
    19ee:	00a95603          	lhu	a2,10(s2)
    19f2:	408a0ab3          	sub	s5,s4,s0
    19f6:	00492b83          	lw	s7,4(s2)
    19fa:	04caf463          	bgeu	s5,a2,1a42 <SocketIPRAWReceive+0xa6>
    19fe:	8656                	mv	a2,s5
    1a00:	85de                	mv	a1,s7
    1a02:	8522                	mv	a0,s0
    1a04:	62d050ef          	jal	ra,7830 <memcpy>
    1a08:	00a95783          	lhu	a5,10(s2)
    1a0c:	4498                	lw	a4,8(s1)
    1a0e:	41440433          	sub	s0,s0,s4
    1a12:	943e                	add	s0,s0,a5
    1a14:	8622                	mv	a2,s0
    1a16:	015b85b3          	add	a1,s7,s5
    1a1a:	853a                	mv	a0,a4
    1a1c:	615050ef          	jal	ra,7830 <memcpy>
    1a20:	942a                	add	s0,s0,a0
    1a22:	00092903          	lw	s2,0(s2)
    1a26:	fc0914e3          	bnez	s2,19ee <SocketIPRAWReceive+0x52>
    1a2a:	854e                	mv	a0,s3
    1a2c:	642020ef          	jal	ra,406e <pbuf_free>
    1a30:	4c9c                	lw	a5,24(s1)
    1a32:	c880                	sw	s0,16(s1)
    1a34:	97da                	add	a5,a5,s6
    1a36:	cc9c                	sw	a5,24(s1)
    1a38:	409c                	lw	a5,0(s1)
    1a3a:	0047e793          	ori	a5,a5,4
    1a3e:	c09c                	sw	a5,0(s1)
    1a40:	b755                	j	19e4 <SocketIPRAWReceive+0x48>
    1a42:	8522                	mv	a0,s0
    1a44:	85de                	mv	a1,s7
    1a46:	5eb050ef          	jal	ra,7830 <memcpy>
    1a4a:	00a95783          	lhu	a5,10(s2)
    1a4e:	943e                	add	s0,s0,a5
    1a50:	fd5799e3          	bne	a5,s5,1a22 <SocketIPRAWReceive+0x86>
    1a54:	4480                	lw	s0,8(s1)
    1a56:	b7f1                	j	1a22 <SocketIPRAWReceive+0x86>
    1a58:	4501                	li	a0,0
    1a5a:	b771                	j	19e6 <SocketIPRAWReceive+0x4a>

00001a5c <SocketUdpReceive>:
    1a5c:	ca71                	beqz	a2,1b30 <SocketUdpReceive+0xd4>
    1a5e:	eeafe2ef          	jal	t0,148 <__riscv_save_10>
    1a62:	00c52b83          	lw	s7,12(a0)
    1a66:	4d1c                	lw	a5,24(a0)
    1a68:	00865b03          	lhu	s6,8(a2)
    1a6c:	8aba                	mv	s5,a4
    1a6e:	40fb87b3          	sub	a5,s7,a5
    1a72:	8a36                	mv	s4,a3
    1a74:	8932                	mv	s2,a2
    1a76:	842a                	mv	s0,a0
    1a78:	0167f763          	bgeu	a5,s6,1a86 <SocketUdpReceive+0x2a>
    1a7c:	8532                	mv	a0,a2
    1a7e:	5f0020ef          	jal	ra,406e <pbuf_free>
    1a82:	efefe06f          	j	180 <__riscv_restore_10>
    1a86:	451c                	lw	a5,8(a0)
    1a88:	4904                	lw	s1,16(a0)
    1a8a:	89b2                	mv	s3,a2
    1a8c:	9bbe                	add	s7,s7,a5
    1a8e:	00a9d603          	lhu	a2,10(s3)
    1a92:	409b8c33          	sub	s8,s7,s1
    1a96:	0049ac83          	lw	s9,4(s3)
    1a9a:	06cc7763          	bgeu	s8,a2,1b08 <SocketUdpReceive+0xac>
    1a9e:	8662                	mv	a2,s8
    1aa0:	85e6                	mv	a1,s9
    1aa2:	8526                	mv	a0,s1
    1aa4:	58d050ef          	jal	ra,7830 <memcpy>
    1aa8:	00a9d783          	lhu	a5,10(s3)
    1aac:	4418                	lw	a4,8(s0)
    1aae:	417484b3          	sub	s1,s1,s7
    1ab2:	94be                	add	s1,s1,a5
    1ab4:	8626                	mv	a2,s1
    1ab6:	018c85b3          	add	a1,s9,s8
    1aba:	853a                	mv	a0,a4
    1abc:	575050ef          	jal	ra,7830 <memcpy>
    1ac0:	94aa                	add	s1,s1,a0
    1ac2:	0009a983          	lw	s3,0(s3)
    1ac6:	fc0994e3          	bnez	s3,1a8e <SocketUdpReceive+0x32>
    1aca:	854a                	mv	a0,s2
    1acc:	5a2020ef          	jal	ra,406e <pbuf_free>
    1ad0:	03842803          	lw	a6,56(s0)
    1ad4:	04080563          	beqz	a6,1b1e <SocketUdpReceive+0xc2>
    1ad8:	001a4583          	lbu	a1,1(s4)
    1adc:	000a4783          	lbu	a5,0(s4)
    1ae0:	4814                	lw	a3,16(s0)
    1ae2:	05a2                	slli	a1,a1,0x8
    1ae4:	8ddd                	or	a1,a1,a5
    1ae6:	002a4783          	lbu	a5,2(s4)
    1aea:	875a                	mv	a4,s6
    1aec:	8656                	mv	a2,s5
    1aee:	07c2                	slli	a5,a5,0x10
    1af0:	8fcd                	or	a5,a5,a1
    1af2:	003a4583          	lbu	a1,3(s4)
    1af6:	8522                	mv	a0,s0
    1af8:	05e2                	slli	a1,a1,0x18
    1afa:	8ddd                	or	a1,a1,a5
    1afc:	9802                	jalr	a6
    1afe:	441c                	lw	a5,8(s0)
    1b00:	00042c23          	sw	zero,24(s0)
    1b04:	c81c                	sw	a5,16(s0)
    1b06:	bfb5                	j	1a82 <SocketUdpReceive+0x26>
    1b08:	8526                	mv	a0,s1
    1b0a:	85e6                	mv	a1,s9
    1b0c:	525050ef          	jal	ra,7830 <memcpy>
    1b10:	00a9d783          	lhu	a5,10(s3)
    1b14:	94be                	add	s1,s1,a5
    1b16:	fb8796e3          	bne	a5,s8,1ac2 <SocketUdpReceive+0x66>
    1b1a:	4404                	lw	s1,8(s0)
    1b1c:	b75d                	j	1ac2 <SocketUdpReceive+0x66>
    1b1e:	4c18                	lw	a4,24(s0)
    1b20:	401c                	lw	a5,0(s0)
    1b22:	c804                	sw	s1,16(s0)
    1b24:	975a                	add	a4,a4,s6
    1b26:	0047e793          	ori	a5,a5,4
    1b2a:	cc18                	sw	a4,24(s0)
    1b2c:	c01c                	sw	a5,0(s0)
    1b2e:	bf91                	j	1a82 <SocketUdpReceive+0x26>
    1b30:	8082                	ret

00001b32 <ErrorEncode>:
    1b32:	c919                	beqz	a0,1b48 <ErrorEncode+0x16>
    1b34:	40a00533          	neg	a0,a0
    1b38:	67a5                	lui	a5,0x9
    1b3a:	d7878793          	addi	a5,a5,-648 # 8d78 <ErrTable>
    1b3e:	0ff57513          	andi	a0,a0,255
    1b42:	953e                	add	a0,a0,a5
    1b44:	2108                	lbu	a0,0(a0)
    1b46:	8082                	ret
    1b48:	4501                	li	a0,0
    1b4a:	8082                	ret

00001b4c <WCHSocketInit>:
    1b4c:	e24fe2ef          	jal	t0,170 <__riscv_save_0>
    1b50:	03c00793          	li	a5,60
    1b54:	02f587b3          	mul	a5,a1,a5
    1b58:	20004437          	lui	s0,0x20004
    1b5c:	13840713          	addi	a4,s0,312 # 20004138 <SocketInf>
    1b60:	892a                	mv	s2,a0
    1b62:	84ae                	mv	s1,a1
    1b64:	03c00613          	li	a2,60
    1b68:	4581                	li	a1,0
    1b6a:	13840413          	addi	s0,s0,312
    1b6e:	97ba                	add	a5,a5,a4
    1b70:	853e                	mv	a0,a5
    1b72:	e2efe0ef          	jal	ra,1a0 <memset>
    1b76:	00090763          	beqz	s2,1b84 <WCHSocketInit+0x38>
    1b7a:	03c00613          	li	a2,60
    1b7e:	85ca                	mv	a1,s2
    1b80:	4b1050ef          	jal	ra,7830 <memcpy>
    1b84:	03c00593          	li	a1,60
    1b88:	02b485b3          	mul	a1,s1,a1
    1b8c:	95a2                	add	a1,a1,s0
    1b8e:	459c                	lw	a5,8(a1)
    1b90:	c99c                	sw	a5,16(a1)
    1b92:	c9dc                	sw	a5,20(a1)
    1b94:	e00fe06f          	j	194 <__riscv_restore_0>

00001b98 <WCHNET_Init>:
    1b98:	dbefe2ef          	jal	t0,156 <__riscv_save_4>
    1b9c:	8a2a                	mv	s4,a0
    1b9e:	20004537          	lui	a0,0x20004
    1ba2:	1141                	addi	sp,sp,-16
    1ba4:	89ae                	mv	s3,a1
    1ba6:	84b2                	mv	s1,a2
    1ba8:	4581                	li	a1,0
    1baa:	4661                	li	a2,24
    1bac:	18050513          	addi	a0,a0,384 # 20004180 <DHCPCtrl>
    1bb0:	c636                	sw	a3,12(sp)
    1bb2:	deefe0ef          	jal	ra,1a0 <memset>
    1bb6:	46b2                	lw	a3,12(sp)
    1bb8:	20004437          	lui	s0,0x20004
    1bbc:	1f840913          	addi	s2,s0,504 # 200041f8 <NetInf>
    1bc0:	85b6                	mv	a1,a3
    1bc2:	4619                	li	a2,6
    1bc4:	00c90513          	addi	a0,s2,12
    1bc8:	469050ef          	jal	ra,7830 <memcpy>
    1bcc:	4611                	li	a2,4
    1bce:	85d2                	mv	a1,s4
    1bd0:	1f840513          	addi	a0,s0,504
    1bd4:	45d050ef          	jal	ra,7830 <memcpy>
    1bd8:	4611                	li	a2,4
    1bda:	85ce                	mv	a1,s3
    1bdc:	00490513          	addi	a0,s2,4
    1be0:	451050ef          	jal	ra,7830 <memcpy>
    1be4:	1f840413          	addi	s0,s0,504
    1be8:	e0a1                	bnez	s1,1c28 <WCHNET_Init+0x90>
    1bea:	010007b7          	lui	a5,0x1000
    1bee:	17fd                	addi	a5,a5,-1
    1bf0:	c41c                	sw	a5,8(s0)
    1bf2:	4481                	li	s1,0
    1bf4:	8c81c783          	lbu	a5,-1848(gp) # 20000138 <SockNumber>
    1bf8:	02f4cf63          	blt	s1,a5,1c36 <WCHNET_Init+0x9e>
    1bfc:	014010ef          	jal	ra,2c10 <wch_ethernetif_init>
    1c00:	4785                	li	a5,1
    1c02:	d05c                	sw	a5,36(s0)
    1c04:	6715                	lui	a4,0x5
    1c06:	200047b7          	lui	a5,0x20004
    1c0a:	1ec78793          	addi	a5,a5,492 # 200041ec <KeepLiveCfg>
    1c0e:	e2070713          	addi	a4,a4,-480 # 4e20 <RemoveTimeWaiTCP+0x22>
    1c12:	c398                	sw	a4,0(a5)
    1c14:	6711                	lui	a4,0x4
    1c16:	a9870713          	addi	a4,a4,-1384 # 3a98 <dhcp_arp_reply+0x62>
    1c1a:	c3d8                	sw	a4,4(a5)
    1c1c:	4725                	li	a4,9
    1c1e:	c798                	sw	a4,8(a5)
    1c20:	4501                	li	a0,0
    1c22:	0141                	addi	sp,sp,16
    1c24:	d66fe06f          	j	18a <__riscv_restore_4>
    1c28:	4611                	li	a2,4
    1c2a:	85a6                	mv	a1,s1
    1c2c:	00840513          	addi	a0,s0,8
    1c30:	401050ef          	jal	ra,7830 <memcpy>
    1c34:	bf7d                	j	1bf2 <WCHNET_Init+0x5a>
    1c36:	0ff4f593          	andi	a1,s1,255
    1c3a:	4501                	li	a0,0
    1c3c:	3f01                	jal	1b4c <WCHSocketInit>
    1c3e:	0485                	addi	s1,s1,1
    1c40:	bf55                	j	1bf4 <WCHNET_Init+0x5c>

00001c42 <WCHNET_ConfigLIB>:
    1c42:	5518                	lw	a4,40(a0)
    1c44:	123457b7          	lui	a5,0x12345
    1c48:	67878793          	addi	a5,a5,1656 # 12345678 <_data_lma+0x1233c804>
    1c4c:	12f71063          	bne	a4,a5,1d6c <WCHNET_ConfigLIB+0x12a>
    1c50:	d06fe2ef          	jal	t0,156 <__riscv_save_4>
    1c54:	511c                	lw	a5,32(a0)
    1c56:	842a                	mv	s0,a0
    1c58:	4525                	li	a0,9
    1c5a:	10078163          	beqz	a5,1d5c <WCHNET_ConfigLIB+0x11a>
    1c5e:	20004937          	lui	s2,0x20004
    1c62:	04400613          	li	a2,68
    1c66:	4581                	li	a1,0
    1c68:	1f890513          	addi	a0,s2,504 # 200041f8 <NetInf>
    1c6c:	d34fe0ef          	jal	ra,1a0 <memset>
    1c70:	200044b7          	lui	s1,0x20004
    1c74:	02c00613          	li	a2,44
    1c78:	4581                	li	a1,0
    1c7a:	23c48513          	addi	a0,s1,572 # 2000423c <WCHCfg>
    1c7e:	d22fe0ef          	jal	ra,1a0 <memset>
    1c82:	02c00613          	li	a2,44
    1c86:	85a2                	mv	a1,s0
    1c88:	23c48513          	addi	a0,s1,572
    1c8c:	3a5050ef          	jal	ra,7830 <memcpy>
    1c90:	23c48993          	addi	s3,s1,572
    1c94:	0149a703          	lw	a4,20(s3)
    1c98:	864a                	mv	a2,s2
    1c9a:	23c48793          	addi	a5,s1,572
    1c9e:	eb25                	bnez	a4,1d0e <WCHNET_ConfigLIB+0xcc>
    1ca0:	66a5                	lui	a3,0x9
    1ca2:	d586d703          	lhu	a4,-680(a3) # 8d58 <MemNum>
    1ca6:	d5868693          	addi	a3,a3,-680
    1caa:	22ae                	lhu	a1,2(a3)
    1cac:	972e                	add	a4,a4,a1
    1cae:	22ce                	lhu	a1,4(a3)
    1cb0:	22f6                	lhu	a3,6(a3)
    1cb2:	972e                	add	a4,a4,a1
    1cb4:	9736                	add	a4,a4,a3
    1cb6:	01271693          	slli	a3,a4,0x12
    1cba:	0a06d363          	bgez	a3,1d60 <WCHNET_ConfigLIB+0x11e>
    1cbe:	cbd8                	sw	a4,20(a5)
    1cc0:	4bd8                	lw	a4,20(a5)
    1cc2:	00e75693          	srli	a3,a4,0xe
    1cc6:	8afd                	andi	a3,a3,31
    1cc8:	ea89                	bnez	a3,1cda <WCHNET_ConfigLIB+0x98>
    1cca:	fff846b7          	lui	a3,0xfff84
    1cce:	16fd                	addi	a3,a3,-1
    1cd0:	8f75                	and	a4,a4,a3
    1cd2:	000506b7          	lui	a3,0x50
    1cd6:	8f55                	or	a4,a4,a3
    1cd8:	cbd8                	sw	a4,20(a5)
    1cda:	4bd8                	lw	a4,20(a5)
    1cdc:	01375693          	srli	a3,a4,0x13
    1ce0:	8afd                	andi	a3,a3,31
    1ce2:	ea89                	bnez	a3,1cf4 <WCHNET_ConfigLIB+0xb2>
    1ce4:	fff846b7          	lui	a3,0xfff84
    1ce8:	16fd                	addi	a3,a3,-1
    1cea:	8f75                	and	a4,a4,a3
    1cec:	005006b7          	lui	a3,0x500
    1cf0:	8f55                	or	a4,a4,a3
    1cf2:	cbd8                	sw	a4,20(a5)
    1cf4:	4bd8                	lw	a4,20(a5)
    1cf6:	00671693          	slli	a3,a4,0x6
    1cfa:	0006ca63          	bltz	a3,1d0e <WCHNET_ConfigLIB+0xcc>
    1cfe:	fe0006b7          	lui	a3,0xfe000
    1d02:	16fd                	addi	a3,a3,-1
    1d04:	8f75                	and	a4,a4,a3
    1d06:	140006b7          	lui	a3,0x14000
    1d0a:	8f55                	or	a4,a4,a3
    1d0c:	cbd8                	sw	a4,20(a5)
    1d0e:	4bd8                	lw	a4,20(a5)
    1d10:	01b75693          	srli	a3,a4,0x1b
    1d14:	e689                	bnez	a3,1d1e <WCHNET_ConfigLIB+0xdc>
    1d16:	400006b7          	lui	a3,0x40000
    1d1a:	8f55                	or	a4,a4,a3
    1d1c:	cbd8                	sw	a4,20(a5)
    1d1e:	53d8                	lw	a4,36(a5)
    1d20:	e711                	bnez	a4,1d2c <WCHNET_ConfigLIB+0xea>
    1d22:	00001737          	lui	a4,0x1
    1d26:	78870713          	addi	a4,a4,1928 # 1788 <WCHNET_Rx>
    1d2a:	d3d8                	sw	a4,36(a5)
    1d2c:	4bd4                	lw	a3,20(a5)
    1d2e:	4501                	li	a0,0
    1d30:	00e6d713          	srli	a4,a3,0xe
    1d34:	8b7d                	andi	a4,a4,31
    1d36:	8cd18423          	sb	a3,-1848(gp) # 20000138 <SockNumber>
    1d3a:	1f860793          	addi	a5,a2,504
    1d3e:	cf98                	sw	a4,24(a5)
    1d40:	0136d713          	srli	a4,a3,0x13
    1d44:	8b7d                	andi	a4,a4,31
    1d46:	03200613          	li	a2,50
    1d4a:	02c70733          	mul	a4,a4,a2
    1d4e:	cfd8                	sw	a4,28(a5)
    1d50:	00669713          	slli	a4,a3,0x6
    1d54:	00075463          	bgez	a4,1d5c <WCHNET_ConfigLIB+0x11a>
    1d58:	4709                	li	a4,2
    1d5a:	c3b8                	sw	a4,64(a5)
    1d5c:	c2efe06f          	j	18a <__riscv_restore_4>
    1d60:	76f9                	lui	a3,0xffffe
    1d62:	16fd                	addi	a3,a3,-1
    1d64:	8f75                	and	a4,a4,a3
    1d66:	6689                	lui	a3,0x2
    1d68:	8f55                	or	a4,a4,a3
    1d6a:	bf91                	j	1cbe <WCHNET_ConfigLIB+0x7c>
    1d6c:	0ff00513          	li	a0,255
    1d70:	8082                	ret

00001d72 <WCHNET_GetVer>:
    1d72:	4569                	li	a0,26
    1d74:	8082                	ret

00001d76 <WCHFindCorrectTCBPcb>:
    1d76:	8c81c603          	lbu	a2,-1848(gp) # 20000138 <SockNumber>
    1d7a:	200047b7          	lui	a5,0x20004
    1d7e:	13878693          	addi	a3,a5,312 # 20004138 <SocketInf>
    1d82:	4701                	li	a4,0
    1d84:	13878793          	addi	a5,a5,312
    1d88:	00e61763          	bne	a2,a4,1d96 <WCHFindCorrectTCBPcb+0x20>
    1d8c:	4781                	li	a5,0
    1d8e:	02f71363          	bne	a4,a5,1db4 <WCHFindCorrectTCBPcb+0x3e>
    1d92:	4501                	li	a0,0
    1d94:	8082                	ret
    1d96:	0307a803          	lw	a6,48(a5)
    1d9a:	00a81763          	bne	a6,a0,1da8 <WCHFindCorrectTCBPcb+0x32>
    1d9e:	c509                	beqz	a0,1da8 <WCHFindCorrectTCBPcb+0x32>
    1da0:	4505                	li	a0,1
    1da2:	d9ed                	beqz	a1,1d94 <WCHFindCorrectTCBPcb+0x1e>
    1da4:	a198                	sb	a4,0(a1)
    1da6:	8082                	ret
    1da8:	0705                	addi	a4,a4,1
    1daa:	0ff77713          	andi	a4,a4,255
    1dae:	03c78793          	addi	a5,a5,60
    1db2:	bfd9                	j	1d88 <WCHFindCorrectTCBPcb+0x12>
    1db4:	5ad0                	lw	a2,52(a3)
    1db6:	00a61963          	bne	a2,a0,1dc8 <WCHFindCorrectTCBPcb+0x52>
    1dba:	c519                	beqz	a0,1dc8 <WCHFindCorrectTCBPcb+0x52>
    1dbc:	4505                	li	a0,1
    1dbe:	d9f9                	beqz	a1,1d94 <WCHFindCorrectTCBPcb+0x1e>
    1dc0:	f807e793          	ori	a5,a5,-128
    1dc4:	a19c                	sb	a5,0(a1)
    1dc6:	8082                	ret
    1dc8:	0785                	addi	a5,a5,1
    1dca:	0ff7f793          	andi	a5,a5,255
    1dce:	03c68693          	addi	a3,a3,60 # 203c <WCHNET_SocketRecv+0x4c>
    1dd2:	bf75                	j	1d8e <WCHFindCorrectTCBPcb+0x18>

00001dd4 <WCHNET_SocketCreat>:
    1dd4:	b82fe2ef          	jal	t0,156 <__riscv_save_4>
    1dd8:	20004937          	lui	s2,0x20004
    1ddc:	00050023          	sb	zero,0(a0)
    1de0:	8c81c703          	lbu	a4,-1848(gp) # 20000138 <SockNumber>
    1de4:	1141                	addi	sp,sp,-16
    1de6:	13890793          	addi	a5,s2,312 # 20004138 <SocketInf>
    1dea:	4481                	li	s1,0
    1dec:	13890913          	addi	s2,s2,312
    1df0:	00971763          	bne	a4,s1,1dfe <WCHNET_SocketCreat+0x2a>
    1df4:	02000513          	li	a0,32
    1df8:	0141                	addi	sp,sp,16
    1dfa:	b90fe06f          	j	18a <__riscv_restore_4>
    1dfe:	03c78793          	addi	a5,a5,60
    1e02:	fe47a683          	lw	a3,-28(a5)
    1e06:	18068163          	beqz	a3,1f88 <WCHNET_SocketCreat+0x1b4>
    1e0a:	0485                	addi	s1,s1,1
    1e0c:	0ff4f493          	andi	s1,s1,255
    1e10:	b7c5                	j	1df0 <WCHNET_SocketCreat+0x1c>
    1e12:	200047b7          	lui	a5,0x20004
    1e16:	1f87a783          	lw	a5,504(a5) # 200041f8 <NetInf>
    1e1a:	006c                	addi	a1,sp,12
    1e1c:	c63e                	sw	a5,12(sp)
    1e1e:	586020ef          	jal	ra,43a4 <raw_bind>
    1e22:	4611                	li	a2,4
    1e24:	02c40593          	addi	a1,s0,44
    1e28:	0068                	addi	a0,sp,12
    1e2a:	207050ef          	jal	ra,7830 <memcpy>
    1e2e:	006c                	addi	a1,sp,12
    1e30:	854e                	mv	a0,s3
    1e32:	590020ef          	jal	ra,43c2 <raw_connect>
    1e36:	03c00613          	li	a2,60
    1e3a:	02c48633          	mul	a2,s1,a2
    1e3e:	000025b7          	lui	a1,0x2
    1e42:	99c58593          	addi	a1,a1,-1636 # 199c <SocketIPRAWReceive>
    1e46:	854e                	mv	a0,s3
    1e48:	964a                	add	a2,a2,s2
    1e4a:	596020ef          	jal	ra,43e0 <raw_recv>
    1e4e:	4795                	li	a5,5
    1e50:	20004537          	lui	a0,0x20004
    1e54:	006c                	addi	a1,sp,12
    1e56:	03342823          	sw	s3,48(s0)
    1e5a:	d01c                	sw	a5,32(s0)
    1e5c:	26850513          	addi	a0,a0,616 # 20004268 <WCHNetIf>
    1e60:	121000ef          	jal	ra,2780 <etharp_request>
    1e64:	85a6                	mv	a1,s1
    1e66:	8522                	mv	a0,s0
    1e68:	ce5ff0ef          	jal	ra,1b4c <WCHSocketInit>
    1e6c:	4501                	li	a0,0
    1e6e:	b769                	j	1df8 <WCHNET_SocketCreat+0x24>
    1e70:	4709                	li	a4,2
    1e72:	0ae79063          	bne	a5,a4,1f12 <WCHNET_SocketCreat+0x13e>
    1e76:	4a4050ef          	jal	ra,731a <udp_new>
    1e7a:	89aa                	mv	s3,a0
    1e7c:	12050363          	beqz	a0,1fa2 <WCHNET_SocketCreat+0x1ce>
    1e80:	02c40a93          	addi	s5,s0,44
    1e84:	4611                	li	a2,4
    1e86:	85d6                	mv	a1,s5
    1e88:	0068                	addi	a0,sp,12
    1e8a:	1a7050ef          	jal	ra,7830 <memcpy>
    1e8e:	4a32                	lw	s4,12(sp)
    1e90:	f0000537          	lui	a0,0xf0000
    1e94:	633000ef          	jal	ra,2cc6 <ntohl>
    1e98:	00aa7a33          	and	s4,s4,a0
    1e9c:	e0000537          	lui	a0,0xe0000
    1ea0:	627000ef          	jal	ra,2cc6 <ntohl>
    1ea4:	04aa0063          	beq	s4,a0,1ee4 <WCHNET_SocketCreat+0x110>
    1ea8:	200045b7          	lui	a1,0x20004
    1eac:	26858593          	addi	a1,a1,616 # 20004268 <WCHNetIf>
    1eb0:	0068                	addi	a0,sp,12
    1eb2:	296010ef          	jal	ra,3148 <ip_addr_isbroadcast>
    1eb6:	e51d                	bnez	a0,1ee4 <WCHNET_SocketCreat+0x110>
    1eb8:	200047b7          	lui	a5,0x20004
    1ebc:	1f87a783          	lw	a5,504(a5) # 200041f8 <NetInf>
    1ec0:	3412                	lhu	a2,40(s0)
    1ec2:	006c                	addi	a1,sp,12
    1ec4:	854e                	mv	a0,s3
    1ec6:	c63e                	sw	a5,12(sp)
    1ec8:	230050ef          	jal	ra,70f8 <udp_bind>
    1ecc:	e11d                	bnez	a0,1ef2 <WCHNET_SocketCreat+0x11e>
    1ece:	85d6                	mv	a1,s5
    1ed0:	4611                	li	a2,4
    1ed2:	0068                	addi	a0,sp,12
    1ed4:	15d050ef          	jal	ra,7830 <memcpy>
    1ed8:	3052                	lhu	a2,36(s0)
    1eda:	006c                	addi	a1,sp,12
    1edc:	854e                	mv	a0,s3
    1ede:	3b8050ef          	jal	ra,7296 <udp_connect>
    1ee2:	a039                	j	1ef0 <WCHNET_SocketCreat+0x11c>
    1ee4:	3412                	lhu	a2,40(s0)
    1ee6:	85018593          	addi	a1,gp,-1968 # 200000c0 <ip_addr_any>
    1eea:	854e                	mv	a0,s3
    1eec:	20c050ef          	jal	ra,70f8 <udp_bind>
    1ef0:	c501                	beqz	a0,1ef8 <WCHNET_SocketCreat+0x124>
    1ef2:	c41ff0ef          	jal	ra,1b32 <ErrorEncode>
    1ef6:	b709                	j	1df8 <WCHNET_SocketCreat+0x24>
    1ef8:	03c00613          	li	a2,60
    1efc:	02c48633          	mul	a2,s1,a2
    1f00:	000025b7          	lui	a1,0x2
    1f04:	a5c58593          	addi	a1,a1,-1444 # 1a5c <SocketUdpReceive>
    1f08:	854e                	mv	a0,s3
    1f0a:	964a                	add	a2,a2,s2
    1f0c:	408050ef          	jal	ra,7314 <udp_recv>
    1f10:	bf3d                	j	1e4e <WCHNET_SocketCreat+0x7a>
    1f12:	470d                	li	a4,3
    1f14:	02100513          	li	a0,33
    1f18:	eee790e3          	bne	a5,a4,1df8 <WCHNET_SocketCreat+0x24>
    1f1c:	6a5020ef          	jal	ra,4dc0 <tcp_new>
    1f20:	445c                	lw	a5,12(s0)
    1f22:	3412                	lhu	a2,40(s0)
    1f24:	006c                	addi	a1,sp,12
    1f26:	b95e                	sh	a5,52(a0)
    1f28:	200047b7          	lui	a5,0x20004
    1f2c:	1f87a783          	lw	a5,504(a5) # 200041f8 <NetInf>
    1f30:	89aa                	mv	s3,a0
    1f32:	c63e                	sw	a5,12(sp)
    1f34:	53e020ef          	jal	ra,4472 <tcp_bind>
    1f38:	8a2a                	mv	s4,a0
    1f3a:	c511                	beqz	a0,1f46 <WCHNET_SocketCreat+0x172>
    1f3c:	854e                	mv	a0,s3
    1f3e:	2c3020ef          	jal	ra,4a00 <tcp_close>
    1f42:	8552                	mv	a0,s4
    1f44:	b77d                	j	1ef2 <WCHNET_SocketCreat+0x11e>
    1f46:	03c00593          	li	a1,60
    1f4a:	02b485b3          	mul	a1,s1,a1
    1f4e:	854e                	mv	a0,s3
    1f50:	95ca                	add	a1,a1,s2
    1f52:	72a020ef          	jal	ra,467c <tcp_arg>
    1f56:	000025b7          	lui	a1,0x2
    1f5a:	854e                	mv	a0,s3
    1f5c:	99a58593          	addi	a1,a1,-1638 # 199a <NET_TCPError>
    1f60:	720020ef          	jal	ra,4680 <tcp_err>
    1f64:	4795                	li	a5,5
    1f66:	85a6                	mv	a1,s1
    1f68:	8522                	mv	a0,s0
    1f6a:	03342823          	sw	s3,48(s0)
    1f6e:	03342a23          	sw	s3,52(s0)
    1f72:	d01c                	sw	a5,32(s0)
    1f74:	bd9ff0ef          	jal	ra,1b4c <WCHSocketInit>
    1f78:	20004537          	lui	a0,0x20004
    1f7c:	006c                	addi	a1,sp,12
    1f7e:	26850513          	addi	a0,a0,616 # 20004268 <WCHNetIf>
    1f82:	7fe000ef          	jal	ra,2780 <etharp_request>
    1f86:	b5dd                	j	1e6c <WCHNET_SocketCreat+0x98>
    1f88:	a104                	sb	s1,0(a0)
    1f8a:	4ddc                	lw	a5,28(a1)
    1f8c:	c1c4                	sw	s1,4(a1)
    1f8e:	842e                	mv	s0,a1
    1f90:	ee0790e3          	bnez	a5,1e70 <WCHNET_SocketCreat+0x9c>
    1f94:	02844503          	lbu	a0,40(s0)
    1f98:	44e020ef          	jal	ra,43e6 <raw_new>
    1f9c:	89aa                	mv	s3,a0
    1f9e:	e6051ae3          	bnez	a0,1e12 <WCHNET_SocketCreat+0x3e>
    1fa2:	4545                	li	a0,17
    1fa4:	bd91                	j	1df8 <WCHNET_SocketCreat+0x24>

00001fa6 <tcp_recved_socket>:
    1fa6:	9cafe2ef          	jal	t0,170 <__riscv_save_0>
    1faa:	b54e                	sh	a1,44(a0)
    1fac:	842a                	mv	s0,a0
    1fae:	5da020ef          	jal	ra,4588 <tcp_update_rcv_ann_wnd>
    1fb2:	cd09                	beqz	a0,1fcc <tcp_recved_socket+0x26>
    1fb4:	02644783          	lbu	a5,38(s0)
    1fb8:	8522                	mv	a0,s0
    1fba:	0027e793          	ori	a5,a5,2
    1fbe:	02f40323          	sb	a5,38(s0)
    1fc2:	04b040ef          	jal	ra,680c <tcp_output>
    1fc6:	4505                	li	a0,1
    1fc8:	9ccfe06f          	j	194 <__riscv_restore_0>
    1fcc:	200047b7          	lui	a5,0x20004
    1fd0:	24c7a783          	lw	a5,588(a5) # 2000424c <WCHCfg+0x10>
    1fd4:	83a1                	srli	a5,a5,0x8
    1fd6:	8b85                	andi	a5,a5,1
    1fd8:	d7fd                	beqz	a5,1fc6 <tcp_recved_socket+0x20>
    1fda:	02644783          	lbu	a5,38(s0)
    1fde:	8b85                	andi	a5,a5,1
    1fe0:	d3fd                	beqz	a5,1fc6 <tcp_recved_socket+0x20>
    1fe2:	4789                	li	a5,2
    1fe4:	02f403a3          	sb	a5,39(s0)
    1fe8:	4705                	li	a4,1
    1fea:	8ce1a623          	sw	a4,-1844(gp) # 2000013c <tcpSendAckFlag>
    1fee:	bfe1                	j	1fc6 <tcp_recved_socket+0x20>

00001ff0 <WCHNET_SocketRecv>:
    1ff0:	966fe2ef          	jal	t0,156 <__riscv_save_4>
    1ff4:	4214                	lw	a3,0(a2)
    1ff6:	4469                	li	s0,26
    1ff8:	cec5                	beqz	a3,20b0 <WCHNET_SocketRecv+0xc0>
    1ffa:	00062023          	sw	zero,0(a2)
    1ffe:	8a32                	mv	s4,a2
    2000:	03c00613          	li	a2,60
    2004:	02c50633          	mul	a2,a0,a2
    2008:	200044b7          	lui	s1,0x20004
    200c:	13848713          	addi	a4,s1,312 # 20004138 <SocketInf>
    2010:	89aa                	mv	s3,a0
    2012:	87ae                	mv	a5,a1
    2014:	13848493          	addi	s1,s1,312
    2018:	9732                	add	a4,a4,a2
    201a:	00872b03          	lw	s6,8(a4)
    201e:	4750                	lw	a2,12(a4)
    2020:	01872903          	lw	s2,24(a4)
    2024:	4b40                	lw	s0,20(a4)
    2026:	9b32                	add	s6,s6,a2
    2028:	0126f363          	bgeu	a3,s2,202e <WCHNET_SocketRecv+0x3e>
    202c:	8936                	mv	s2,a3
    202e:	408b0ab3          	sub	s5,s6,s0
    2032:	092af263          	bgeu	s5,s2,20b6 <WCHNET_SocketRecv+0xc6>
    2036:	cb81                	beqz	a5,2046 <WCHNET_SocketRecv+0x56>
    2038:	853e                	mv	a0,a5
    203a:	8656                	mv	a2,s5
    203c:	85a2                	mv	a1,s0
    203e:	7f2050ef          	jal	ra,7830 <memcpy>
    2042:	015507b3          	add	a5,a0,s5
    2046:	03c00713          	li	a4,60
    204a:	02e98733          	mul	a4,s3,a4
    204e:	944a                	add	s0,s0,s2
    2050:	41640433          	sub	s0,s0,s6
    2054:	9726                	add	a4,a4,s1
    2056:	00872a83          	lw	s5,8(a4)
    205a:	c791                	beqz	a5,2066 <WCHNET_SocketRecv+0x76>
    205c:	8622                	mv	a2,s0
    205e:	85d6                	mv	a1,s5
    2060:	853e                	mv	a0,a5
    2062:	7ce050ef          	jal	ra,7830 <memcpy>
    2066:	9456                	add	s0,s0,s5
    2068:	03c00793          	li	a5,60
    206c:	02f987b3          	mul	a5,s3,a5
    2070:	012a2023          	sw	s2,0(s4)
    2074:	97a6                	add	a5,a5,s1
    2076:	4f98                	lw	a4,24(a5)
    2078:	cbc0                	sw	s0,20(a5)
    207a:	41270933          	sub	s2,a4,s2
    207e:	0127ac23          	sw	s2,24(a5)
    2082:	00091863          	bnez	s2,2092 <WCHNET_SocketRecv+0xa2>
    2086:	4798                	lw	a4,8(a5)
    2088:	cbd8                	sw	a4,20(a5)
    208a:	cb98                	sw	a4,16(a5)
    208c:	4398                	lw	a4,0(a5)
    208e:	9b6d                	andi	a4,a4,-5
    2090:	c398                	sw	a4,0(a5)
    2092:	03c00793          	li	a5,60
    2096:	02f989b3          	mul	s3,s3,a5
    209a:	478d                	li	a5,3
    209c:	4401                	li	s0,0
    209e:	94ce                	add	s1,s1,s3
    20a0:	4cd8                	lw	a4,28(s1)
    20a2:	00f71763          	bne	a4,a5,20b0 <WCHNET_SocketRecv+0xc0>
    20a6:	00091563          	bnez	s2,20b0 <WCHNET_SocketRecv+0xc0>
    20aa:	24ce                	lhu	a1,12(s1)
    20ac:	5888                	lw	a0,48(s1)
    20ae:	3de5                	jal	1fa6 <tcp_recved_socket>
    20b0:	8522                	mv	a0,s0
    20b2:	8d8fe06f          	j	18a <__riscv_restore_4>
    20b6:	c791                	beqz	a5,20c2 <WCHNET_SocketRecv+0xd2>
    20b8:	864a                	mv	a2,s2
    20ba:	85a2                	mv	a1,s0
    20bc:	853e                	mv	a0,a5
    20be:	772050ef          	jal	ra,7830 <memcpy>
    20c2:	944a                	add	s0,s0,s2
    20c4:	fb2a92e3          	bne	s5,s2,2068 <WCHNET_SocketRecv+0x78>
    20c8:	03c00793          	li	a5,60
    20cc:	02f987b3          	mul	a5,s3,a5
    20d0:	97a6                	add	a5,a5,s1
    20d2:	4780                	lw	s0,8(a5)
    20d4:	bf51                	j	2068 <WCHNET_SocketRecv+0x78>

000020d6 <WCHNET_SocketUdpSendTo>:
    20d6:	86afe2ef          	jal	t0,140 <__riscv_save_12>
    20da:	4200                	lw	s0,0(a2)
    20dc:	00062023          	sw	zero,0(a2)
    20e0:	c855                	beqz	s0,2194 <WCHNET_SocketUdpSendTo+0xbe>
    20e2:	87aa                	mv	a5,a0
    20e4:	4569                	li	a0,26
    20e6:	c9d9                	beqz	a1,217c <WCHNET_SocketUdpSendTo+0xa6>
    20e8:	03c00513          	li	a0,60
    20ec:	02a787b3          	mul	a5,a5,a0
    20f0:	20004537          	lui	a0,0x20004
    20f4:	13850513          	addi	a0,a0,312 # 20004138 <SocketInf>
    20f8:	20004a37          	lui	s4,0x20004
    20fc:	4481                	li	s1,0
    20fe:	97aa                	add	a5,a5,a0
    2100:	0307ab03          	lw	s6,48(a5)
    2104:	1f8a0793          	addi	a5,s4,504 # 200041f8 <NetInf>
    2108:	43bc                	lw	a5,64(a5)
    210a:	1f8a0a13          	addi	s4,s4,504
    210e:	8b89                	andi	a5,a5,2
    2110:	e399                	bnez	a5,2116 <WCHNET_SocketUdpSendTo+0x40>
    2112:	0c700493          	li	s1,199
    2116:	5c000793          	li	a5,1472
    211a:	0087f463          	bgeu	a5,s0,2122 <WCHNET_SocketUdpSendTo+0x4c>
    211e:	5c000413          	li	s0,1472
    2122:	01041d93          	slli	s11,s0,0x10
    2126:	8cba                	mv	s9,a4
    2128:	8c36                	mv	s8,a3
    212a:	89b2                	mv	s3,a2
    212c:	8bae                	mv	s7,a1
    212e:	010ddd93          	srli	s11,s11,0x10
    2132:	0c800d13          	li	s10,200
    2136:	4601                	li	a2,0
    2138:	85ee                	mv	a1,s11
    213a:	4501                	li	a0,0
    213c:	781010ef          	jal	ra,40bc <pbuf_alloc>
    2140:	892a                	mv	s2,a0
    2142:	c939                	beqz	a0,2198 <WCHNET_SocketUdpSendTo+0xc2>
    2144:	4148                	lw	a0,4(a0)
    2146:	8622                	mv	a2,s0
    2148:	85de                	mv	a1,s7
    214a:	020a2e23          	sw	zero,60(s4)
    214e:	6e2050ef          	jal	ra,7830 <memcpy>
    2152:	86e6                	mv	a3,s9
    2154:	8662                	mv	a2,s8
    2156:	85ca                	mv	a1,s2
    2158:	855a                	mv	a0,s6
    215a:	10e050ef          	jal	ra,7268 <udp_sendto>
    215e:	8aaa                	mv	s5,a0
    2160:	854a                	mv	a0,s2
    2162:	70d010ef          	jal	ra,406e <pbuf_free>
    2166:	03ca2783          	lw	a5,60(s4)
    216a:	cb99                	beqz	a5,2180 <WCHNET_SocketUdpSendTo+0xaa>
    216c:	0485                	addi	s1,s1,1
    216e:	04c2                	slli	s1,s1,0x10
    2170:	80c1                	srli	s1,s1,0x10
    2172:	db4ff0ef          	jal	ra,1726 <WCHNET_NetInput>
    2176:	fda490e3          	bne	s1,s10,2136 <WCHNET_SocketUdpSendTo+0x60>
    217a:	454d                	li	a0,19
    217c:	800fe06f          	j	17c <__riscv_restore_12>
    2180:	000ad663          	bgez	s5,218c <WCHNET_SocketUdpSendTo+0xb6>
    2184:	8556                	mv	a0,s5
    2186:	9adff0ef          	jal	ra,1b32 <ErrorEncode>
    218a:	bfcd                	j	217c <WCHNET_SocketUdpSendTo+0xa6>
    218c:	0089a023          	sw	s0,0(s3)
    2190:	4501                	li	a0,0
    2192:	b7ed                	j	217c <WCHNET_SocketUdpSendTo+0xa6>
    2194:	4569                	li	a0,26
    2196:	b7dd                	j	217c <WCHNET_SocketUdpSendTo+0xa6>
    2198:	4545                	li	a0,17
    219a:	b7cd                	j	217c <WCHNET_SocketUdpSendTo+0xa6>

0000219c <WCHScokedIntHandle>:
    219c:	fd5fd2ef          	jal	t0,170 <__riscv_save_0>
    21a0:	47a1                	li	a5,8
    21a2:	84aa                	mv	s1,a0
    21a4:	2100                	lbu	s0,0(a0)
    21a6:	02f58a63          	beq	a1,a5,21da <WCHScokedIntHandle+0x3e>
    21aa:	00b7ec63          	bltu	a5,a1,21c2 <WCHScokedIntHandle+0x26>
    21ae:	4785                	li	a5,1
    21b0:	02f58163          	beq	a1,a5,21d2 <WCHScokedIntHandle+0x36>
    21b4:	4789                	li	a5,2
    21b6:	00246413          	ori	s0,s0,2
    21ba:	00f58e63          	beq	a1,a5,21d6 <WCHScokedIntHandle+0x3a>
    21be:	fd7fd06f          	j	194 <__riscv_restore_0>
    21c2:	47c1                	li	a5,16
    21c4:	00f58e63          	beq	a1,a5,21e0 <WCHScokedIntHandle+0x44>
    21c8:	04000793          	li	a5,64
    21cc:	04046413          	ori	s0,s0,64
    21d0:	b7ed                	j	21ba <WCHScokedIntHandle+0x1e>
    21d2:	00146413          	ori	s0,s0,1
    21d6:	c080                	sw	s0,0(s1)
    21d8:	b7dd                	j	21be <WCHScokedIntHandle+0x22>
    21da:	00846413          	ori	s0,s0,8
    21de:	bfe5                	j	21d6 <WCHScokedIntHandle+0x3a>
    21e0:	5948                	lw	a0,52(a0)
    21e2:	01046413          	ori	s0,s0,16
    21e6:	d965                	beqz	a0,21d6 <WCHScokedIntHandle+0x3a>
    21e8:	019020ef          	jal	ra,4a00 <tcp_close>
    21ec:	b7ed                	j	21d6 <WCHScokedIntHandle+0x3a>

000021ee <LwipRemoveTcpPcb>:
    21ee:	f83fd2ef          	jal	t0,170 <__riscv_save_0>
    21f2:	1141                	addi	sp,sp,-16
    21f4:	00f10593          	addi	a1,sp,15
    21f8:	892a                	mv	s2,a0
    21fa:	000107a3          	sb	zero,15(sp)
    21fe:	b79ff0ef          	jal	ra,1d76 <WCHFindCorrectTCBPcb>
    2202:	c515                	beqz	a0,222e <LwipRemoveTcpPcb+0x40>
    2204:	8780                	lbu	s0,15(sp)
    2206:	01841793          	slli	a5,s0,0x18
    220a:	87e1                	srai	a5,a5,0x18
    220c:	0207d463          	bgez	a5,2234 <LwipRemoveTcpPcb+0x46>
    2210:	07f47413          	andi	s0,s0,127
    2214:	03c00713          	li	a4,60
    2218:	02e40433          	mul	s0,s0,a4
    221c:	200047b7          	lui	a5,0x20004
    2220:	13878793          	addi	a5,a5,312 # 20004138 <SocketInf>
    2224:	943e                	add	s0,s0,a5
    2226:	02042a23          	sw	zero,52(s0)
    222a:	02042023          	sw	zero,32(s0)
    222e:	0141                	addi	sp,sp,16
    2230:	f65fd06f          	j	194 <__riscv_restore_0>
    2234:	8c81c783          	lbu	a5,-1848(gp) # 20000138 <SockNumber>
    2238:	fef47be3          	bgeu	s0,a5,222e <LwipRemoveTcpPcb+0x40>
    223c:	03c00713          	li	a4,60
    2240:	02e40733          	mul	a4,s0,a4
    2244:	200047b7          	lui	a5,0x20004
    2248:	13878513          	addi	a0,a5,312 # 20004138 <SocketInf>
    224c:	13878493          	addi	s1,a5,312
    2250:	953a                	add	a0,a0,a4
    2252:	4d54                	lw	a3,28(a0)
    2254:	470d                	li	a4,3
    2256:	fce69ce3          	bne	a3,a4,222e <LwipRemoveTcpPcb+0x40>
    225a:	01092783          	lw	a5,16(s2)
    225e:	4705                	li	a4,1
    2260:	17dd                	addi	a5,a5,-9
    2262:	0ff7f793          	andi	a5,a5,255
    2266:	00f76c63          	bltu	a4,a5,227e <LwipRemoveTcpPcb+0x90>
    226a:	45c1                	li	a1,16
    226c:	3f05                	jal	219c <WCHScokedIntHandle>
    226e:	03c00793          	li	a5,60
    2272:	02f40433          	mul	s0,s0,a5
    2276:	9426                	add	s0,s0,s1
    2278:	02042823          	sw	zero,48(s0)
    227c:	b77d                	j	222a <LwipRemoveTcpPcb+0x3c>
    227e:	211c                	lbu	a5,0(a0)
    2280:	0407e793          	ori	a5,a5,64
    2284:	c11c                	sw	a5,0(a0)
    2286:	b7e5                	j	226e <LwipRemoveTcpPcb+0x80>

00002288 <WCHNET_QueryGlobalInt>:
    2288:	20004737          	lui	a4,0x20004
    228c:	8c81c683          	lbu	a3,-1848(gp) # 20000138 <SockNumber>
    2290:	13870713          	addi	a4,a4,312 # 20004138 <SocketInf>
    2294:	4781                	li	a5,0
    2296:	00f68f63          	beq	a3,a5,22b4 <WCHNET_QueryGlobalInt+0x2c>
    229a:	03c70713          	addi	a4,a4,60
    229e:	fc472603          	lw	a2,-60(a4)
    22a2:	ce11                	beqz	a2,22be <WCHNET_QueryGlobalInt+0x36>
    22a4:	200047b7          	lui	a5,0x20004
    22a8:	1f878793          	addi	a5,a5,504 # 200041f8 <NetInf>
    22ac:	57d8                	lw	a4,44(a5)
    22ae:	01076713          	ori	a4,a4,16
    22b2:	d7d8                	sw	a4,44(a5)
    22b4:	200047b7          	lui	a5,0x20004
    22b8:	2247c503          	lbu	a0,548(a5) # 20004224 <NetInf+0x2c>
    22bc:	8082                	ret
    22be:	0785                	addi	a5,a5,1
    22c0:	0ff7f793          	andi	a5,a5,255
    22c4:	bfc9                	j	2296 <WCHNET_QueryGlobalInt+0xe>

000022c6 <WCHNET_GetGlobalInt>:
    22c6:	eabfd2ef          	jal	t0,170 <__riscv_save_0>
    22ca:	3f7d                	jal	2288 <WCHNET_QueryGlobalInt>
    22cc:	200047b7          	lui	a5,0x20004
    22d0:	2207a223          	sw	zero,548(a5) # 20004224 <NetInf+0x2c>
    22d4:	ec1fd06f          	j	194 <__riscv_restore_0>

000022d8 <WCHNET_GetSocketInt>:
    22d8:	8c81c783          	lbu	a5,-1848(gp) # 20000138 <SockNumber>
    22dc:	02f57163          	bgeu	a0,a5,22fe <WCHNET_GetSocketInt+0x26>
    22e0:	03c00793          	li	a5,60
    22e4:	02f50533          	mul	a0,a0,a5
    22e8:	200047b7          	lui	a5,0x20004
    22ec:	13878793          	addi	a5,a5,312 # 20004138 <SocketInf>
    22f0:	97aa                	add	a5,a5,a0
    22f2:	4398                	lw	a4,0(a5)
    22f4:	0ff77513          	andi	a0,a4,255
    22f8:	8b11                	andi	a4,a4,4
    22fa:	c398                	sw	a4,0(a5)
    22fc:	8082                	ret
    22fe:	4501                	li	a0,0
    2300:	8082                	ret

00002302 <WCHNET_GetPHYStatus>:
    2302:	200047b7          	lui	a5,0x20004
    2306:	2187c503          	lbu	a0,536(a5) # 20004218 <NetInf+0x20>
    230a:	8082                	ret

0000230c <QueryPingEnable>:
    230c:	200047b7          	lui	a5,0x20004
    2310:	2507a503          	lw	a0,592(a5) # 20004250 <WCHCfg+0x14>
    2314:	8135                	srli	a0,a0,0xd
    2316:	8905                	andi	a0,a0,1
    2318:	8082                	ret

0000231a <LwipUnreachPort>:
    231a:	200047b7          	lui	a5,0x20004
    231e:	1f878793          	addi	a5,a5,504 # 200041f8 <NetInf>
    2322:	4705                	li	a4,1
    2324:	1141                	addi	sp,sp,-16
    2326:	cbc8                	sw	a0,20(a5)
    2328:	db94                	sw	a3,48(a5)
    232a:	dbd0                	sw	a2,52(a5)
    232c:	df8c                	sw	a1,56(a5)
    232e:	d7d8                	sw	a4,44(a5)
    2330:	0141                	addi	sp,sp,16
    2332:	8082                	ret

00002334 <LwipArpCheck>:
    2334:	200047b7          	lui	a5,0x20004
    2338:	4705                	li	a4,1
    233a:	22e7aa23          	sw	a4,564(a5) # 20004234 <NetInf+0x3c>
    233e:	8082                	ret

00002340 <find_entry>:
    2340:	e31fd2ef          	jal	t0,170 <__riscv_save_0>
    2344:	200047b7          	lui	a5,0x20004
    2348:	2487a603          	lw	a2,584(a5) # 20004248 <WCHCfg+0xc>
    234c:	8281a683          	lw	a3,-2008(gp) # 20000098 <arp_table>
    2350:	01861713          	slli	a4,a2,0x18
    2354:	8761                	srai	a4,a4,0x18
    2356:	14050b63          	beqz	a0,24ac <find_entry+0x16c>
    235a:	8d01c783          	lbu	a5,-1840(gp) # 20000140 <etharp_cached_entry>
    235e:	4861                	li	a6,24
    2360:	4889                	li	a7,2
    2362:	03078833          	mul	a6,a5,a6
    2366:	9836                	add	a6,a6,a3
    2368:	00c82303          	lw	t1,12(a6)
    236c:	15131063          	bne	t1,a7,24ac <find_entry+0x16c>
    2370:	00154303          	lbu	t1,1(a0)
    2374:	00054883          	lbu	a7,0(a0)
    2378:	00082803          	lw	a6,0(a6)
    237c:	0322                	slli	t1,t1,0x8
    237e:	01136333          	or	t1,t1,a7
    2382:	00254883          	lbu	a7,2(a0)
    2386:	08c2                	slli	a7,a7,0x10
    2388:	0068e333          	or	t1,a7,t1
    238c:	00354883          	lbu	a7,3(a0)
    2390:	08e2                	slli	a7,a7,0x18
    2392:	0068e8b3          	or	a7,a7,t1
    2396:	11089b63          	bne	a7,a6,24ac <find_entry+0x16c>
    239a:	07e2                	slli	a5,a5,0x18
    239c:	87e1                	srai	a5,a5,0x18
    239e:	853e                	mv	a0,a5
    23a0:	df5fd06f          	j	194 <__riscv_restore_0>
    23a4:	025788b3          	mul	a7,a5,t0
    23a8:	98b6                	add	a7,a7,a3
    23aa:	00c8ae03          	lw	t3,12(a7) # 800c <__smakebuf_r+0xe>
    23ae:	07061963          	bne	a2,a6,2420 <find_entry+0xe0>
    23b2:	060e1763          	bnez	t3,2420 <find_entry+0xe0>
    23b6:	01879813          	slli	a6,a5,0x18
    23ba:	41885813          	srai	a6,a6,0x18
    23be:	0785                	addi	a5,a5,1
    23c0:	0ff7f793          	andi	a5,a5,255
    23c4:	fec7e0e3          	bltu	a5,a2,23a4 <find_entry+0x64>
    23c8:	01061763          	bne	a2,a6,23d6 <find_entry+0x96>
    23cc:	0015f893          	andi	a7,a1,1
    23d0:	57fd                	li	a5,-1
    23d2:	fc0886e3          	beqz	a7,239e <find_entry+0x5e>
    23d6:	8989                	andi	a1,a1,2
    23d8:	57fd                	li	a5,-1
    23da:	f1f1                	bnez	a1,239e <find_entry+0x5e>
    23dc:	0ff87793          	andi	a5,a6,255
    23e0:	00c86b63          	bltu	a6,a2,23f6 <find_entry+0xb6>
    23e4:	0ff37793          	andi	a5,t1,255
    23e8:	00c36763          	bltu	t1,a2,23f6 <find_entry+0xb6>
    23ec:	57fd                	li	a5,-1
    23ee:	fac778e3          	bgeu	a4,a2,239e <find_entry+0x5e>
    23f2:	0ff77793          	andi	a5,a4,255
    23f6:	4761                	li	a4,24
    23f8:	02e78733          	mul	a4,a5,a4
    23fc:	96ba                	add	a3,a3,a4
    23fe:	0006a623          	sw	zero,12(a3)
    2402:	cd01                	beqz	a0,241a <find_entry+0xda>
    2404:	3110                	lbu	a2,1(a0)
    2406:	2118                	lbu	a4,0(a0)
    2408:	0622                	slli	a2,a2,0x8
    240a:	8e59                	or	a2,a2,a4
    240c:	2138                	lbu	a4,2(a0)
    240e:	0742                	slli	a4,a4,0x10
    2410:	8e59                	or	a2,a2,a4
    2412:	3138                	lbu	a4,3(a0)
    2414:	0762                	slli	a4,a4,0x18
    2416:	8f51                	or	a4,a4,a2
    2418:	c298                	sw	a4,0(a3)
    241a:	00068823          	sb	zero,16(a3)
    241e:	a80d                	j	2450 <find_entry+0x110>
    2420:	047e1463          	bne	t3,t2,2468 <find_entry+0x128>
    2424:	c90d                	beqz	a0,2456 <find_entry+0x116>
    2426:	00154e83          	lbu	t4,1(a0)
    242a:	00054e03          	lbu	t3,0(a0)
    242e:	0ea2                	slli	t4,t4,0x8
    2430:	01ceeeb3          	or	t4,t4,t3
    2434:	00254e03          	lbu	t3,2(a0)
    2438:	0e42                	slli	t3,t3,0x10
    243a:	01de6eb3          	or	t4,t3,t4
    243e:	00354e03          	lbu	t3,3(a0)
    2442:	0e62                	slli	t3,t3,0x18
    2444:	01de6e33          	or	t3,t3,t4
    2448:	0008ae83          	lw	t4,0(a7)
    244c:	01de1563          	bne	t3,t4,2456 <find_entry+0x116>
    2450:	8cf18823          	sb	a5,-1840(gp) # 20000140 <etharp_cached_entry>
    2454:	b799                	j	239a <find_entry+0x5a>
    2456:	0108c883          	lbu	a7,16(a7)
    245a:	f7e8e2e3          	bltu	a7,t5,23be <find_entry+0x7e>
    245e:	01879713          	slli	a4,a5,0x18
    2462:	8761                	srai	a4,a4,0x18
    2464:	8f46                	mv	t5,a7
    2466:	bfa1                	j	23be <find_entry+0x7e>
    2468:	f48e1be3          	bne	t3,s0,23be <find_entry+0x7e>
    246c:	c515                	beqz	a0,2498 <find_entry+0x158>
    246e:	00154e83          	lbu	t4,1(a0)
    2472:	00054e03          	lbu	t3,0(a0)
    2476:	0ea2                	slli	t4,t4,0x8
    2478:	01ceeeb3          	or	t4,t4,t3
    247c:	00254e03          	lbu	t3,2(a0)
    2480:	0e42                	slli	t3,t3,0x10
    2482:	01de6eb3          	or	t4,t3,t4
    2486:	00354e03          	lbu	t3,3(a0)
    248a:	0e62                	slli	t3,t3,0x18
    248c:	01de6e33          	or	t3,t3,t4
    2490:	0008ae83          	lw	t4,0(a7)
    2494:	fbde0ee3          	beq	t3,t4,2450 <find_entry+0x110>
    2498:	0108c883          	lbu	a7,16(a7)
    249c:	f3f8e1e3          	bltu	a7,t6,23be <find_entry+0x7e>
    24a0:	01879313          	slli	t1,a5,0x18
    24a4:	41835313          	srai	t1,t1,0x18
    24a8:	8fc6                	mv	t6,a7
    24aa:	bf11                	j	23be <find_entry+0x7e>
    24ac:	883a                	mv	a6,a4
    24ae:	833a                	mv	t1,a4
    24b0:	4f81                	li	t6,0
    24b2:	4f01                	li	t5,0
    24b4:	4781                	li	a5,0
    24b6:	42e1                	li	t0,24
    24b8:	4385                	li	t2,1
    24ba:	4409                	li	s0,2
    24bc:	b721                	j	23c4 <find_entry+0x84>

000024be <update_arp_entry>:
    24be:	c99fd2ef          	jal	t0,156 <__riscv_save_4>
    24c2:	3198                	lbu	a4,1(a1)
    24c4:	219c                	lbu	a5,0(a1)
    24c6:	8a36                	mv	s4,a3
    24c8:	0722                	slli	a4,a4,0x8
    24ca:	8f5d                	or	a4,a4,a5
    24cc:	21bc                	lbu	a5,2(a1)
    24ce:	4154                	lw	a3,4(a0)
    24d0:	07c2                	slli	a5,a5,0x10
    24d2:	8f5d                	or	a4,a4,a5
    24d4:	31bc                	lbu	a5,3(a1)
    24d6:	07e2                	slli	a5,a5,0x18
    24d8:	8fd9                	or	a5,a5,a4
    24da:	00f69b63          	bne	a3,a5,24f0 <update_arp_entry+0x32>
    24de:	e689                	bnez	a3,24e8 <update_arp_entry+0x2a>
    24e0:	57d9                	li	a5,-10
    24e2:	853e                	mv	a0,a5
    24e4:	ca7fd06f          	j	18a <__riscv_restore_4>
    24e8:	4505                	li	a0,1
    24ea:	c84ff0ef          	jal	ra,196e <IPConflictHandle>
    24ee:	bfcd                	j	24e0 <update_arp_entry+0x22>
    24f0:	dbe5                	beqz	a5,24e0 <update_arp_entry+0x22>
    24f2:	842e                	mv	s0,a1
    24f4:	892a                	mv	s2,a0
    24f6:	85aa                	mv	a1,a0
    24f8:	8522                	mv	a0,s0
    24fa:	89b2                	mv	s3,a2
    24fc:	44d000ef          	jal	ra,3148 <ip_addr_isbroadcast>
    2500:	f165                	bnez	a0,24e0 <update_arp_entry+0x22>
    2502:	301c                	lbu	a5,1(s0)
    2504:	2004                	lbu	s1,0(s0)
    2506:	f0000537          	lui	a0,0xf0000
    250a:	07a2                	slli	a5,a5,0x8
    250c:	8fc5                	or	a5,a5,s1
    250e:	2024                	lbu	s1,2(s0)
    2510:	04c2                	slli	s1,s1,0x10
    2512:	8fc5                	or	a5,a5,s1
    2514:	3024                	lbu	s1,3(s0)
    2516:	04e2                	slli	s1,s1,0x18
    2518:	8cdd                	or	s1,s1,a5
    251a:	7ac000ef          	jal	ra,2cc6 <ntohl>
    251e:	8ce9                	and	s1,s1,a0
    2520:	e0000537          	lui	a0,0xe0000
    2524:	7a2000ef          	jal	ra,2cc6 <ntohl>
    2528:	faa48ce3          	beq	s1,a0,24e0 <update_arp_entry+0x22>
    252c:	85d2                	mv	a1,s4
    252e:	8522                	mv	a0,s0
    2530:	e11ff0ef          	jal	ra,2340 <find_entry>
    2534:	87aa                	mv	a5,a0
    2536:	fa0546e3          	bltz	a0,24e2 <update_arp_entry+0x24>
    253a:	47e1                	li	a5,24
    253c:	02f507b3          	mul	a5,a0,a5
    2540:	8281a503          	lw	a0,-2008(gp) # 20000098 <arp_table>
    2544:	953e                	add	a0,a0,a5
    2546:	4789                	li	a5,2
    2548:	c55c                	sw	a5,12(a0)
    254a:	01252a23          	sw	s2,20(a0) # e0000014 <_eusrstack+0xbfff0014>
    254e:	00598793          	addi	a5,s3,5
    2552:	00950713          	addi	a4,a0,9
    2556:	2394                	lbu	a3,0(a5)
    2558:	177d                	addi	a4,a4,-1
    255a:	b314                	sb	a3,1(a4)
    255c:	fff78693          	addi	a3,a5,-1
    2560:	00f99663          	bne	s3,a5,256c <update_arp_entry+0xae>
    2564:	00050823          	sb	zero,16(a0)
    2568:	4781                	li	a5,0
    256a:	bfa5                	j	24e2 <update_arp_entry+0x24>
    256c:	87b6                	mv	a5,a3
    256e:	b7e5                	j	2556 <update_arp_entry+0x98>

00002570 <etharp_tmr>:
    2570:	200047b7          	lui	a5,0x20004
    2574:	2487a503          	lw	a0,584(a5) # 20004248 <WCHCfg+0xc>
    2578:	8281a803          	lw	a6,-2008(gp) # 20000098 <arp_table>
    257c:	4701                	li	a4,0
    257e:	48e1                	li	a7,24
    2580:	4309                	li	t1,2
    2582:	4605                	li	a2,1
    2584:	0ef00e13          	li	t3,239
    2588:	00a76363          	bltu	a4,a0,258e <etharp_tmr+0x1e>
    258c:	8082                	ret
    258e:	031706b3          	mul	a3,a4,a7
    2592:	96c2                	add	a3,a3,a6
    2594:	2a9c                	lbu	a5,16(a3)
    2596:	46cc                	lw	a1,12(a3)
    2598:	0785                	addi	a5,a5,1
    259a:	0ff7f793          	andi	a5,a5,255
    259e:	aa9c                	sb	a5,16(a3)
    25a0:	00659863          	bne	a1,t1,25b0 <etharp_tmr+0x40>
    25a4:	00fe6a63          	bltu	t3,a5,25b8 <etharp_tmr+0x48>
    25a8:	0705                	addi	a4,a4,1
    25aa:	0ff77713          	andi	a4,a4,255
    25ae:	bfe9                	j	2588 <etharp_tmr+0x18>
    25b0:	fec59ce3          	bne	a1,a2,25a8 <etharp_tmr+0x38>
    25b4:	fef67ae3          	bgeu	a2,a5,25a8 <etharp_tmr+0x38>
    25b8:	0006a623          	sw	zero,12(a3)
    25bc:	b7f5                	j	25a8 <etharp_tmr+0x38>

000025be <etharp_ip_input>:
    25be:	cd21                	beqz	a0,2616 <etharp_ip_input+0x58>
    25c0:	bb1fd2ef          	jal	t0,170 <__riscv_save_0>
    25c4:	41c4                	lw	s1,4(a1)
    25c6:	842a                	mv	s0,a0
    25c8:	34dc                	lbu	a5,13(s1)
    25ca:	24c8                	lbu	a0,12(s1)
    25cc:	07a2                	slli	a5,a5,0x8
    25ce:	8d5d                	or	a0,a0,a5
    25d0:	6b6000ef          	jal	ra,2c86 <htons>
    25d4:	67a1                	lui	a5,0x8
    25d6:	10078793          	addi	a5,a5,256 # 8100 <_free_r+0x70>
    25da:	01248593          	addi	a1,s1,18
    25de:	00f50463          	beq	a0,a5,25e6 <etharp_ip_input+0x28>
    25e2:	00e48593          	addi	a1,s1,14
    25e6:	35d8                	lbu	a4,13(a1)
    25e8:	25dc                	lbu	a5,12(a1)
    25ea:	0722                	slli	a4,a4,0x8
    25ec:	8f5d                	or	a4,a4,a5
    25ee:	25fc                	lbu	a5,14(a1)
    25f0:	07c2                	slli	a5,a5,0x10
    25f2:	8f5d                	or	a4,a4,a5
    25f4:	35fc                	lbu	a5,15(a1)
    25f6:	07e2                	slli	a5,a5,0x18
    25f8:	8fd9                	or	a5,a5,a4
    25fa:	4058                	lw	a4,4(s0)
    25fc:	8fb9                	xor	a5,a5,a4
    25fe:	4418                	lw	a4,8(s0)
    2600:	8ff9                	and	a5,a5,a4
    2602:	eb81                	bnez	a5,2612 <etharp_ip_input+0x54>
    2604:	4681                	li	a3,0
    2606:	00648613          	addi	a2,s1,6
    260a:	05b1                	addi	a1,a1,12
    260c:	8522                	mv	a0,s0
    260e:	eb1ff0ef          	jal	ra,24be <update_arp_entry>
    2612:	b83fd06f          	j	194 <__riscv_restore_0>
    2616:	8082                	ret

00002618 <etharp_arp_input>:
    2618:	16050363          	beqz	a0,277e <etharp_arp_input+0x166>
    261c:	b3bfd2ef          	jal	t0,156 <__riscv_save_4>
    2620:	263a                	lhu	a4,10(a2)
    2622:	02900793          	li	a5,41
    2626:	1141                	addi	sp,sp,-16
    2628:	89b2                	mv	s3,a2
    262a:	8a2e                	mv	s4,a1
    262c:	84aa                	mv	s1,a0
    262e:	00e7e863          	bltu	a5,a4,263e <etharp_arp_input+0x26>
    2632:	854e                	mv	a0,s3
    2634:	23b010ef          	jal	ra,406e <pbuf_free>
    2638:	0141                	addi	sp,sp,16
    263a:	b51fd06f          	j	18a <__riscv_restore_4>
    263e:	00462903          	lw	s2,4(a2)
    2642:	00d94783          	lbu	a5,13(s2)
    2646:	00c94503          	lbu	a0,12(s2)
    264a:	01290413          	addi	s0,s2,18
    264e:	07a2                	slli	a5,a5,0x8
    2650:	8d5d                	or	a0,a0,a5
    2652:	2d15                	jal	2c86 <htons>
    2654:	67a1                	lui	a5,0x8
    2656:	10078793          	addi	a5,a5,256 # 8100 <_free_r+0x70>
    265a:	00f50463          	beq	a0,a5,2662 <etharp_arp_input+0x4a>
    265e:	00e90413          	addi	s0,s2,14
    2662:	00144a83          	lbu	s5,1(s0)
    2666:	201c                	lbu	a5,0(s0)
    2668:	4505                	li	a0,1
    266a:	0aa2                	slli	s5,s5,0x8
    266c:	00faeab3          	or	s5,s5,a5
    2670:	2d19                	jal	2c86 <htons>
    2672:	fcaa90e3          	bne	s5,a0,2632 <etharp_arp_input+0x1a>
    2676:	00544a83          	lbu	s5,5(s0)
    267a:	205c                	lbu	a5,4(s0)
    267c:	60400513          	li	a0,1540
    2680:	0aa2                	slli	s5,s5,0x8
    2682:	00faeab3          	or	s5,s5,a5
    2686:	2501                	jal	2c86 <htons>
    2688:	faaa95e3          	bne	s5,a0,2632 <etharp_arp_input+0x1a>
    268c:	00344a83          	lbu	s5,3(s0)
    2690:	203c                	lbu	a5,2(s0)
    2692:	6505                	lui	a0,0x1
    2694:	0aa2                	slli	s5,s5,0x8
    2696:	80050513          	addi	a0,a0,-2048 # 800 <__stack_size>
    269a:	00faeab3          	or	s5,s5,a5
    269e:	23e5                	jal	2c86 <htons>
    26a0:	f8aa99e3          	bne	s5,a0,2632 <etharp_arp_input+0x1a>
    26a4:	00e40a93          	addi	s5,s0,14
    26a8:	4611                	li	a2,4
    26aa:	85d6                	mv	a1,s5
    26ac:	0068                	addi	a0,sp,12
    26ae:	182050ef          	jal	ra,7830 <memcpy>
    26b2:	40d4                	lw	a3,4(s1)
    26b4:	00840613          	addi	a2,s0,8
    26b8:	c2ad                	beqz	a3,271a <etharp_arp_input+0x102>
    26ba:	3c18                	lbu	a4,25(s0)
    26bc:	2c1c                	lbu	a5,24(s0)
    26be:	0722                	slli	a4,a4,0x8
    26c0:	8f5d                	or	a4,a4,a5
    26c2:	2c3c                	lbu	a5,26(s0)
    26c4:	07c2                	slli	a5,a5,0x10
    26c6:	8f5d                	or	a4,a4,a5
    26c8:	3c3c                	lbu	a5,27(s0)
    26ca:	07e2                	slli	a5,a5,0x18
    26cc:	8fd9                	or	a5,a5,a4
    26ce:	04f69663          	bne	a3,a5,271a <etharp_arp_input+0x102>
    26d2:	4685                	li	a3,1
    26d4:	006c                	addi	a1,sp,12
    26d6:	8526                	mv	a0,s1
    26d8:	de7ff0ef          	jal	ra,24be <update_arp_entry>
    26dc:	4b05                	li	s6,1
    26de:	307c                	lbu	a5,7(s0)
    26e0:	2068                	lbu	a0,6(s0)
    26e2:	07a2                	slli	a5,a5,0x8
    26e4:	8d5d                	or	a0,a0,a5
    26e6:	2345                	jal	2c86 <htons>
    26e8:	4785                	li	a5,1
    26ea:	02f50f63          	beq	a0,a5,2728 <etharp_arp_input+0x110>
    26ee:	4789                	li	a5,2
    26f0:	f4f511e3          	bne	a0,a5,2632 <etharp_arp_input+0x1a>
    26f4:	006c                	addi	a1,sp,12
    26f6:	8526                	mv	a0,s1
    26f8:	33e010ef          	jal	ra,3a36 <dhcp_arp_reply>
    26fc:	200047b7          	lui	a5,0x20004
    2700:	1807a703          	lw	a4,384(a5) # 20004180 <DHCPCtrl>
    2704:	f20707e3          	beqz	a4,2632 <etharp_arp_input+0x1a>
    2708:	18078793          	addi	a5,a5,384
    270c:	47dc                	lw	a5,12(a5)
    270e:	f20782e3          	beqz	a5,2632 <etharp_arp_input+0x1a>
    2712:	006c                	addi	a1,sp,12
    2714:	8526                	mv	a0,s1
    2716:	9782                	jalr	a5
    2718:	bf29                	j	2632 <etharp_arp_input+0x1a>
    271a:	4681                	li	a3,0
    271c:	006c                	addi	a1,sp,12
    271e:	8526                	mv	a0,s1
    2720:	d9fff0ef          	jal	ra,24be <update_arp_entry>
    2724:	4b01                	li	s6,0
    2726:	bf65                	j	26de <etharp_arp_input+0xc6>
    2728:	f00b05e3          	beqz	s6,2632 <etharp_arp_input+0x1a>
    272c:	4509                	li	a0,2
    272e:	2ba1                	jal	2c86 <htons>
    2730:	a068                	sb	a0,6(s0)
    2732:	8121                	srli	a0,a0,0x8
    2734:	b068                	sb	a0,7(s0)
    2736:	4611                	li	a2,4
    2738:	85d6                	mv	a1,s5
    273a:	01840513          	addi	a0,s0,24
    273e:	0f2050ef          	jal	ra,7830 <memcpy>
    2742:	4611                	li	a2,4
    2744:	00448593          	addi	a1,s1,4
    2748:	8556                	mv	a0,s5
    274a:	0e6050ef          	jal	ra,7830 <memcpy>
    274e:	0435                	addi	s0,s0,13
    2750:	0915                	addi	s2,s2,5
    2752:	4795                	li	a5,5
    2754:	56fd                	li	a3,-1
    2756:	2018                	lbu	a4,0(s0)
    2758:	197d                	addi	s2,s2,-1
    275a:	147d                	addi	s0,s0,-1
    275c:	b438                	sb	a4,11(s0)
    275e:	00e900a3          	sb	a4,1(s2)
    2762:	00fa0733          	add	a4,s4,a5
    2766:	2318                	lbu	a4,0(a4)
    2768:	17fd                	addi	a5,a5,-1
    276a:	b018                	sb	a4,1(s0)
    276c:	00e903a3          	sb	a4,7(s2)
    2770:	fed793e3          	bne	a5,a3,2756 <etharp_arp_input+0x13e>
    2774:	4c9c                	lw	a5,24(s1)
    2776:	85ce                	mv	a1,s3
    2778:	8526                	mv	a0,s1
    277a:	9782                	jalr	a5
    277c:	bd5d                	j	2632 <etharp_arp_input+0x1a>
    277e:	8082                	ret

00002780 <etharp_request>:
    2780:	9d7fd2ef          	jal	t0,156 <__riscv_save_4>
    2784:	892a                	mv	s2,a0
    2786:	89ae                	mv	s3,a1
    2788:	4601                	li	a2,0
    278a:	02a00593          	li	a1,42
    278e:	450d                	li	a0,3
    2790:	12d010ef          	jal	ra,40bc <pbuf_alloc>
    2794:	547d                	li	s0,-1
    2796:	c94d                	beqz	a0,2848 <etharp_request+0xc8>
    2798:	4140                	lw	s0,4(a0)
    279a:	84aa                	mv	s1,a0
    279c:	4505                	li	a0,1
    279e:	21e5                	jal	2c86 <htons>
    27a0:	a848                	sb	a0,20(s0)
    27a2:	8121                	srli	a0,a0,0x8
    27a4:	b848                	sb	a0,21(s0)
    27a6:	02e90693          	addi	a3,s2,46
    27aa:	00540793          	addi	a5,s0,5
    27ae:	4715                	li	a4,5
    27b0:	84818593          	addi	a1,gp,-1976 # 200000b8 <ethzero>
    27b4:	84018613          	addi	a2,gp,-1984 # 200000b0 <ethbroadcast>
    27b8:	557d                	li	a0,-1
    27ba:	0006c803          	lbu	a6,0(a3)
    27be:	17fd                	addi	a5,a5,-1
    27c0:	16fd                	addi	a3,a3,-1
    27c2:	01078ba3          	sb	a6,23(a5)
    27c6:	00e58833          	add	a6,a1,a4
    27ca:	00084803          	lbu	a6,0(a6)
    27ce:	030780a3          	sb	a6,33(a5)
    27d2:	00e60833          	add	a6,a2,a4
    27d6:	00084803          	lbu	a6,0(a6)
    27da:	177d                	addi	a4,a4,-1
    27dc:	010780a3          	sb	a6,1(a5)
    27e0:	0016c803          	lbu	a6,1(a3)
    27e4:	010783a3          	sb	a6,7(a5)
    27e8:	fca719e3          	bne	a4,a0,27ba <etharp_request+0x3a>
    27ec:	4611                	li	a2,4
    27ee:	00490593          	addi	a1,s2,4
    27f2:	01c40513          	addi	a0,s0,28
    27f6:	03a050ef          	jal	ra,7830 <memcpy>
    27fa:	85ce                	mv	a1,s3
    27fc:	4611                	li	a2,4
    27fe:	02640513          	addi	a0,s0,38
    2802:	02e050ef          	jal	ra,7830 <memcpy>
    2806:	4505                	li	a0,1
    2808:	29bd                	jal	2c86 <htons>
    280a:	a468                	sb	a0,14(s0)
    280c:	6985                	lui	s3,0x1
    280e:	8121                	srli	a0,a0,0x8
    2810:	b468                	sb	a0,15(s0)
    2812:	80098513          	addi	a0,s3,-2048 # 800 <__stack_size>
    2816:	2985                	jal	2c86 <htons>
    2818:	a808                	sb	a0,16(s0)
    281a:	8121                	srli	a0,a0,0x8
    281c:	b808                	sb	a0,17(s0)
    281e:	60400513          	li	a0,1540
    2822:	2195                	jal	2c86 <htons>
    2824:	a828                	sb	a0,18(s0)
    2826:	8121                	srli	a0,a0,0x8
    2828:	b828                	sb	a0,19(s0)
    282a:	80698513          	addi	a0,s3,-2042
    282e:	29a1                	jal	2c86 <htons>
    2830:	01892783          	lw	a5,24(s2)
    2834:	a448                	sb	a0,12(s0)
    2836:	8121                	srli	a0,a0,0x8
    2838:	b448                	sb	a0,13(s0)
    283a:	85a6                	mv	a1,s1
    283c:	854a                	mv	a0,s2
    283e:	9782                	jalr	a5
    2840:	842a                	mv	s0,a0
    2842:	8526                	mv	a0,s1
    2844:	02b010ef          	jal	ra,406e <pbuf_free>
    2848:	8522                	mv	a0,s0
    284a:	941fd06f          	j	18a <__riscv_restore_4>

0000284e <etharp_query>:
    284e:	909fd2ef          	jal	t0,156 <__riscv_save_4>
    2852:	842e                	mv	s0,a1
    2854:	892a                	mv	s2,a0
    2856:	85aa                	mv	a1,a0
    2858:	8522                	mv	a0,s0
    285a:	89b2                	mv	s3,a2
    285c:	0ed000ef          	jal	ra,3148 <ip_addr_isbroadcast>
    2860:	c501                	beqz	a0,2868 <etharp_query+0x1a>
    2862:	5559                	li	a0,-10
    2864:	927fd06f          	j	18a <__riscv_restore_4>
    2868:	301c                	lbu	a5,1(s0)
    286a:	2004                	lbu	s1,0(s0)
    286c:	f0000537          	lui	a0,0xf0000
    2870:	07a2                	slli	a5,a5,0x8
    2872:	8fc5                	or	a5,a5,s1
    2874:	2024                	lbu	s1,2(s0)
    2876:	04c2                	slli	s1,s1,0x10
    2878:	8fc5                	or	a5,a5,s1
    287a:	3024                	lbu	s1,3(s0)
    287c:	04e2                	slli	s1,s1,0x18
    287e:	8cdd                	or	s1,s1,a5
    2880:	2199                	jal	2cc6 <ntohl>
    2882:	8ce9                	and	s1,s1,a0
    2884:	e0000537          	lui	a0,0xe0000
    2888:	293d                	jal	2cc6 <ntohl>
    288a:	fca48ce3          	beq	s1,a0,2862 <etharp_query+0x14>
    288e:	3018                	lbu	a4,1(s0)
    2890:	201c                	lbu	a5,0(s0)
    2892:	0722                	slli	a4,a4,0x8
    2894:	8f5d                	or	a4,a4,a5
    2896:	203c                	lbu	a5,2(s0)
    2898:	07c2                	slli	a5,a5,0x10
    289a:	8f5d                	or	a4,a4,a5
    289c:	303c                	lbu	a5,3(s0)
    289e:	07e2                	slli	a5,a5,0x18
    28a0:	8fd9                	or	a5,a5,a4
    28a2:	d3e1                	beqz	a5,2862 <etharp_query+0x14>
    28a4:	4585                	li	a1,1
    28a6:	8522                	mv	a0,s0
    28a8:	a99ff0ef          	jal	ra,2340 <find_entry>
    28ac:	fa054ce3          	bltz	a0,2864 <etharp_query+0x16>
    28b0:	47e1                	li	a5,24
    28b2:	02f504b3          	mul	s1,a0,a5
    28b6:	8281a703          	lw	a4,-2008(gp) # 20000098 <arp_table>
    28ba:	82818a13          	addi	s4,gp,-2008 # 20000098 <arp_table>
    28be:	4785                	li	a5,1
    28c0:	9726                	add	a4,a4,s1
    28c2:	4754                	lw	a3,12(a4)
    28c4:	ea99                	bnez	a3,28da <etharp_query+0x8c>
    28c6:	c75c                	sw	a5,12(a4)
    28c8:	a6dff0ef          	jal	ra,2334 <LwipArpCheck>
    28cc:	85a2                	mv	a1,s0
    28ce:	854a                	mv	a0,s2
    28d0:	eb1ff0ef          	jal	ra,2780 <etharp_request>
    28d4:	f80988e3          	beqz	s3,2864 <etharp_query+0x16>
    28d8:	a031                	j	28e4 <etharp_query+0x96>
    28da:	fef687e3          	beq	a3,a5,28c8 <etharp_query+0x7a>
    28de:	557d                	li	a0,-1
    28e0:	fe0984e3          	beqz	s3,28c8 <etharp_query+0x7a>
    28e4:	000a2783          	lw	a5,0(s4)
    28e8:	4709                	li	a4,2
    28ea:	97a6                	add	a5,a5,s1
    28ec:	47d4                	lw	a3,12(a5)
    28ee:	f6e69be3          	bne	a3,a4,2864 <etharp_query+0x16>
    28f2:	0049a403          	lw	s0,4(s3)
    28f6:	00978713          	addi	a4,a5,9
    28fa:	02e90613          	addi	a2,s2,46
    28fe:	00540693          	addi	a3,s0,5
    2902:	078d                	addi	a5,a5,3
    2904:	230c                	lbu	a1,0(a4)
    2906:	177d                	addi	a4,a4,-1
    2908:	16fd                	addi	a3,a3,-1
    290a:	b28c                	sb	a1,1(a3)
    290c:	220c                	lbu	a1,0(a2)
    290e:	167d                	addi	a2,a2,-1
    2910:	b2ec                	sb	a1,7(a3)
    2912:	fef719e3          	bne	a4,a5,2904 <etharp_query+0xb6>
    2916:	6505                	lui	a0,0x1
    2918:	80050513          	addi	a0,a0,-2048 # 800 <__stack_size>
    291c:	26ad                	jal	2c86 <htons>
    291e:	01892783          	lw	a5,24(s2)
    2922:	a448                	sb	a0,12(s0)
    2924:	8121                	srli	a0,a0,0x8
    2926:	b448                	sb	a0,13(s0)
    2928:	85ce                	mv	a1,s3
    292a:	854a                	mv	a0,s2
    292c:	9782                	jalr	a5
    292e:	bf1d                	j	2864 <etharp_query+0x16>

00002930 <etharp_output>:
    2930:	827fd2ef          	jal	t0,156 <__riscv_save_4>
    2934:	84ae                	mv	s1,a1
    2936:	1141                	addi	sp,sp,-16
    2938:	892a                	mv	s2,a0
    293a:	45b9                	li	a1,14
    293c:	8526                	mv	a0,s1
    293e:	8432                	mv	s0,a2
    2940:	6c0010ef          	jal	ra,4000 <pbuf_header>
    2944:	10051e63          	bnez	a0,2a60 <etharp_output+0x130>
    2948:	85ca                	mv	a1,s2
    294a:	8522                	mv	a0,s0
    294c:	7fc000ef          	jal	ra,3148 <ip_addr_isbroadcast>
    2950:	10051563          	bnez	a0,2a5a <etharp_output+0x12a>
    2954:	301c                	lbu	a5,1(s0)
    2956:	00044983          	lbu	s3,0(s0)
    295a:	f0000537          	lui	a0,0xf0000
    295e:	07a2                	slli	a5,a5,0x8
    2960:	0137e7b3          	or	a5,a5,s3
    2964:	00244983          	lbu	s3,2(s0)
    2968:	09c2                	slli	s3,s3,0x10
    296a:	00f9e7b3          	or	a5,s3,a5
    296e:	00344983          	lbu	s3,3(s0)
    2972:	09e2                	slli	s3,s3,0x18
    2974:	00f9e9b3          	or	s3,s3,a5
    2978:	26b9                	jal	2cc6 <ntohl>
    297a:	00a9f9b3          	and	s3,s3,a0
    297e:	e0000537          	lui	a0,0xe0000
    2982:	2691                	jal	2cc6 <ntohl>
    2984:	2010                	lbu	a2,0(s0)
    2986:	3014                	lbu	a3,1(s0)
    2988:	2038                	lbu	a4,2(s0)
    298a:	303c                	lbu	a5,3(s0)
    298c:	08a99c63          	bne	s3,a0,2a24 <etharp_output+0xf4>
    2990:	00869513          	slli	a0,a3,0x8
    2994:	8d51                	or	a0,a0,a2
    2996:	0742                	slli	a4,a4,0x10
    2998:	8d59                	or	a0,a0,a4
    299a:	07e2                	slli	a5,a5,0x18
    299c:	4585                	li	a1,1
    299e:	846c                	sh	a1,8(sp)
    29a0:	8d5d                	or	a0,a0,a5
    29a2:	05e00593          	li	a1,94
    29a6:	854c                	sb	a1,10(sp)
    29a8:	2e39                	jal	2cc6 <ntohl>
    29aa:	8141                	srli	a0,a0,0x10
    29ac:	07f57513          	andi	a0,a0,127
    29b0:	85c8                	sb	a0,11(sp)
    29b2:	3008                	lbu	a0,1(s0)
    29b4:	201c                	lbu	a5,0(s0)
    29b6:	0522                	slli	a0,a0,0x8
    29b8:	8d5d                	or	a0,a0,a5
    29ba:	203c                	lbu	a5,2(s0)
    29bc:	07c2                	slli	a5,a5,0x10
    29be:	8fc9                	or	a5,a5,a0
    29c0:	3028                	lbu	a0,3(s0)
    29c2:	0562                	slli	a0,a0,0x18
    29c4:	8d5d                	or	a0,a0,a5
    29c6:	2601                	jal	2cc6 <ntohl>
    29c8:	8121                	srli	a0,a0,0x8
    29ca:	8648                	sb	a0,12(sp)
    29cc:	3008                	lbu	a0,1(s0)
    29ce:	201c                	lbu	a5,0(s0)
    29d0:	0522                	slli	a0,a0,0x8
    29d2:	8d5d                	or	a0,a0,a5
    29d4:	203c                	lbu	a5,2(s0)
    29d6:	07c2                	slli	a5,a5,0x10
    29d8:	8fc9                	or	a5,a5,a0
    29da:	3028                	lbu	a0,3(s0)
    29dc:	0562                	slli	a0,a0,0x18
    29de:	8d5d                	or	a0,a0,a5
    29e0:	24dd                	jal	2cc6 <ntohl>
    29e2:	86c8                	sb	a0,13(sp)
    29e4:	0034                	addi	a3,sp,8
    29e6:	40c0                	lw	s0,4(s1)
    29e8:	4795                	li	a5,5
    29ea:	567d                	li	a2,-1
    29ec:	00540713          	addi	a4,s0,5
    29f0:	00f685b3          	add	a1,a3,a5
    29f4:	218c                	lbu	a1,0(a1)
    29f6:	177d                	addi	a4,a4,-1
    29f8:	b30c                	sb	a1,1(a4)
    29fa:	00f905b3          	add	a1,s2,a5
    29fe:	0295c583          	lbu	a1,41(a1)
    2a02:	17fd                	addi	a5,a5,-1
    2a04:	b36c                	sb	a1,7(a4)
    2a06:	fec795e3          	bne	a5,a2,29f0 <etharp_output+0xc0>
    2a0a:	6505                	lui	a0,0x1
    2a0c:	80050513          	addi	a0,a0,-2048 # 800 <__stack_size>
    2a10:	2c9d                	jal	2c86 <htons>
    2a12:	01892783          	lw	a5,24(s2)
    2a16:	a448                	sb	a0,12(s0)
    2a18:	8121                	srli	a0,a0,0x8
    2a1a:	b448                	sb	a0,13(s0)
    2a1c:	85a6                	mv	a1,s1
    2a1e:	854a                	mv	a0,s2
    2a20:	9782                	jalr	a5
    2a22:	a80d                	j	2a54 <etharp_output+0x124>
    2a24:	06a2                	slli	a3,a3,0x8
    2a26:	8ed1                	or	a3,a3,a2
    2a28:	0742                	slli	a4,a4,0x10
    2a2a:	8f55                	or	a4,a4,a3
    2a2c:	07e2                	slli	a5,a5,0x18
    2a2e:	8fd9                	or	a5,a5,a4
    2a30:	00492703          	lw	a4,4(s2)
    2a34:	8fb9                	xor	a5,a5,a4
    2a36:	00892703          	lw	a4,8(s2)
    2a3a:	8ff9                	and	a5,a5,a4
    2a3c:	c799                	beqz	a5,2a4a <etharp_output+0x11a>
    2a3e:	00c92783          	lw	a5,12(s2)
    2a42:	5571                	li	a0,-4
    2a44:	cb81                	beqz	a5,2a54 <etharp_output+0x124>
    2a46:	00c90413          	addi	s0,s2,12
    2a4a:	8626                	mv	a2,s1
    2a4c:	85a2                	mv	a1,s0
    2a4e:	854a                	mv	a0,s2
    2a50:	dffff0ef          	jal	ra,284e <etharp_query>
    2a54:	0141                	addi	sp,sp,16
    2a56:	f34fd06f          	j	18a <__riscv_restore_4>
    2a5a:	84018693          	addi	a3,gp,-1984 # 200000b0 <ethbroadcast>
    2a5e:	b761                	j	29e6 <etharp_output+0xb6>
    2a60:	5579                	li	a0,-2
    2a62:	bfcd                	j	2a54 <etharp_output+0x124>

00002a64 <ethernet_input>:
    2a64:	f0cfd2ef          	jal	t0,170 <__riscv_save_0>
    2a68:	4144                	lw	s1,4(a0)
    2a6a:	842a                	mv	s0,a0
    2a6c:	892e                	mv	s2,a1
    2a6e:	34dc                	lbu	a5,13(s1)
    2a70:	24c8                	lbu	a0,12(s1)
    2a72:	07a2                	slli	a5,a5,0x8
    2a74:	8d5d                	or	a0,a0,a5
    2a76:	2c01                	jal	2c86 <htons>
    2a78:	67a1                	lui	a5,0x8
    2a7a:	10078793          	addi	a5,a5,256 # 8100 <_free_r+0x70>
    2a7e:	00f51763          	bne	a0,a5,2a8c <ethernet_input+0x28>
    2a82:	389c                	lbu	a5,17(s1)
    2a84:	2888                	lbu	a0,16(s1)
    2a86:	07a2                	slli	a5,a5,0x8
    2a88:	8d5d                	or	a0,a0,a5
    2a8a:	2af5                	jal	2c86 <htons>
    2a8c:	80050793          	addi	a5,a0,-2048
    2a90:	cb91                	beqz	a5,2aa4 <ethernet_input+0x40>
    2a92:	6785                	lui	a5,0x1
    2a94:	80678793          	addi	a5,a5,-2042 # 806 <__stack_size+0x6>
    2a98:	04f50263          	beq	a0,a5,2adc <ethernet_input+0x78>
    2a9c:	8522                	mv	a0,s0
    2a9e:	5d0010ef          	jal	ra,406e <pbuf_free>
    2aa2:	a815                	j	2ad6 <ethernet_input+0x72>
    2aa4:	85a2                	mv	a1,s0
    2aa6:	854a                	mv	a0,s2
    2aa8:	b17ff0ef          	jal	ra,25be <etharp_ip_input>
    2aac:	34dc                	lbu	a5,13(s1)
    2aae:	24c8                	lbu	a0,12(s1)
    2ab0:	07a2                	slli	a5,a5,0x8
    2ab2:	8d5d                	or	a0,a0,a5
    2ab4:	2ac9                	jal	2c86 <htons>
    2ab6:	67a1                	lui	a5,0x8
    2ab8:	10078793          	addi	a5,a5,256 # 8100 <_free_r+0x70>
    2abc:	45b9                	li	a1,14
    2abe:	00f51363          	bne	a0,a5,2ac4 <ethernet_input+0x60>
    2ac2:	45c9                	li	a1,18
    2ac4:	40b005b3          	neg	a1,a1
    2ac8:	8522                	mv	a0,s0
    2aca:	536010ef          	jal	ra,4000 <pbuf_header>
    2ace:	f579                	bnez	a0,2a9c <ethernet_input+0x38>
    2ad0:	85ca                	mv	a1,s2
    2ad2:	8522                	mv	a0,s0
    2ad4:	24a9                	jal	2d1e <ip_input>
    2ad6:	4501                	li	a0,0
    2ad8:	ebcfd06f          	j	194 <__riscv_restore_0>
    2adc:	8622                	mv	a2,s0
    2ade:	02990593          	addi	a1,s2,41
    2ae2:	854a                	mv	a0,s2
    2ae4:	b35ff0ef          	jal	ra,2618 <etharp_arp_input>
    2ae8:	b7fd                	j	2ad6 <ethernet_input+0x72>

00002aea <ethernetif_init>:
    2aea:	e86fd2ef          	jal	t0,170 <__riscv_save_0>
    2aee:	200047b7          	lui	a5,0x20004
    2af2:	19878793          	addi	a5,a5,408 # 20004198 <dhcp_host_name>
    2af6:	d15c                	sw	a5,36(a0)
    2af8:	06500793          	li	a5,101
    2afc:	02f509a3          	sb	a5,51(a0)
    2b00:	06e00793          	li	a5,110
    2b04:	02f50a23          	sb	a5,52(a0)
    2b08:	000037b7          	lui	a5,0x3
    2b0c:	93078793          	addi	a5,a5,-1744 # 2930 <etharp_output>
    2b10:	c95c                	sw	a5,20(a0)
    2b12:	000037b7          	lui	a5,0x3
    2b16:	b4e78793          	addi	a5,a5,-1202 # 2b4e <low_level_output>
    2b1a:	cd1c                	sw	a5,24(a0)
    2b1c:	200045b7          	lui	a1,0x20004
    2b20:	4799                	li	a5,6
    2b22:	842a                	mv	s0,a0
    2b24:	02f50423          	sb	a5,40(a0)
    2b28:	00052e23          	sw	zero,28(a0)
    2b2c:	4619                	li	a2,6
    2b2e:	29158593          	addi	a1,a1,657 # 20004291 <WCHNetIf+0x29>
    2b32:	02950513          	addi	a0,a0,41
    2b36:	4fb040ef          	jal	ra,7830 <memcpy>
    2b3a:	5dc00793          	li	a5,1500
    2b3e:	b81e                	sh	a5,48(s0)
    2b40:	03300793          	li	a5,51
    2b44:	02f40923          	sb	a5,50(s0)
    2b48:	4501                	li	a0,0
    2b4a:	e4afd06f          	j	194 <__riscv_restore_0>

00002b4e <low_level_output>:
    2b4e:	e22fd2ef          	jal	t0,170 <__riscv_save_0>
    2b52:	64b1                	lui	s1,0xc
    2b54:	842e                	mv	s0,a1
    2b56:	35148493          	addi	s1,s1,849 # c351 <_data_lma+0x34dd>
    2b5a:	fa8ff0ef          	jal	ra,2302 <WCHNET_GetPHYStatus>
    2b5e:	8911                	andi	a0,a0,4
    2b60:	cd15                	beqz	a0,2b9c <low_level_output+0x4e>
    2b62:	14fd                	addi	s1,s1,-1
    2b64:	cc85                	beqz	s1,2b9c <low_level_output+0x4e>
    2b66:	d0bfe0ef          	jal	ra,1870 <getTxBuffAddr>
    2b6a:	892a                	mv	s2,a0
    2b6c:	d57d                	beqz	a0,2b5a <low_level_output+0xc>
    2b6e:	87aa                	mv	a5,a0
    2b70:	4481                	li	s1,0
    2b72:	e801                	bnez	s0,2b82 <low_level_output+0x34>
    2b74:	85ca                	mv	a1,s2
    2b76:	8526                	mv	a0,s1
    2b78:	cb9fe0ef          	jal	ra,1830 <WCHNET_Tx>
    2b7c:	4501                	li	a0,0
    2b7e:	e16fd06f          	j	194 <__riscv_restore_0>
    2b82:	2432                	lhu	a2,10(s0)
    2b84:	404c                	lw	a1,4(s0)
    2b86:	853e                	mv	a0,a5
    2b88:	4a9040ef          	jal	ra,7830 <memcpy>
    2b8c:	243a                	lhu	a4,10(s0)
    2b8e:	4000                	lw	s0,0(s0)
    2b90:	94ba                	add	s1,s1,a4
    2b92:	04c2                	slli	s1,s1,0x10
    2b94:	00e507b3          	add	a5,a0,a4
    2b98:	80c1                	srli	s1,s1,0x10
    2b9a:	bfe1                	j	2b72 <low_level_output+0x24>
    2b9c:	5551                	li	a0,-12
    2b9e:	b7c5                	j	2b7e <low_level_output+0x30>

00002ba0 <ethernetif_input>:
    2ba0:	db6fd2ef          	jal	t0,156 <__riscv_save_4>
    2ba4:	200047b7          	lui	a5,0x20004
    2ba8:	2607a783          	lw	a5,608(a5) # 20004260 <WCHCfg+0x24>
    2bac:	89aa                	mv	s3,a0
    2bae:	8d418513          	addi	a0,gp,-1836 # 20000144 <frame>
    2bb2:	8d418493          	addi	s1,gp,-1836 # 20000144 <frame>
    2bb6:	9782                	jalr	a5
    2bb8:	408c                	lw	a1,0(s1)
    2bba:	c9a9                	beqz	a1,2c0c <ethernetif_input+0x6c>
    2bbc:	8c91c783          	lbu	a5,-1847(gp) # 20000139 <phydata>
    2bc0:	8d418413          	addi	s0,gp,-1836 # 20000144 <frame>
    2bc4:	0ff7f793          	andi	a5,a5,255
    2bc8:	e781                	bnez	a5,2bd0 <ethernetif_input+0x30>
    2bca:	4785                	li	a5,1
    2bcc:	8cf184a3          	sb	a5,-1847(gp) # 20000139 <phydata>
    2bd0:	05c2                	slli	a1,a1,0x10
    2bd2:	460d                	li	a2,3
    2bd4:	81c1                	srli	a1,a1,0x10
    2bd6:	450d                	li	a0,3
    2bd8:	4044                	lw	s1,4(s0)
    2bda:	4e2010ef          	jal	ra,40bc <pbuf_alloc>
    2bde:	892a                	mv	s2,a0
    2be0:	c515                	beqz	a0,2c0c <ethernetif_input+0x6c>
    2be2:	842a                	mv	s0,a0
    2be4:	2432                	lhu	a2,10(s0)
    2be6:	4048                	lw	a0,4(s0)
    2be8:	85a6                	mv	a1,s1
    2bea:	447040ef          	jal	ra,7830 <memcpy>
    2bee:	243e                	lhu	a5,10(s0)
    2bf0:	4000                	lw	s0,0(s0)
    2bf2:	94be                	add	s1,s1,a5
    2bf4:	f865                	bnez	s0,2be4 <ethernetif_input+0x44>
    2bf6:	c29fe0ef          	jal	ra,181e <setRxBuffAddr>
    2bfa:	0109a783          	lw	a5,16(s3)
    2bfe:	85ce                	mv	a1,s3
    2c00:	854a                	mv	a0,s2
    2c02:	9782                	jalr	a5
    2c04:	c501                	beqz	a0,2c0c <ethernetif_input+0x6c>
    2c06:	854a                	mv	a0,s2
    2c08:	466010ef          	jal	ra,406e <pbuf_free>
    2c0c:	d7efd06f          	j	18a <__riscv_restore_4>

00002c10 <wch_ethernetif_init>:
    2c10:	d60fd2ef          	jal	t0,170 <__riscv_save_0>
    2c14:	1141                	addi	sp,sp,-16
    2c16:	20004437          	lui	s0,0x20004
    2c1a:	c202                	sw	zero,4(sp)
    2c1c:	c402                	sw	zero,8(sp)
    2c1e:	c602                	sw	zero,12(sp)
    2c20:	799000ef          	jal	ra,3bb8 <lwip_init>
    2c24:	26840513          	addi	a0,s0,616 # 20004268 <WCHNetIf>
    2c28:	200045b7          	lui	a1,0x20004
    2c2c:	4619                	li	a2,6
    2c2e:	20458593          	addi	a1,a1,516 # 20004204 <NetInf+0xc>
    2c32:	02950513          	addi	a0,a0,41
    2c36:	3fb040ef          	jal	ra,7830 <memcpy>
    2c3a:	200047b7          	lui	a5,0x20004
    2c3e:	1f87a703          	lw	a4,504(a5) # 200041f8 <NetInf>
    2c42:	1f878793          	addi	a5,a5,504
    2c46:	26840513          	addi	a0,s0,616
    2c4a:	c23a                	sw	a4,4(sp)
    2c4c:	4798                	lw	a4,8(a5)
    2c4e:	43dc                	lw	a5,4(a5)
    2c50:	c43a                	sw	a4,8(sp)
    2c52:	c63e                	sw	a5,12(sp)
    2c54:	8e01aa23          	sw	zero,-1804(gp) # 20000164 <netif_list>
    2c58:	8e01a823          	sw	zero,-1808(gp) # 20000160 <netif_default>
    2c5c:	396010ef          	jal	ra,3ff2 <netif_set_default>
    2c60:	00003837          	lui	a6,0x3
    2c64:	000037b7          	lui	a5,0x3
    2c68:	0074                	addi	a3,sp,12
    2c6a:	0030                	addi	a2,sp,8
    2c6c:	004c                	addi	a1,sp,4
    2c6e:	a6480813          	addi	a6,a6,-1436 # 2a64 <ethernet_input>
    2c72:	aea78793          	addi	a5,a5,-1302 # 2aea <ethernetif_init>
    2c76:	4701                	li	a4,0
    2c78:	26840513          	addi	a0,s0,616
    2c7c:	31c010ef          	jal	ra,3f98 <netif_add>
    2c80:	0141                	addi	sp,sp,16
    2c82:	d12fd06f          	j	194 <__riscv_restore_0>

00002c86 <htons>:
    2c86:	00851793          	slli	a5,a0,0x8
    2c8a:	8121                	srli	a0,a0,0x8
    2c8c:	8d5d                	or	a0,a0,a5
    2c8e:	0542                	slli	a0,a0,0x10
    2c90:	8141                	srli	a0,a0,0x10
    2c92:	8082                	ret

00002c94 <ntohs>:
    2c94:	00851793          	slli	a5,a0,0x8
    2c98:	8121                	srli	a0,a0,0x8
    2c9a:	8d5d                	or	a0,a0,a5
    2c9c:	0542                	slli	a0,a0,0x10
    2c9e:	8141                	srli	a0,a0,0x10
    2ca0:	8082                	ret

00002ca2 <htonl>:
    2ca2:	01855713          	srli	a4,a0,0x18
    2ca6:	01851793          	slli	a5,a0,0x18
    2caa:	8fd9                	or	a5,a5,a4
    2cac:	00ff06b7          	lui	a3,0xff0
    2cb0:	00851713          	slli	a4,a0,0x8
    2cb4:	8f75                	and	a4,a4,a3
    2cb6:	8fd9                	or	a5,a5,a4
    2cb8:	6741                	lui	a4,0x10
    2cba:	f0070713          	addi	a4,a4,-256 # ff00 <_data_lma+0x708c>
    2cbe:	8121                	srli	a0,a0,0x8
    2cc0:	8d79                	and	a0,a0,a4
    2cc2:	8d5d                	or	a0,a0,a5
    2cc4:	8082                	ret

00002cc6 <ntohl>:
    2cc6:	caafd2ef          	jal	t0,170 <__riscv_save_0>
    2cca:	fd9ff0ef          	jal	ra,2ca2 <htonl>
    2cce:	cc6fd06f          	j	194 <__riscv_restore_0>

00002cd2 <ip_route>:
    2cd2:	c9efd2ef          	jal	t0,170 <__riscv_save_0>
    2cd6:	8f41a403          	lw	s0,-1804(gp) # 20000164 <netif_list>
    2cda:	84aa                	mv	s1,a0
    2cdc:	ec01                	bnez	s0,2cf4 <ip_route+0x22>
    2cde:	8f01a503          	lw	a0,-1808(gp) # 20000160 <netif_default>
    2ce2:	c511                	beqz	a0,2cee <ip_route+0x1c>
    2ce4:	314010ef          	jal	ra,3ff8 <netif_is_up>
    2ce8:	c119                	beqz	a0,2cee <ip_route+0x1c>
    2cea:	8f01a403          	lw	s0,-1808(gp) # 20000160 <netif_default>
    2cee:	8522                	mv	a0,s0
    2cf0:	ca4fd06f          	j	194 <__riscv_restore_0>
    2cf4:	8522                	mv	a0,s0
    2cf6:	302010ef          	jal	ra,3ff8 <netif_is_up>
    2cfa:	c105                	beqz	a0,2d1a <ip_route+0x48>
    2cfc:	3098                	lbu	a4,1(s1)
    2cfe:	209c                	lbu	a5,0(s1)
    2d00:	0722                	slli	a4,a4,0x8
    2d02:	8f5d                	or	a4,a4,a5
    2d04:	20bc                	lbu	a5,2(s1)
    2d06:	07c2                	slli	a5,a5,0x10
    2d08:	8f5d                	or	a4,a4,a5
    2d0a:	30bc                	lbu	a5,3(s1)
    2d0c:	07e2                	slli	a5,a5,0x18
    2d0e:	8fd9                	or	a5,a5,a4
    2d10:	4058                	lw	a4,4(s0)
    2d12:	8fb9                	xor	a5,a5,a4
    2d14:	4418                	lw	a4,8(s0)
    2d16:	8ff9                	and	a5,a5,a4
    2d18:	dbf9                	beqz	a5,2cee <ip_route+0x1c>
    2d1a:	4000                	lw	s0,0(s0)
    2d1c:	b7c1                	j	2cdc <ip_route+0xa>

00002d1e <ip_input>:
    2d1e:	c2afd2ef          	jal	t0,148 <__riscv_save_10>
    2d22:	4140                	lw	s0,4(a0)
    2d24:	84aa                	mv	s1,a0
    2d26:	89ae                	mv	s3,a1
    2d28:	301c                	lbu	a5,1(s0)
    2d2a:	2008                	lbu	a0,0(s0)
    2d2c:	07a2                	slli	a5,a5,0x8
    2d2e:	8d5d                	or	a0,a0,a5
    2d30:	f65ff0ef          	jal	ra,2c94 <ntohs>
    2d34:	8131                	srli	a0,a0,0xc
    2d36:	0542                	slli	a0,a0,0x10
    2d38:	8141                	srli	a0,a0,0x10
    2d3a:	4791                	li	a5,4
    2d3c:	00f50663          	beq	a0,a5,2d48 <ip_input+0x2a>
    2d40:	8526                	mv	a0,s1
    2d42:	32c010ef          	jal	ra,406e <pbuf_free>
    2d46:	a431                	j	2f52 <ip_input+0x234>
    2d48:	301c                	lbu	a5,1(s0)
    2d4a:	2008                	lbu	a0,0(s0)
    2d4c:	07a2                	slli	a5,a5,0x8
    2d4e:	8d5d                	or	a0,a0,a5
    2d50:	f45ff0ef          	jal	ra,2c94 <ntohs>
    2d54:	8119                	srli	a0,a0,0x6
    2d56:	303c                	lbu	a5,3(s0)
    2d58:	03c57a13          	andi	s4,a0,60
    2d5c:	2028                	lbu	a0,2(s0)
    2d5e:	07a2                	slli	a5,a5,0x8
    2d60:	8d5d                	or	a0,a0,a5
    2d62:	f33ff0ef          	jal	ra,2c94 <ntohs>
    2d66:	24be                	lhu	a5,10(s1)
    2d68:	892a                	mv	s2,a0
    2d6a:	fd47ebe3          	bltu	a5,s4,2d40 <ip_input+0x22>
    2d6e:	249e                	lhu	a5,8(s1)
    2d70:	fca7e8e3          	bltu	a5,a0,2d40 <ip_input+0x22>
    2d74:	85d2                	mv	a1,s4
    2d76:	8522                	mv	a0,s0
    2d78:	23b040ef          	jal	ra,77b2 <inet_chksum>
    2d7c:	f171                	bnez	a0,2d40 <ip_input+0x22>
    2d7e:	85ca                	mv	a1,s2
    2d80:	8526                	mv	a0,s1
    2d82:	47a010ef          	jal	ra,41fc <pbuf_realloc>
    2d86:	f0000537          	lui	a0,0xf0000
    2d8a:	f3dff0ef          	jal	ra,2cc6 <ntohl>
    2d8e:	e0000537          	lui	a0,0xe0000
    2d92:	f35ff0ef          	jal	ra,2cc6 <ntohl>
    2d96:	894e                	mv	s2,s3
    2d98:	4b05                	li	s6,1
    2d9a:	01040b93          	addi	s7,s0,16
    2d9e:	854a                	mv	a0,s2
    2da0:	258010ef          	jal	ra,3ff8 <netif_is_up>
    2da4:	e511                	bnez	a0,2db0 <ip_input+0x92>
    2da6:	120b1363          	bnez	s6,2ecc <ip_input+0x1ae>
    2daa:	00092903          	lw	s2,0(s2)
    2dae:	a20d                	j	2ed0 <ip_input+0x1b2>
    2db0:	00490793          	addi	a5,s2,4
    2db4:	dbed                	beqz	a5,2da6 <ip_input+0x88>
    2db6:	00492683          	lw	a3,4(s2)
    2dba:	d6f5                	beqz	a3,2da6 <ip_input+0x88>
    2dbc:	3818                	lbu	a4,17(s0)
    2dbe:	281c                	lbu	a5,16(s0)
    2dc0:	0722                	slli	a4,a4,0x8
    2dc2:	8f5d                	or	a4,a4,a5
    2dc4:	283c                	lbu	a5,18(s0)
    2dc6:	07c2                	slli	a5,a5,0x10
    2dc8:	8f5d                	or	a4,a4,a5
    2dca:	383c                	lbu	a5,19(s0)
    2dcc:	07e2                	slli	a5,a5,0x18
    2dce:	8fd9                	or	a5,a5,a4
    2dd0:	04f68263          	beq	a3,a5,2e14 <ip_input+0xf6>
    2dd4:	85ca                	mv	a1,s2
    2dd6:	855e                	mv	a0,s7
    2dd8:	2e85                	jal	3148 <ip_addr_isbroadcast>
    2dda:	ed0d                	bnez	a0,2e14 <ip_input+0xf6>
    2ddc:	381c                	lbu	a5,17(s0)
    2dde:	01044a83          	lbu	s5,16(s0)
    2de2:	f0000537          	lui	a0,0xf0000
    2de6:	07a2                	slli	a5,a5,0x8
    2de8:	0157e7b3          	or	a5,a5,s5
    2dec:	01244a83          	lbu	s5,18(s0)
    2df0:	0ac2                	slli	s5,s5,0x10
    2df2:	00fae7b3          	or	a5,s5,a5
    2df6:	01344a83          	lbu	s5,19(s0)
    2dfa:	0ae2                	slli	s5,s5,0x18
    2dfc:	00faeab3          	or	s5,s5,a5
    2e00:	ec7ff0ef          	jal	ra,2cc6 <ntohl>
    2e04:	00aafab3          	and	s5,s5,a0
    2e08:	e0000537          	lui	a0,0xe0000
    2e0c:	ebbff0ef          	jal	ra,2cc6 <ntohl>
    2e10:	f8aa9be3          	bne	s5,a0,2da6 <ip_input+0x88>
    2e14:	3458                	lbu	a4,13(s0)
    2e16:	245c                	lbu	a5,12(s0)
    2e18:	0722                	slli	a4,a4,0x8
    2e1a:	8f5d                	or	a4,a4,a5
    2e1c:	247c                	lbu	a5,14(s0)
    2e1e:	07c2                	slli	a5,a5,0x10
    2e20:	8f5d                	or	a4,a4,a5
    2e22:	347c                	lbu	a5,15(s0)
    2e24:	07e2                	slli	a5,a5,0x18
    2e26:	8fd9                	or	a5,a5,a4
    2e28:	c3b9                	beqz	a5,2e6e <ip_input+0x150>
    2e2a:	85ce                	mv	a1,s3
    2e2c:	00c40513          	addi	a0,s0,12
    2e30:	2e21                	jal	3148 <ip_addr_isbroadcast>
    2e32:	f00517e3          	bnez	a0,2d40 <ip_input+0x22>
    2e36:	345c                	lbu	a5,13(s0)
    2e38:	00c44a03          	lbu	s4,12(s0)
    2e3c:	f0000537          	lui	a0,0xf0000
    2e40:	07a2                	slli	a5,a5,0x8
    2e42:	0147e7b3          	or	a5,a5,s4
    2e46:	00e44a03          	lbu	s4,14(s0)
    2e4a:	0a42                	slli	s4,s4,0x10
    2e4c:	00fa67b3          	or	a5,s4,a5
    2e50:	00f44a03          	lbu	s4,15(s0)
    2e54:	0a62                	slli	s4,s4,0x18
    2e56:	00fa6a33          	or	s4,s4,a5
    2e5a:	e6dff0ef          	jal	ra,2cc6 <ntohl>
    2e5e:	00aa7a33          	and	s4,s4,a0
    2e62:	e0000537          	lui	a0,0xe0000
    2e66:	e61ff0ef          	jal	ra,2cc6 <ntohl>
    2e6a:	ecaa0be3          	beq	s4,a0,2d40 <ip_input+0x22>
    2e6e:	ec0909e3          	beqz	s2,2d40 <ip_input+0x22>
    2e72:	00744903          	lbu	s2,7(s0)
    2e76:	2068                	lbu	a0,6(s0)
    2e78:	0922                	slli	s2,s2,0x8
    2e7a:	00a96933          	or	s2,s2,a0
    2e7e:	6511                	lui	a0,0x4
    2e80:	157d                	addi	a0,a0,-1
    2e82:	e05ff0ef          	jal	ra,2c86 <htons>
    2e86:	00a97533          	and	a0,s2,a0
    2e8a:	c511                	beqz	a0,2e96 <ip_input+0x178>
    2e8c:	8526                	mv	a0,s1
    2e8e:	26ed                	jal	3278 <ip_reass>
    2e90:	84aa                	mv	s1,a0
    2e92:	c161                	beqz	a0,2f52 <ip_input+0x234>
    2e94:	4140                	lw	s0,4(a0)
    2e96:	85ce                	mv	a1,s3
    2e98:	8526                	mv	a0,s1
    2e9a:	4a2010ef          	jal	ra,433c <raw_input>
    2e9e:	e955                	bnez	a0,2f52 <ip_input+0x234>
    2ea0:	341c                	lbu	a5,9(s0)
    2ea2:	2408                	lbu	a0,8(s0)
    2ea4:	07a2                	slli	a5,a5,0x8
    2ea6:	8d5d                	or	a0,a0,a5
    2ea8:	dedff0ef          	jal	ra,2c94 <ntohs>
    2eac:	0ff57513          	andi	a0,a0,255
    2eb0:	4799                	li	a5,6
    2eb2:	0af50363          	beq	a0,a5,2f58 <ip_input+0x23a>
    2eb6:	47c5                	li	a5,17
    2eb8:	08f50963          	beq	a0,a5,2f4a <ip_input+0x22c>
    2ebc:	4785                	li	a5,1
    2ebe:	0af51263          	bne	a0,a5,2f62 <ip_input+0x244>
    2ec2:	85ce                	mv	a1,s3
    2ec4:	8526                	mv	a0,s1
    2ec6:	4ec040ef          	jal	ra,73b2 <icmp_input>
    2eca:	a061                	j	2f52 <ip_input+0x234>
    2ecc:	8f41a903          	lw	s2,-1804(gp) # 20000164 <netif_list>
    2ed0:	01391463          	bne	s2,s3,2ed8 <ip_input+0x1ba>
    2ed4:	00092903          	lw	s2,0(s2)
    2ed8:	4b01                	li	s6,0
    2eda:	ec0912e3          	bnez	s2,2d9e <ip_input+0x80>
    2ede:	341c                	lbu	a5,9(s0)
    2ee0:	2408                	lbu	a0,8(s0)
    2ee2:	07a2                	slli	a5,a5,0x8
    2ee4:	8d5d                	or	a0,a0,a5
    2ee6:	dafff0ef          	jal	ra,2c94 <ntohs>
    2eea:	0ff57513          	andi	a0,a0,255
    2eee:	47c5                	li	a5,17
    2ef0:	00f51e63          	bne	a0,a5,2f0c <ip_input+0x1ee>
    2ef4:	014407b3          	add	a5,s0,s4
    2ef8:	23a8                	lbu	a0,2(a5)
    2efa:	33bc                	lbu	a5,3(a5)
    2efc:	07a2                	slli	a5,a5,0x8
    2efe:	8d5d                	or	a0,a0,a5
    2f00:	d95ff0ef          	jal	ra,2c94 <ntohs>
    2f04:	04400793          	li	a5,68
    2f08:	02f50d63          	beq	a0,a5,2f42 <ip_input+0x224>
    2f0c:	4a85                	li	s5,1
    2f0e:	341c                	lbu	a5,9(s0)
    2f10:	2408                	lbu	a0,8(s0)
    2f12:	07a2                	slli	a5,a5,0x8
    2f14:	8d5d                	or	a0,a0,a5
    2f16:	d7fff0ef          	jal	ra,2c94 <ntohs>
    2f1a:	0ff57513          	andi	a0,a0,255
    2f1e:	47c5                	li	a5,17
    2f20:	08f51963          	bne	a0,a5,2fb2 <ip_input+0x294>
    2f24:	9a22                	add	s4,s4,s0
    2f26:	003a4783          	lbu	a5,3(s4)
    2f2a:	002a4503          	lbu	a0,2(s4)
    2f2e:	07a2                	slli	a5,a5,0x8
    2f30:	8d5d                	or	a0,a0,a5
    2f32:	d63ff0ef          	jal	ra,2c94 <ntohs>
    2f36:	76c00793          	li	a5,1900
    2f3a:	06f51c63          	bne	a0,a5,2fb2 <ip_input+0x294>
    2f3e:	894e                	mv	s2,s3
    2f40:	b73d                	j	2e6e <ip_input+0x150>
    2f42:	f20998e3          	bnez	s3,2e72 <ip_input+0x154>
    2f46:	4a81                	li	s5,0
    2f48:	b7d9                	j	2f0e <ip_input+0x1f0>
    2f4a:	85ce                	mv	a1,s3
    2f4c:	8526                	mv	a0,s1
    2f4e:	773030ef          	jal	ra,6ec0 <udp_input>
    2f52:	4501                	li	a0,0
    2f54:	a2cfd06f          	j	180 <__riscv_restore_10>
    2f58:	85ce                	mv	a1,s3
    2f5a:	8526                	mv	a0,s1
    2f5c:	139020ef          	jal	ra,5894 <tcp_input>
    2f60:	bfcd                	j	2f52 <ip_input+0x234>
    2f62:	85ce                	mv	a1,s3
    2f64:	01040513          	addi	a0,s0,16
    2f68:	22c5                	jal	3148 <ip_addr_isbroadcast>
    2f6a:	dc051be3          	bnez	a0,2d40 <ip_input+0x22>
    2f6e:	381c                	lbu	a5,17(s0)
    2f70:	01044903          	lbu	s2,16(s0)
    2f74:	f0000537          	lui	a0,0xf0000
    2f78:	07a2                	slli	a5,a5,0x8
    2f7a:	0127e7b3          	or	a5,a5,s2
    2f7e:	01244903          	lbu	s2,18(s0)
    2f82:	0942                	slli	s2,s2,0x10
    2f84:	00f967b3          	or	a5,s2,a5
    2f88:	01344903          	lbu	s2,19(s0)
    2f8c:	0962                	slli	s2,s2,0x18
    2f8e:	00f96933          	or	s2,s2,a5
    2f92:	d35ff0ef          	jal	ra,2cc6 <ntohl>
    2f96:	00a97933          	and	s2,s2,a0
    2f9a:	e0000537          	lui	a0,0xe0000
    2f9e:	d29ff0ef          	jal	ra,2cc6 <ntohl>
    2fa2:	d8a90fe3          	beq	s2,a0,2d40 <ip_input+0x22>
    2fa6:	c0c0                	sw	s0,4(s1)
    2fa8:	4589                	li	a1,2
    2faa:	8526                	mv	a0,s1
    2fac:	656040ef          	jal	ra,7602 <icmp_dest_unreach>
    2fb0:	bb41                	j	2d40 <ip_input+0x22>
    2fb2:	e60a91e3          	bnez	s5,2e14 <ip_input+0xf6>
    2fb6:	b369                	j	2d40 <ip_input+0x22>

00002fb8 <ip_output_if>:
    2fb8:	990fd2ef          	jal	t0,148 <__riscv_save_10>
    2fbc:	89aa                	mv	s3,a0
    2fbe:	8942                	mv	s2,a6
    2fc0:	12060f63          	beqz	a2,30fe <ip_output_if+0x146>
    2fc4:	8aae                	mv	s5,a1
    2fc6:	45d1                	li	a1,20
    2fc8:	8a3a                	mv	s4,a4
    2fca:	84b2                	mv	s1,a2
    2fcc:	8bb6                	mv	s7,a3
    2fce:	8b3e                	mv	s6,a5
    2fd0:	030010ef          	jal	ra,4000 <pbuf_header>
    2fd4:	5779                	li	a4,-2
    2fd6:	12051163          	bnez	a0,30f8 <ip_output_if+0x140>
    2fda:	0049a403          	lw	s0,4(s3)
    2fde:	0ba2                	slli	s7,s7,0x8
    2fe0:	341c                	lbu	a5,9(s0)
    2fe2:	2408                	lbu	a0,8(s0)
    2fe4:	07a2                	slli	a5,a5,0x8
    2fe6:	8d5d                	or	a0,a0,a5
    2fe8:	cadff0ef          	jal	ra,2c94 <ntohs>
    2fec:	0ff57513          	andi	a0,a0,255
    2ff0:	01756533          	or	a0,a0,s7
    2ff4:	c93ff0ef          	jal	ra,2c86 <htons>
    2ff8:	00855713          	srli	a4,a0,0x8
    2ffc:	b418                	sb	a4,9(s0)
    2ffe:	a408                	sb	a0,8(s0)
    3000:	c95ff0ef          	jal	ra,2c94 <ntohs>
    3004:	8121                	srli	a0,a0,0x8
    3006:	0542                	slli	a0,a0,0x10
    3008:	8141                	srli	a0,a0,0x10
    300a:	0522                	slli	a0,a0,0x8
    300c:	01656533          	or	a0,a0,s6
    3010:	0542                	slli	a0,a0,0x10
    3012:	8141                	srli	a0,a0,0x10
    3014:	c73ff0ef          	jal	ra,2c86 <htons>
    3018:	3098                	lbu	a4,1(s1)
    301a:	209c                	lbu	a5,0(s1)
    301c:	a408                	sb	a0,8(s0)
    301e:	0722                	slli	a4,a4,0x8
    3020:	8f5d                	or	a4,a4,a5
    3022:	20bc                	lbu	a5,2(s1)
    3024:	8121                	srli	a0,a0,0x8
    3026:	b408                	sb	a0,9(s0)
    3028:	07c2                	slli	a5,a5,0x10
    302a:	8f5d                	or	a4,a4,a5
    302c:	30bc                	lbu	a5,3(s1)
    302e:	6511                	lui	a0,0x4
    3030:	50050513          	addi	a0,a0,1280 # 4500 <tcp_bind+0x8e>
    3034:	07e2                	slli	a5,a5,0x18
    3036:	8fd9                	or	a5,a5,a4
    3038:	0087d713          	srli	a4,a5,0x8
    303c:	a81c                	sb	a5,16(s0)
    303e:	b818                	sb	a4,17(s0)
    3040:	0107d713          	srli	a4,a5,0x10
    3044:	83e1                	srli	a5,a5,0x18
    3046:	b83c                	sb	a5,19(s0)
    3048:	a838                	sb	a4,18(s0)
    304a:	00aa6533          	or	a0,s4,a0
    304e:	c39ff0ef          	jal	ra,2c86 <htons>
    3052:	a008                	sb	a0,0(s0)
    3054:	8121                	srli	a0,a0,0x8
    3056:	b008                	sb	a0,1(s0)
    3058:	0089d503          	lhu	a0,8(s3)
    305c:	8dc18a13          	addi	s4,gp,-1828 # 2000014c <ip_id.2936>
    3060:	c27ff0ef          	jal	ra,2c86 <htons>
    3064:	a028                	sb	a0,2(s0)
    3066:	8121                	srli	a0,a0,0x8
    3068:	b028                	sb	a0,3(s0)
    306a:	000a5503          	lhu	a0,0(s4)
    306e:	00040323          	sb	zero,6(s0)
    3072:	000403a3          	sb	zero,7(s0)
    3076:	c11ff0ef          	jal	ra,2c86 <htons>
    307a:	000a5783          	lhu	a5,0(s4)
    307e:	a048                	sb	a0,4(s0)
    3080:	8121                	srli	a0,a0,0x8
    3082:	0785                	addi	a5,a5,1
    3084:	b048                	sb	a0,5(s0)
    3086:	00fa1023          	sh	a5,0(s4)
    308a:	020a8163          	beqz	s5,30ac <ip_output_if+0xf4>
    308e:	001ac703          	lbu	a4,1(s5)
    3092:	000ac783          	lbu	a5,0(s5)
    3096:	0722                	slli	a4,a4,0x8
    3098:	8f5d                	or	a4,a4,a5
    309a:	002ac783          	lbu	a5,2(s5)
    309e:	07c2                	slli	a5,a5,0x10
    30a0:	8f5d                	or	a4,a4,a5
    30a2:	003ac783          	lbu	a5,3(s5)
    30a6:	07e2                	slli	a5,a5,0x18
    30a8:	8fd9                	or	a5,a5,a4
    30aa:	e799                	bnez	a5,30b8 <ip_output_if+0x100>
    30ac:	00490713          	addi	a4,s2,4
    30b0:	4781                	li	a5,0
    30b2:	c319                	beqz	a4,30b8 <ip_output_if+0x100>
    30b4:	00492783          	lw	a5,4(s2)
    30b8:	0087d713          	srli	a4,a5,0x8
    30bc:	a45c                	sb	a5,12(s0)
    30be:	b458                	sb	a4,13(s0)
    30c0:	0107d713          	srli	a4,a5,0x10
    30c4:	83e1                	srli	a5,a5,0x18
    30c6:	a478                	sb	a4,14(s0)
    30c8:	b47c                	sb	a5,15(s0)
    30ca:	00040523          	sb	zero,10(s0)
    30ce:	000405a3          	sb	zero,11(s0)
    30d2:	45d1                	li	a1,20
    30d4:	8522                	mv	a0,s0
    30d6:	6dc040ef          	jal	ra,77b2 <inet_chksum>
    30da:	a428                	sb	a0,10(s0)
    30dc:	8121                	srli	a0,a0,0x8
    30de:	b428                	sb	a0,11(s0)
    30e0:	03095783          	lhu	a5,48(s2)
    30e4:	c385                	beqz	a5,3104 <ip_output_if+0x14c>
    30e6:	0089d703          	lhu	a4,8(s3)
    30ea:	00e7fd63          	bgeu	a5,a4,3104 <ip_output_if+0x14c>
    30ee:	8626                	mv	a2,s1
    30f0:	85ca                	mv	a1,s2
    30f2:	854e                	mv	a0,s3
    30f4:	2385                	jal	3654 <ip_frag>
    30f6:	872a                	mv	a4,a0
    30f8:	853a                	mv	a0,a4
    30fa:	886fd06f          	j	180 <__riscv_restore_10>
    30fe:	4144                	lw	s1,4(a0)
    3100:	04c1                	addi	s1,s1,16
    3102:	bff9                	j	30e0 <ip_output_if+0x128>
    3104:	01492783          	lw	a5,20(s2)
    3108:	8626                	mv	a2,s1
    310a:	85ce                	mv	a1,s3
    310c:	854a                	mv	a0,s2
    310e:	9782                	jalr	a5
    3110:	b7dd                	j	30f6 <ip_output_if+0x13e>

00003112 <ip_output>:
    3112:	85efd2ef          	jal	t0,170 <__riscv_save_0>
    3116:	1101                	addi	sp,sp,-32
    3118:	842a                	mv	s0,a0
    311a:	8532                	mv	a0,a2
    311c:	ce2e                	sw	a1,28(sp)
    311e:	cc36                	sw	a3,24(sp)
    3120:	ca3a                	sw	a4,20(sp)
    3122:	c83e                	sw	a5,16(sp)
    3124:	c632                	sw	a2,12(sp)
    3126:	badff0ef          	jal	ra,2cd2 <ip_route>
    312a:	cd09                	beqz	a0,3144 <ip_output+0x32>
    312c:	47c2                	lw	a5,16(sp)
    312e:	4752                	lw	a4,20(sp)
    3130:	46e2                	lw	a3,24(sp)
    3132:	4632                	lw	a2,12(sp)
    3134:	45f2                	lw	a1,28(sp)
    3136:	882a                	mv	a6,a0
    3138:	8522                	mv	a0,s0
    313a:	e7fff0ef          	jal	ra,2fb8 <ip_output_if>
    313e:	6105                	addi	sp,sp,32
    3140:	854fd06f          	j	194 <__riscv_restore_0>
    3144:	5571                	li	a0,-4
    3146:	bfe5                	j	313e <ip_output+0x2c>

00003148 <ip_addr_isbroadcast>:
    3148:	3118                	lbu	a4,1(a0)
    314a:	211c                	lbu	a5,0(a0)
    314c:	0722                	slli	a4,a4,0x8
    314e:	8f5d                	or	a4,a4,a5
    3150:	213c                	lbu	a5,2(a0)
    3152:	07c2                	slli	a5,a5,0x10
    3154:	8f5d                	or	a4,a4,a5
    3156:	313c                	lbu	a5,3(a0)
    3158:	07e2                	slli	a5,a5,0x18
    315a:	8fd9                	or	a5,a5,a4
    315c:	fff78693          	addi	a3,a5,-1
    3160:	5775                	li	a4,-3
    3162:	02d76663          	bltu	a4,a3,318e <ip_addr_isbroadcast+0x46>
    3166:	0325c703          	lbu	a4,50(a1)
    316a:	4501                	li	a0,0
    316c:	8b09                	andi	a4,a4,2
    316e:	c30d                	beqz	a4,3190 <ip_addr_isbroadcast+0x48>
    3170:	41d8                	lw	a4,4(a1)
    3172:	00f70f63          	beq	a4,a5,3190 <ip_addr_isbroadcast+0x48>
    3176:	4594                	lw	a3,8(a1)
    3178:	8f3d                	xor	a4,a4,a5
    317a:	8f75                	and	a4,a4,a3
    317c:	eb11                	bnez	a4,3190 <ip_addr_isbroadcast+0x48>
    317e:	fff6c513          	not	a0,a3
    3182:	8fe9                	and	a5,a5,a0
    3184:	40a78533          	sub	a0,a5,a0
    3188:	00153513          	seqz	a0,a0
    318c:	8082                	ret
    318e:	4505                	li	a0,1
    3190:	8082                	ret

00003192 <ip_reass_tmr>:
    3192:	fb7fc2ef          	jal	t0,148 <__riscv_save_10>
    3196:	8e01a403          	lw	s0,-1824(gp) # 20000150 <reassdatagrams>
    319a:	44c5                	li	s1,17
    319c:	4b01                	li	s6,0
    319e:	8e018913          	addi	s2,gp,-1824 # 20000150 <reassdatagrams>
    31a2:	e019                	bnez	s0,31a8 <ip_reass_tmr+0x16>
    31a4:	fddfc06f          	j	180 <__riscv_restore_10>
    31a8:	14fd                	addi	s1,s1,-1
    31aa:	0ff4f493          	andi	s1,s1,255
    31ae:	d8fd                	beqz	s1,31a4 <ip_reass_tmr+0x12>
    31b0:	3c7c                	lbu	a5,31(s0)
    31b2:	00042c03          	lw	s8,0(s0)
    31b6:	c791                	beqz	a5,31c2 <ip_reass_tmr+0x30>
    31b8:	17fd                	addi	a5,a5,-1
    31ba:	bc7c                	sb	a5,31(s0)
    31bc:	8b22                	mv	s6,s0
    31be:	8462                	mv	s0,s8
    31c0:	b7cd                	j	31a2 <ip_reass_tmr+0x10>
    31c2:	00442983          	lw	s3,4(s0)
    31c6:	4a81                	li	s5,0
    31c8:	0049a503          	lw	a0,4(s3)
    31cc:	315c                	lbu	a5,5(a0)
    31ce:	2158                	lbu	a4,4(a0)
    31d0:	07a2                	slli	a5,a5,0x8
    31d2:	8fd9                	or	a5,a5,a4
    31d4:	ef85                	bnez	a5,320c <ip_reass_tmr+0x7a>
    31d6:	3118                	lbu	a4,1(a0)
    31d8:	211c                	lbu	a5,0(a0)
    31da:	4651                	li	a2,20
    31dc:	0722                	slli	a4,a4,0x8
    31de:	8f5d                	or	a4,a4,a5
    31e0:	213c                	lbu	a5,2(a0)
    31e2:	00840593          	addi	a1,s0,8
    31e6:	07c2                	slli	a5,a5,0x10
    31e8:	8f5d                	or	a4,a4,a5
    31ea:	313c                	lbu	a5,3(a0)
    31ec:	07e2                	slli	a5,a5,0x18
    31ee:	8fd9                	or	a5,a5,a4
    31f0:	c05c                	sw	a5,4(s0)
    31f2:	63e040ef          	jal	ra,7830 <memcpy>
    31f6:	4585                	li	a1,1
    31f8:	854e                	mv	a0,s3
    31fa:	41c040ef          	jal	ra,7616 <icmp_time_exceeded>
    31fe:	854e                	mv	a0,s3
    3200:	054010ef          	jal	ra,4254 <pbuf_clen>
    3204:	8aaa                	mv	s5,a0
    3206:	854e                	mv	a0,s3
    3208:	667000ef          	jal	ra,406e <pbuf_free>
    320c:	00442983          	lw	s3,4(s0)
    3210:	02099663          	bnez	s3,323c <ip_reass_tmr+0xaa>
    3214:	00092703          	lw	a4,0(s2)
    3218:	401c                	lw	a5,0(s0)
    321a:	04e41c63          	bne	s0,a4,3272 <ip_reass_tmr+0xe0>
    321e:	00f92023          	sw	a5,0(s2)
    3222:	85a2                	mv	a1,s0
    3224:	4515                	li	a0,5
    3226:	477000ef          	jal	ra,3e9c <memp_free>
    322a:	8de18713          	addi	a4,gp,-1826 # 2000014e <ip_reass_pbufcount>
    322e:	231e                	lhu	a5,0(a4)
    3230:	845a                	mv	s0,s6
    3232:	41578ab3          	sub	s5,a5,s5
    3236:	01571023          	sh	s5,0(a4)
    323a:	b749                	j	31bc <ip_reass_tmr+0x2a>
    323c:	0049a703          	lw	a4,4(s3)
    3240:	854e                	mv	a0,s3
    3242:	331c                	lbu	a5,1(a4)
    3244:	00074a03          	lbu	s4,0(a4)
    3248:	07a2                	slli	a5,a5,0x8
    324a:	0147e7b3          	or	a5,a5,s4
    324e:	00274a03          	lbu	s4,2(a4)
    3252:	0a42                	slli	s4,s4,0x10
    3254:	00fa67b3          	or	a5,s4,a5
    3258:	00374a03          	lbu	s4,3(a4)
    325c:	0a62                	slli	s4,s4,0x18
    325e:	00fa6a33          	or	s4,s4,a5
    3262:	7f3000ef          	jal	ra,4254 <pbuf_clen>
    3266:	9aaa                	add	s5,s5,a0
    3268:	854e                	mv	a0,s3
    326a:	605000ef          	jal	ra,406e <pbuf_free>
    326e:	89d2                	mv	s3,s4
    3270:	b745                	j	3210 <ip_reass_tmr+0x7e>
    3272:	00fb2023          	sw	a5,0(s6)
    3276:	b775                	j	3222 <ip_reass_tmr+0x90>

00003278 <ip_reass>:
    3278:	ed1fc2ef          	jal	t0,148 <__riscv_save_10>
    327c:	4144                	lw	s1,4(a0)
    327e:	892a                	mv	s2,a0
    3280:	309c                	lbu	a5,1(s1)
    3282:	2088                	lbu	a0,0(s1)
    3284:	07a2                	slli	a5,a5,0x8
    3286:	8d5d                	or	a0,a0,a5
    3288:	a0dff0ef          	jal	ra,2c94 <ntohs>
    328c:	8119                	srli	a0,a0,0x6
    328e:	03c57513          	andi	a0,a0,60
    3292:	47d1                	li	a5,20
    3294:	26f51263          	bne	a0,a5,34f8 <ip_reass+0x280>
    3298:	30fc                	lbu	a5,7(s1)
    329a:	20e8                	lbu	a0,6(s1)
    329c:	07a2                	slli	a5,a5,0x8
    329e:	8d5d                	or	a0,a0,a5
    32a0:	9f5ff0ef          	jal	ra,2c94 <ntohs>
    32a4:	30bc                	lbu	a5,3(s1)
    32a6:	8b2a                	mv	s6,a0
    32a8:	20a8                	lbu	a0,2(s1)
    32aa:	07a2                	slli	a5,a5,0x8
    32ac:	8d5d                	or	a0,a0,a5
    32ae:	9e7ff0ef          	jal	ra,2c94 <ntohs>
    32b2:	309c                	lbu	a5,1(s1)
    32b4:	8caa                	mv	s9,a0
    32b6:	2088                	lbu	a0,0(s1)
    32b8:	07a2                	slli	a5,a5,0x8
    32ba:	8d5d                	or	a0,a0,a5
    32bc:	9d9ff0ef          	jal	ra,2c94 <ntohs>
    32c0:	8c2a                	mv	s8,a0
    32c2:	854a                	mv	a0,s2
    32c4:	791000ef          	jal	ra,4254 <pbuf_clen>
    32c8:	200047b7          	lui	a5,0x20004
    32cc:	24c7a783          	lw	a5,588(a5) # 2000424c <WCHCfg+0x10>
    32d0:	8de1d703          	lhu	a4,-1826(gp) # 2000014e <ip_reass_pbufcount>
    32d4:	8d2a                	mv	s10,a0
    32d6:	838d                	srli	a5,a5,0x3
    32d8:	972a                	add	a4,a4,a0
    32da:	8bfd                	andi	a5,a5,31
    32dc:	8de18993          	addi	s3,gp,-1826 # 2000014e <ip_reass_pbufcount>
    32e0:	20e7ec63          	bltu	a5,a4,34f8 <ip_reass+0x280>
    32e4:	8e01a403          	lw	s0,-1824(gp) # 20000150 <reassdatagrams>
    32e8:	4a81                	li	s5,0
    32ea:	8e018a13          	addi	s4,gp,-1824 # 20000150 <reassdatagrams>
    32ee:	e81d                	bnez	s0,3324 <ip_reass+0xac>
    32f0:	4515                	li	a0,5
    32f2:	38b000ef          	jal	ra,3e7c <memp_malloc>
    32f6:	842a                	mv	s0,a0
    32f8:	20050063          	beqz	a0,34f8 <ip_reass+0x280>
    32fc:	4671                	li	a2,28
    32fe:	4581                	li	a1,0
    3300:	00440513          	addi	a0,s0,4
    3304:	e9dfc0ef          	jal	ra,1a0 <memset>
    3308:	478d                	li	a5,3
    330a:	bc7c                	sb	a5,31(s0)
    330c:	000a2783          	lw	a5,0(s4)
    3310:	008a2023          	sw	s0,0(s4)
    3314:	c01c                	sw	a5,0(s0)
    3316:	4651                	li	a2,20
    3318:	85a6                	mv	a1,s1
    331a:	00840513          	addi	a0,s0,8
    331e:	512040ef          	jal	ra,7830 <memcpy>
    3322:	ac95                	j	3596 <ip_reass+0x31e>
    3324:	34d8                	lbu	a4,13(s1)
    3326:	24dc                	lbu	a5,12(s1)
    3328:	0722                	slli	a4,a4,0x8
    332a:	8f5d                	or	a4,a4,a5
    332c:	24fc                	lbu	a5,14(s1)
    332e:	07c2                	slli	a5,a5,0x10
    3330:	8f5d                	or	a4,a4,a5
    3332:	34fc                	lbu	a5,15(s1)
    3334:	07e2                	slli	a5,a5,0x18
    3336:	8fd9                	or	a5,a5,a4
    3338:	4858                	lw	a4,20(s0)
    333a:	02f71663          	bne	a4,a5,3366 <ip_reass+0xee>
    333e:	3898                	lbu	a4,17(s1)
    3340:	289c                	lbu	a5,16(s1)
    3342:	0722                	slli	a4,a4,0x8
    3344:	8f5d                	or	a4,a4,a5
    3346:	28bc                	lbu	a5,18(s1)
    3348:	07c2                	slli	a5,a5,0x10
    334a:	8f5d                	or	a4,a4,a5
    334c:	38bc                	lbu	a5,19(s1)
    334e:	07e2                	slli	a5,a5,0x18
    3350:	8fd9                	or	a5,a5,a4
    3352:	4c18                	lw	a4,24(s0)
    3354:	00f71963          	bne	a4,a5,3366 <ip_reass+0xee>
    3358:	30dc                	lbu	a5,5(s1)
    335a:	20d4                	lbu	a3,4(s1)
    335c:	245a                	lhu	a4,12(s0)
    335e:	07a2                	slli	a5,a5,0x8
    3360:	8fd5                	or	a5,a5,a3
    3362:	20f70663          	beq	a4,a5,356e <ip_reass+0x2f6>
    3366:	8aa2                	mv	s5,s0
    3368:	4000                	lw	s0,0(s0)
    336a:	b751                	j	32ee <ip_reass+0x76>
    336c:	42cc                	lw	a1,4(a3)
    336e:	0055c803          	lbu	a6,5(a1)
    3372:	0045c303          	lbu	t1,4(a1)
    3376:	0822                	slli	a6,a6,0x8
    3378:	00686833          	or	a6,a6,t1
    337c:	0d067c63          	bgeu	a2,a6,3454 <ip_reass+0x1dc>
    3380:	0086d593          	srli	a1,a3,0x8
    3384:	a394                	sb	a3,0(a5)
    3386:	b38c                	sb	a1,1(a5)
    3388:	0106d593          	srli	a1,a3,0x10
    338c:	82e1                	srli	a3,a3,0x18
    338e:	a3ac                	sb	a1,2(a5)
    3390:	b3b4                	sb	a3,3(a5)
    3392:	2a070e63          	beqz	a4,364e <ip_reass+0x3d6>
    3396:	3374                	lbu	a3,7(a4)
    3398:	236c                	lbu	a1,6(a4)
    339a:	06a2                	slli	a3,a3,0x8
    339c:	8ecd                	or	a3,a3,a1
    339e:	14d66463          	bltu	a2,a3,34e6 <ip_reass+0x26e>
    33a2:	14a86263          	bltu	a6,a0,34e6 <ip_reass+0x26e>
    33a6:	00895693          	srli	a3,s2,0x8
    33aa:	01270023          	sb	s2,0(a4)
    33ae:	b314                	sb	a3,1(a4)
    33b0:	01095693          	srli	a3,s2,0x10
    33b4:	01895913          	srli	s2,s2,0x18
    33b8:	a334                	sb	a3,2(a4)
    33ba:	012701a3          	sb	s2,3(a4)
    33be:	2c78                	lbu	a4,30(s0)
    33c0:	4b01                	li	s6,0
    33c2:	8b05                	andi	a4,a4,1
    33c4:	18070f63          	beqz	a4,3562 <ip_reass+0x2ea>
    33c8:	18088d63          	beqz	a7,3562 <ip_reass+0x2ea>
    33cc:	4058                	lw	a4,4(s0)
    33ce:	4344                	lw	s1,4(a4)
    33d0:	30d8                	lbu	a4,5(s1)
    33d2:	20d4                	lbu	a3,4(s1)
    33d4:	0722                	slli	a4,a4,0x8
    33d6:	8f55                	or	a4,a4,a3
    33d8:	18071563          	bnez	a4,3562 <ip_reass+0x2ea>
    33dc:	3394                	lbu	a3,1(a5)
    33de:	2398                	lbu	a4,0(a5)
    33e0:	06a2                	slli	a3,a3,0x8
    33e2:	8ed9                	or	a3,a3,a4
    33e4:	23b8                	lbu	a4,2(a5)
    33e6:	0742                	slli	a4,a4,0x10
    33e8:	8ed9                	or	a3,a3,a4
    33ea:	33b8                	lbu	a4,3(a5)
    33ec:	0762                	slli	a4,a4,0x18
    33ee:	8f55                	or	a4,a4,a3
    33f0:	e761                	bnez	a4,34b8 <ip_reass+0x240>
    33f2:	2c5e                	lhu	a5,28(s0)
    33f4:	0004c903          	lbu	s2,0(s1)
    33f8:	4651                	li	a2,20
    33fa:	07d1                	addi	a5,a5,20
    33fc:	ac5e                	sh	a5,28(s0)
    33fe:	309c                	lbu	a5,1(s1)
    3400:	00840593          	addi	a1,s0,8
    3404:	8526                	mv	a0,s1
    3406:	07a2                	slli	a5,a5,0x8
    3408:	0127e7b3          	or	a5,a5,s2
    340c:	0024c903          	lbu	s2,2(s1)
    3410:	0942                	slli	s2,s2,0x10
    3412:	00f967b3          	or	a5,s2,a5
    3416:	0034c903          	lbu	s2,3(s1)
    341a:	0962                	slli	s2,s2,0x18
    341c:	00f96933          	or	s2,s2,a5
    3420:	410040ef          	jal	ra,7830 <memcpy>
    3424:	2c4a                	lhu	a0,28(s0)
    3426:	861ff0ef          	jal	ra,2c86 <htons>
    342a:	a0a8                	sb	a0,2(s1)
    342c:	8121                	srli	a0,a0,0x8
    342e:	b0a8                	sb	a0,3(s1)
    3430:	00048323          	sb	zero,6(s1)
    3434:	000483a3          	sb	zero,7(s1)
    3438:	00048523          	sb	zero,10(s1)
    343c:	000485a3          	sb	zero,11(s1)
    3440:	45d1                	li	a1,20
    3442:	8526                	mv	a0,s1
    3444:	36e040ef          	jal	ra,77b2 <inet_chksum>
    3448:	a4a8                	sb	a0,10(s1)
    344a:	8121                	srli	a0,a0,0x8
    344c:	b4a8                	sb	a0,11(s1)
    344e:	00442b03          	lw	s6,4(s0)
    3452:	a0d5                	j	3536 <ip_reass+0x2be>
    3454:	09060963          	beq	a2,a6,34e6 <ip_reass+0x26e>
    3458:	31f4                	lbu	a3,7(a1)
    345a:	0065c303          	lbu	t1,6(a1)
    345e:	06a2                	slli	a3,a3,0x8
    3460:	0066e6b3          	or	a3,a3,t1
    3464:	08d66163          	bltu	a2,a3,34e6 <ip_reass+0x26e>
    3468:	cb01                	beqz	a4,3478 <ip_reass+0x200>
    346a:	2374                	lbu	a3,6(a4)
    346c:	3378                	lbu	a4,7(a4)
    346e:	0722                	slli	a4,a4,0x8
    3470:	8f55                	or	a4,a4,a3
    3472:	00e80363          	beq	a6,a4,3478 <ip_reass+0x200>
    3476:	4881                	li	a7,0
    3478:	3198                	lbu	a4,1(a1)
    347a:	2194                	lbu	a3,0(a1)
    347c:	0722                	slli	a4,a4,0x8
    347e:	8f55                	or	a4,a4,a3
    3480:	21b4                	lbu	a3,2(a1)
    3482:	06c2                	slli	a3,a3,0x10
    3484:	8f55                	or	a4,a4,a3
    3486:	31b4                	lbu	a3,3(a1)
    3488:	06e2                	slli	a3,a3,0x18
    348a:	8ed9                	or	a3,a3,a4
    348c:	872e                	mv	a4,a1
    348e:	aa65                	j	3646 <ip_reass+0x3ce>
    3490:	00895693          	srli	a3,s2,0x8
    3494:	01270023          	sb	s2,0(a4)
    3498:	b314                	sb	a3,1(a4)
    349a:	01095693          	srli	a3,s2,0x10
    349e:	01895913          	srli	s2,s2,0x18
    34a2:	a334                	sb	a3,2(a4)
    34a4:	012701a3          	sb	s2,3(a4)
    34a8:	2374                	lbu	a3,6(a4)
    34aa:	3378                	lbu	a4,7(a4)
    34ac:	0722                	slli	a4,a4,0x8
    34ae:	8f55                	or	a4,a4,a3
    34b0:	f0e607e3          	beq	a2,a4,33be <ip_reass+0x146>
    34b4:	4881                	li	a7,0
    34b6:	b721                	j	33be <ip_reass+0x146>
    34b8:	4354                	lw	a3,4(a4)
    34ba:	23ec                	lbu	a1,6(a5)
    34bc:	33f8                	lbu	a4,7(a5)
    34be:	32dc                	lbu	a5,5(a3)
    34c0:	22d0                	lbu	a2,4(a3)
    34c2:	0722                	slli	a4,a4,0x8
    34c4:	07a2                	slli	a5,a5,0x8
    34c6:	8f4d                	or	a4,a4,a1
    34c8:	8fd1                	or	a5,a5,a2
    34ca:	02f71a63          	bne	a4,a5,34fe <ip_reass+0x286>
    34ce:	329c                	lbu	a5,1(a3)
    34d0:	2298                	lbu	a4,0(a3)
    34d2:	07a2                	slli	a5,a5,0x8
    34d4:	8fd9                	or	a5,a5,a4
    34d6:	22b8                	lbu	a4,2(a3)
    34d8:	0742                	slli	a4,a4,0x10
    34da:	8fd9                	or	a5,a5,a4
    34dc:	32b8                	lbu	a4,3(a3)
    34de:	0762                	slli	a4,a4,0x18
    34e0:	8f5d                	or	a4,a4,a5
    34e2:	87b6                	mv	a5,a3
    34e4:	b731                	j	33f0 <ip_reass+0x178>
    34e6:	854a                	mv	a0,s2
    34e8:	56d000ef          	jal	ra,4254 <pbuf_clen>
    34ec:	0009d783          	lhu	a5,0(s3)
    34f0:	40a78533          	sub	a0,a5,a0
    34f4:	00a99023          	sh	a0,0(s3)
    34f8:	854a                	mv	a0,s2
    34fa:	375000ef          	jal	ra,406e <pbuf_free>
    34fe:	4b01                	li	s6,0
    3500:	a08d                	j	3562 <ip_reass+0x2ea>
    3502:	55b1                	li	a1,-20
    3504:	854a                	mv	a0,s2
    3506:	00492483          	lw	s1,4(s2)
    350a:	2f7000ef          	jal	ra,4000 <pbuf_header>
    350e:	85ca                	mv	a1,s2
    3510:	855a                	mv	a0,s6
    3512:	55f000ef          	jal	ra,4270 <pbuf_cat>
    3516:	309c                	lbu	a5,1(s1)
    3518:	0004c903          	lbu	s2,0(s1)
    351c:	07a2                	slli	a5,a5,0x8
    351e:	0127e7b3          	or	a5,a5,s2
    3522:	0024c903          	lbu	s2,2(s1)
    3526:	0942                	slli	s2,s2,0x10
    3528:	00f967b3          	or	a5,s2,a5
    352c:	0034c903          	lbu	s2,3(s1)
    3530:	0962                	slli	s2,s2,0x18
    3532:	00f96933          	or	s2,s2,a5
    3536:	fc0916e3          	bnez	s2,3502 <ip_reass+0x28a>
    353a:	000a2703          	lw	a4,0(s4)
    353e:	401c                	lw	a5,0(s0)
    3540:	02e41463          	bne	s0,a4,3568 <ip_reass+0x2f0>
    3544:	00fa2023          	sw	a5,0(s4)
    3548:	85a2                	mv	a1,s0
    354a:	4515                	li	a0,5
    354c:	151000ef          	jal	ra,3e9c <memp_free>
    3550:	855a                	mv	a0,s6
    3552:	503000ef          	jal	ra,4254 <pbuf_clen>
    3556:	0009d783          	lhu	a5,0(s3)
    355a:	40a78533          	sub	a0,a5,a0
    355e:	00a99023          	sh	a0,0(s3)
    3562:	855a                	mv	a0,s6
    3564:	c1dfc06f          	j	180 <__riscv_restore_10>
    3568:	00faa023          	sw	a5,0(s5)
    356c:	bff1                	j	3548 <ip_reass+0x2d0>
    356e:	30fc                	lbu	a5,7(s1)
    3570:	20e8                	lbu	a0,6(s1)
    3572:	6b89                	lui	s7,0x2
    3574:	07a2                	slli	a5,a5,0x8
    3576:	8d5d                	or	a0,a0,a5
    3578:	f1cff0ef          	jal	ra,2c94 <ntohs>
    357c:	1bfd                	addi	s7,s7,-1
    357e:	01757533          	and	a0,a0,s7
    3582:	0542                	slli	a0,a0,0x10
    3584:	8141                	srli	a0,a0,0x10
    3586:	e901                	bnez	a0,3596 <ip_reass+0x31e>
    3588:	246a                	lhu	a0,14(s0)
    358a:	f0aff0ef          	jal	ra,2c94 <ntohs>
    358e:	01757533          	and	a0,a0,s7
    3592:	d80512e3          	bnez	a0,3316 <ip_reass+0x9e>
    3596:	0009d783          	lhu	a5,0(s3)
    359a:	9d3e                	add	s10,s10,a5
    359c:	01a99023          	sh	s10,0(s3)
    35a0:	30fc                	lbu	a5,7(s1)
    35a2:	20e8                	lbu	a0,6(s1)
    35a4:	07a2                	slli	a5,a5,0x8
    35a6:	8d5d                	or	a0,a0,a5
    35a8:	eecff0ef          	jal	ra,2c94 <ntohs>
    35ac:	01251793          	slli	a5,a0,0x12
    35b0:	0207c263          	bltz	a5,35d4 <ip_reass+0x35c>
    35b4:	013b1513          	slli	a0,s6,0x13
    35b8:	2c7c                	lbu	a5,30(s0)
    35ba:	814d                	srli	a0,a0,0x13
    35bc:	050e                	slli	a0,a0,0x3
    35be:	006c5c13          	srli	s8,s8,0x6
    35c2:	9566                	add	a0,a0,s9
    35c4:	03cc7c13          	andi	s8,s8,60
    35c8:	0017e793          	ori	a5,a5,1
    35cc:	41850533          	sub	a0,a0,s8
    35d0:	ac7c                	sb	a5,30(s0)
    35d2:	ac4a                	sh	a0,28(s0)
    35d4:	00492483          	lw	s1,4(s2)
    35d8:	30bc                	lbu	a5,3(s1)
    35da:	20a8                	lbu	a0,2(s1)
    35dc:	07a2                	slli	a5,a5,0x8
    35de:	8d5d                	or	a0,a0,a5
    35e0:	eb4ff0ef          	jal	ra,2c94 <ntohs>
    35e4:	309c                	lbu	a5,1(s1)
    35e6:	8b2a                	mv	s6,a0
    35e8:	2088                	lbu	a0,0(s1)
    35ea:	07a2                	slli	a5,a5,0x8
    35ec:	8d5d                	or	a0,a0,a5
    35ee:	ea6ff0ef          	jal	ra,2c94 <ntohs>
    35f2:	30fc                	lbu	a5,7(s1)
    35f4:	8baa                	mv	s7,a0
    35f6:	20e8                	lbu	a0,6(s1)
    35f8:	07a2                	slli	a5,a5,0x8
    35fa:	006bdb93          	srli	s7,s7,0x6
    35fe:	8d5d                	or	a0,a0,a5
    3600:	e94ff0ef          	jal	ra,2c94 <ntohs>
    3604:	054e                	slli	a0,a0,0x13
    3606:	814d                	srli	a0,a0,0x13
    3608:	00351613          	slli	a2,a0,0x3
    360c:	00cb0533          	add	a0,s6,a2
    3610:	03cbfb13          	andi	s6,s7,60
    3614:	00492783          	lw	a5,4(s2)
    3618:	41650533          	sub	a0,a0,s6
    361c:	0542                	slli	a0,a0,0x10
    361e:	00865713          	srli	a4,a2,0x8
    3622:	8141                	srli	a0,a0,0x10
    3624:	4054                	lw	a3,4(s0)
    3626:	b3d8                	sb	a4,5(a5)
    3628:	00855713          	srli	a4,a0,0x8
    362c:	b3f8                	sb	a4,7(a5)
    362e:	00078023          	sb	zero,0(a5)
    3632:	000780a3          	sb	zero,1(a5)
    3636:	00078123          	sb	zero,2(a5)
    363a:	000781a3          	sb	zero,3(a5)
    363e:	a3d0                	sb	a2,4(a5)
    3640:	a3e8                	sb	a0,6(a5)
    3642:	4885                	li	a7,1
    3644:	4701                	li	a4,0
    3646:	d20693e3          	bnez	a3,336c <ip_reass+0xf4>
    364a:	e40713e3          	bnez	a4,3490 <ip_reass+0x218>
    364e:	01242223          	sw	s2,4(s0)
    3652:	b3b5                	j	33be <ip_reass+0x146>

00003654 <ip_frag>:
    3654:	aedfc2ef          	jal	t0,140 <__riscv_save_12>
    3658:	00452c03          	lw	s8,4(a0)
    365c:	1101                	addi	sp,sp,-32
    365e:	ca32                	sw	a2,20(sp)
    3660:	007c4703          	lbu	a4,7(s8)
    3664:	8daa                	mv	s11,a0
    3666:	006c4503          	lbu	a0,6(s8)
    366a:	0722                	slli	a4,a4,0x8
    366c:	0305db83          	lhu	s7,48(a1)
    3670:	8d59                	or	a0,a0,a4
    3672:	8cae                	mv	s9,a1
    3674:	e20ff0ef          	jal	ra,2c94 <ntohs>
    3678:	6689                	lui	a3,0x2
    367a:	00d577b3          	and	a5,a0,a3
    367e:	fecb8a13          	addi	s4,s7,-20 # 1fec <tcp_recved_socket+0x46>
    3682:	46a1                	li	a3,8
    3684:	02da4a33          	div	s4,s4,a3
    3688:	008dd483          	lhu	s1,8(s11)
    368c:	6709                	lui	a4,0x2
    368e:	177d                	addi	a4,a4,-1
    3690:	c63e                	sw	a5,12(sp)
    3692:	00e57933          	and	s2,a0,a4
    3696:	14b1                	addi	s1,s1,-20
    3698:	0942                	slli	s2,s2,0x10
    369a:	04c2                	slli	s1,s1,0x10
    369c:	01095913          	srli	s2,s2,0x10
    36a0:	80c1                	srli	s1,s1,0x10
    36a2:	4401                	li	s0,0
    36a4:	4d51                	li	s10,20
    36a6:	cc3a                	sw	a4,24(sp)
    36a8:	0a42                	slli	s4,s4,0x10
    36aa:	010a5a13          	srli	s4,s4,0x10
    36ae:	003a1693          	slli	a3,s4,0x3
    36b2:	01069793          	slli	a5,a3,0x10
    36b6:	83c1                	srli	a5,a5,0x10
    36b8:	c83e                	sw	a5,16(sp)
    36ba:	fedb8793          	addi	a5,s7,-19
    36be:	ce3e                	sw	a5,28(sp)
    36c0:	e489                	bnez	s1,36ca <ip_frag+0x76>
    36c2:	4501                	li	a0,0
    36c4:	6105                	addi	sp,sp,32
    36c6:	ab7fc06f          	j	17c <__riscv_restore_12>
    36ca:	47e2                	lw	a5,24(sp)
    36cc:	8aa6                	mv	s5,s1
    36ce:	00f97b33          	and	s6,s2,a5
    36d2:	47b2                	lw	a5,12(sp)
    36d4:	0167eb33          	or	s6,a5,s6
    36d8:	47f2                	lw	a5,28(sp)
    36da:	00f4c663          	blt	s1,a5,36e6 <ip_frag+0x92>
    36de:	4ac2                	lw	s5,16(sp)
    36e0:	6789                	lui	a5,0x2
    36e2:	00fb6b33          	or	s6,s6,a5
    36e6:	4601                	li	a2,0
    36e8:	45d1                	li	a1,20
    36ea:	4509                	li	a0,2
    36ec:	1d1000ef          	jal	ra,40bc <pbuf_alloc>
    36f0:	89aa                	mv	s3,a0
    36f2:	c939                	beqz	a0,3748 <ip_frag+0xf4>
    36f4:	4148                	lw	a0,4(a0)
    36f6:	4651                	li	a2,20
    36f8:	85e2                	mv	a1,s8
    36fa:	136040ef          	jal	ra,7830 <memcpy>
    36fe:	004da603          	lw	a2,4(s11)
    3702:	0049ab83          	lw	s7,4(s3)
    3706:	966a                	add	a2,a2,s10
    3708:	00cda223          	sw	a2,4(s11)
    370c:	00add603          	lhu	a2,10(s11)
    3710:	41a606b3          	sub	a3,a2,s10
    3714:	00dd9523          	sh	a3,10(s11)
    3718:	8d56                	mv	s10,s5
    371a:	040d0963          	beqz	s10,376c <ip_frag+0x118>
    371e:	00add403          	lhu	s0,10(s11)
    3722:	008d7363          	bgeu	s10,s0,3728 <ip_frag+0xd4>
    3726:	846a                	mv	s0,s10
    3728:	0442                	slli	s0,s0,0x10
    372a:	8041                	srli	s0,s0,0x10
    372c:	e401                	bnez	s0,3734 <ip_frag+0xe0>
    372e:	000dad83          	lw	s11,0(s11)
    3732:	b7e5                	j	371a <ip_frag+0xc6>
    3734:	4581                	li	a1,0
    3736:	4609                	li	a2,2
    3738:	450d                	li	a0,3
    373a:	183000ef          	jal	ra,40bc <pbuf_alloc>
    373e:	85aa                	mv	a1,a0
    3740:	e511                	bnez	a0,374c <ip_frag+0xf8>
    3742:	854e                	mv	a0,s3
    3744:	12b000ef          	jal	ra,406e <pbuf_free>
    3748:	557d                	li	a0,-1
    374a:	bfad                	j	36c4 <ip_frag+0x70>
    374c:	004da603          	lw	a2,4(s11)
    3750:	a502                	sh	s0,8(a0)
    3752:	a522                	sh	s0,10(a0)
    3754:	c150                	sw	a2,4(a0)
    3756:	854e                	mv	a0,s3
    3758:	319000ef          	jal	ra,4270 <pbuf_cat>
    375c:	408d06b3          	sub	a3,s10,s0
    3760:	01069d13          	slli	s10,a3,0x10
    3764:	010d5d13          	srli	s10,s10,0x10
    3768:	fc0d13e3          	bnez	s10,372e <ip_frag+0xda>
    376c:	855a                	mv	a0,s6
    376e:	d18ff0ef          	jal	ra,2c86 <htons>
    3772:	00ab8323          	sb	a0,6(s7)
    3776:	8121                	srli	a0,a0,0x8
    3778:	00ab83a3          	sb	a0,7(s7)
    377c:	014a8513          	addi	a0,s5,20
    3780:	0542                	slli	a0,a0,0x10
    3782:	8141                	srli	a0,a0,0x10
    3784:	d02ff0ef          	jal	ra,2c86 <htons>
    3788:	00ab8123          	sb	a0,2(s7)
    378c:	8121                	srli	a0,a0,0x8
    378e:	00ab81a3          	sb	a0,3(s7)
    3792:	45d1                	li	a1,20
    3794:	000b8523          	sb	zero,10(s7)
    3798:	000b85a3          	sb	zero,11(s7)
    379c:	855e                	mv	a0,s7
    379e:	014040ef          	jal	ra,77b2 <inet_chksum>
    37a2:	014ca703          	lw	a4,20(s9)
    37a6:	4652                	lw	a2,20(sp)
    37a8:	00ab8523          	sb	a0,10(s7)
    37ac:	8121                	srli	a0,a0,0x8
    37ae:	00ab85a3          	sb	a0,11(s7)
    37b2:	85ce                	mv	a1,s3
    37b4:	8566                	mv	a0,s9
    37b6:	9702                	jalr	a4
    37b8:	415484b3          	sub	s1,s1,s5
    37bc:	9952                	add	s2,s2,s4
    37be:	854e                	mv	a0,s3
    37c0:	04c2                	slli	s1,s1,0x10
    37c2:	0942                	slli	s2,s2,0x10
    37c4:	0ab000ef          	jal	ra,406e <pbuf_free>
    37c8:	80c1                	srli	s1,s1,0x10
    37ca:	01095913          	srli	s2,s2,0x10
    37ce:	8d22                	mv	s10,s0
    37d0:	bdc5                	j	36c0 <ip_frag+0x6c>

000037d2 <dhcp_set_state>:
    37d2:	293c                	lbu	a5,18(a0)
    37d4:	00b78563          	beq	a5,a1,37de <dhcp_set_state+0xc>
    37d8:	a92c                	sb	a1,18(a0)
    37da:	000509a3          	sb	zero,19(a0)
    37de:	8082                	ret

000037e0 <dhcp_option>:
    37e0:	2d5e                	lhu	a5,28(a0)
    37e2:	4d18                	lw	a4,24(a0)
    37e4:	00f706b3          	add	a3,a4,a5
    37e8:	0eb68823          	sb	a1,240(a3) # 20f0 <WCHNET_SocketUdpSendTo+0x1a>
    37ec:	00278693          	addi	a3,a5,2 # 2002 <WCHNET_SocketRecv+0x12>
    37f0:	0785                	addi	a5,a5,1
    37f2:	07c2                	slli	a5,a5,0x10
    37f4:	83c1                	srli	a5,a5,0x10
    37f6:	ad56                	sh	a3,28(a0)
    37f8:	97ba                	add	a5,a5,a4
    37fa:	0ec78823          	sb	a2,240(a5)
    37fe:	8082                	ret

00003800 <dhcp_option_byte>:
    3800:	2d5a                	lhu	a4,28(a0)
    3802:	4d1c                	lw	a5,24(a0)
    3804:	00170693          	addi	a3,a4,1 # 2001 <WCHNET_SocketRecv+0x11>
    3808:	ad56                	sh	a3,28(a0)
    380a:	97ba                	add	a5,a5,a4
    380c:	0eb78823          	sb	a1,240(a5)
    3810:	8082                	ret

00003812 <dhcp_option_long>:
    3812:	2d5e                	lhu	a5,28(a0)
    3814:	4d18                	lw	a4,24(a0)
    3816:	0185d613          	srli	a2,a1,0x18
    381a:	00f706b3          	add	a3,a4,a5
    381e:	0ec68823          	sb	a2,240(a3)
    3822:	00178693          	addi	a3,a5,1
    3826:	06c2                	slli	a3,a3,0x10
    3828:	82c1                	srli	a3,a3,0x10
    382a:	96ba                	add	a3,a3,a4
    382c:	0105d613          	srli	a2,a1,0x10
    3830:	0ec68823          	sb	a2,240(a3)
    3834:	00278693          	addi	a3,a5,2
    3838:	06c2                	slli	a3,a3,0x10
    383a:	82c1                	srli	a3,a3,0x10
    383c:	96ba                	add	a3,a3,a4
    383e:	0085d613          	srli	a2,a1,0x8
    3842:	0ec68823          	sb	a2,240(a3)
    3846:	00478693          	addi	a3,a5,4
    384a:	078d                	addi	a5,a5,3
    384c:	07c2                	slli	a5,a5,0x10
    384e:	83c1                	srli	a5,a5,0x10
    3850:	ad56                	sh	a3,28(a0)
    3852:	97ba                	add	a5,a5,a4
    3854:	0eb78823          	sb	a1,240(a5)
    3858:	8082                	ret

0000385a <dhcp_option_trailer>:
    385a:	c115                	beqz	a0,387e <dhcp_option_trailer+0x24>
    385c:	2d5e                	lhu	a5,28(a0)
    385e:	4d18                	lw	a4,24(a0)
    3860:	04300613          	li	a2,67
    3864:	00178693          	addi	a3,a5,1
    3868:	ad56                	sh	a3,28(a0)
    386a:	97ba                	add	a5,a5,a4
    386c:	56fd                	li	a3,-1
    386e:	0ed78823          	sb	a3,240(a5)
    3872:	2d5e                	lhu	a5,28(a0)
    3874:	00f67663          	bgeu	a2,a5,3880 <dhcp_option_trailer+0x26>
    3878:	0037f693          	andi	a3,a5,3
    387c:	e291                	bnez	a3,3880 <dhcp_option_trailer+0x26>
    387e:	8082                	ret
    3880:	00178693          	addi	a3,a5,1
    3884:	ad56                	sh	a3,28(a0)
    3886:	97ba                	add	a5,a5,a4
    3888:	0e078823          	sb	zero,240(a5)
    388c:	b7dd                	j	3872 <dhcp_option_trailer+0x18>

0000388e <dhcp_create_request>:
    388e:	18050263          	beqz	a0,3a12 <dhcp_create_request+0x184>
    3892:	8dffc2ef          	jal	t0,170 <__riscv_save_0>
    3896:	5104                	lw	s1,32(a0)
    3898:	57dd                	li	a5,-9
    389a:	16048963          	beqz	s1,3a0c <dhcp_create_request+0x17e>
    389e:	892a                	mv	s2,a0
    38a0:	4601                	li	a2,0
    38a2:	13400593          	li	a1,308
    38a6:	4501                	li	a0,0
    38a8:	015000ef          	jal	ra,40bc <pbuf_alloc>
    38ac:	c8c8                	sw	a0,20(s1)
    38ae:	872a                	mv	a4,a0
    38b0:	57fd                	li	a5,-1
    38b2:	14050d63          	beqz	a0,3a0c <dhcp_create_request+0x17e>
    38b6:	38bc                	lbu	a5,19(s1)
    38b8:	ef99                	bnez	a5,38d6 <dhcp_create_request+0x48>
    38ba:	28bc                	lbu	a5,18(s1)
    38bc:	4605                	li	a2,1
    38be:	00c78c63          	beq	a5,a2,38d6 <dhcp_create_request+0x48>
    38c2:	17f1                	addi	a5,a5,-4
    38c4:	0ff7f793          	andi	a5,a5,255
    38c8:	00f67763          	bgeu	a2,a5,38d6 <dhcp_create_request+0x48>
    38cc:	8241a783          	lw	a5,-2012(gp) # 20000094 <DHCPXid>
    38d0:	0785                	addi	a5,a5,1
    38d2:	82f1a223          	sw	a5,-2012(gp) # 20000094 <DHCPXid>
    38d6:	4340                	lw	s0,4(a4)
    38d8:	8241a503          	lw	a0,-2012(gp) # 20000094 <DHCPXid>
    38dc:	4785                	li	a5,1
    38de:	cc80                	sw	s0,24(s1)
    38e0:	c088                	sw	a0,0(s1)
    38e2:	a01c                	sb	a5,0(s0)
    38e4:	b01c                	sb	a5,1(s0)
    38e6:	4799                	li	a5,6
    38e8:	a03c                	sb	a5,2(s0)
    38ea:	000401a3          	sb	zero,3(s0)
    38ee:	bb4ff0ef          	jal	ra,2ca2 <htonl>
    38f2:	00855793          	srli	a5,a0,0x8
    38f6:	a048                	sb	a0,4(s0)
    38f8:	b05c                	sb	a5,5(s0)
    38fa:	01055793          	srli	a5,a0,0x10
    38fe:	8161                	srli	a0,a0,0x18
    3900:	a07c                	sb	a5,6(s0)
    3902:	b068                	sb	a0,7(s0)
    3904:	4c80                	lw	s0,24(s1)
    3906:	4729                	li	a4,10
    3908:	00040423          	sb	zero,8(s0)
    390c:	000404a3          	sb	zero,9(s0)
    3910:	00040523          	sb	zero,10(s0)
    3914:	000405a3          	sb	zero,11(s0)
    3918:	00040623          	sb	zero,12(s0)
    391c:	000406a3          	sb	zero,13(s0)
    3920:	00040723          	sb	zero,14(s0)
    3924:	000407a3          	sb	zero,15(s0)
    3928:	28bc                	lbu	a5,18(s1)
    392a:	00e78863          	beq	a5,a4,393a <dhcp_create_request+0xac>
    392e:	17f1                	addi	a5,a5,-4
    3930:	0ff7f793          	andi	a5,a5,255
    3934:	4705                	li	a4,1
    3936:	00f76e63          	bltu	a4,a5,3952 <dhcp_create_request+0xc4>
    393a:	00494783          	lbu	a5,4(s2)
    393e:	a45c                	sb	a5,12(s0)
    3940:	00594783          	lbu	a5,5(s2)
    3944:	b45c                	sb	a5,13(s0)
    3946:	00694783          	lbu	a5,6(s2)
    394a:	a47c                	sb	a5,14(s0)
    394c:	00794783          	lbu	a5,7(s2)
    3950:	b47c                	sb	a5,15(s0)
    3952:	00040823          	sb	zero,16(s0)
    3956:	000408a3          	sb	zero,17(s0)
    395a:	00040923          	sb	zero,18(s0)
    395e:	000409a3          	sb	zero,19(s0)
    3962:	00040a23          	sb	zero,20(s0)
    3966:	00040aa3          	sb	zero,21(s0)
    396a:	00040b23          	sb	zero,22(s0)
    396e:	00040ba3          	sb	zero,23(s0)
    3972:	00040c23          	sb	zero,24(s0)
    3976:	00040ca3          	sb	zero,25(s0)
    397a:	00040d23          	sb	zero,26(s0)
    397e:	00040da3          	sb	zero,27(s0)
    3982:	02894583          	lbu	a1,40(s2)
    3986:	4781                	li	a5,0
    3988:	4641                	li	a2,16
    398a:	01079713          	slli	a4,a5,0x10
    398e:	8341                	srli	a4,a4,0x10
    3990:	4681                	li	a3,0
    3992:	00b77663          	bgeu	a4,a1,399e <dhcp_create_request+0x110>
    3996:	00f90733          	add	a4,s2,a5
    399a:	02974683          	lbu	a3,41(a4)
    399e:	00f40733          	add	a4,s0,a5
    39a2:	af54                	sb	a3,28(a4)
    39a4:	0785                	addi	a5,a5,1
    39a6:	fec792e3          	bne	a5,a2,398a <dhcp_create_request+0xfc>
    39aa:	02c40713          	addi	a4,s0,44
    39ae:	06c40793          	addi	a5,s0,108
    39b2:	00070023          	sb	zero,0(a4)
    39b6:	0705                	addi	a4,a4,1
    39b8:	fee79de3          	bne	a5,a4,39b2 <dhcp_create_request+0x124>
    39bc:	0ec40713          	addi	a4,s0,236
    39c0:	00078023          	sb	zero,0(a5)
    39c4:	0785                	addi	a5,a5,1
    39c6:	fee79de3          	bne	a5,a4,39c0 <dhcp_create_request+0x132>
    39ca:	63825537          	lui	a0,0x63825
    39ce:	36350513          	addi	a0,a0,867 # 63825363 <_eusrstack+0x43815363>
    39d2:	ad0ff0ef          	jal	ra,2ca2 <htonl>
    39d6:	00855793          	srli	a5,a0,0x8
    39da:	0ea40623          	sb	a0,236(s0)
    39de:	0ef406a3          	sb	a5,237(s0)
    39e2:	4c90                	lw	a2,24(s1)
    39e4:	01055793          	srli	a5,a0,0x10
    39e8:	8161                	srli	a0,a0,0x18
    39ea:	0ef40723          	sb	a5,238(s0)
    39ee:	0ea407a3          	sb	a0,239(s0)
    39f2:	00049e23          	sh	zero,28(s1)
    39f6:	4781                	li	a5,0
    39f8:	04400713          	li	a4,68
    39fc:	00f606b3          	add	a3,a2,a5
    3a00:	0ef68823          	sb	a5,240(a3)
    3a04:	0785                	addi	a5,a5,1
    3a06:	fee79be3          	bne	a5,a4,39fc <dhcp_create_request+0x16e>
    3a0a:	4781                	li	a5,0
    3a0c:	853e                	mv	a0,a5
    3a0e:	f86fc06f          	j	194 <__riscv_restore_0>
    3a12:	57d9                	li	a5,-10
    3a14:	853e                	mv	a0,a5
    3a16:	8082                	ret

00003a18 <dhcp_delete_request>:
    3a18:	cd11                	beqz	a0,3a34 <dhcp_delete_request+0x1c>
    3a1a:	f56fc2ef          	jal	t0,170 <__riscv_save_0>
    3a1e:	5100                	lw	s0,32(a0)
    3a20:	c801                	beqz	s0,3a30 <dhcp_delete_request+0x18>
    3a22:	4848                	lw	a0,20(s0)
    3a24:	c111                	beqz	a0,3a28 <dhcp_delete_request+0x10>
    3a26:	25a1                	jal	406e <pbuf_free>
    3a28:	00042a23          	sw	zero,20(s0)
    3a2c:	00042c23          	sw	zero,24(s0)
    3a30:	f64fc06f          	j	194 <__riscv_restore_0>
    3a34:	8082                	ret

00003a36 <dhcp_arp_reply>:
    3a36:	18050063          	beqz	a0,3bb6 <dhcp_arp_reply+0x180>
    3a3a:	f36fc2ef          	jal	t0,170 <__riscv_save_0>
    3a3e:	5100                	lw	s0,32(a0)
    3a40:	16040963          	beqz	s0,3bb2 <dhcp_arp_reply+0x17c>
    3a44:	2838                	lbu	a4,18(s0)
    3a46:	47a1                	li	a5,8
    3a48:	16f71563          	bne	a4,a5,3bb2 <dhcp_arp_reply+0x17c>
    3a4c:	3198                	lbu	a4,1(a1)
    3a4e:	219c                	lbu	a5,0(a1)
    3a50:	0722                	slli	a4,a4,0x8
    3a52:	8f5d                	or	a4,a4,a5
    3a54:	21bc                	lbu	a5,2(a1)
    3a56:	07c2                	slli	a5,a5,0x10
    3a58:	8f5d                	or	a4,a4,a5
    3a5a:	31bc                	lbu	a5,3(a1)
    3a5c:	07e2                	slli	a5,a5,0x18
    3a5e:	8fd9                	or	a5,a5,a4
    3a60:	5418                	lw	a4,40(s0)
    3a62:	14e79863          	bne	a5,a4,3bb2 <dhcp_arp_reply+0x17c>
    3a66:	84aa                	mv	s1,a0
    3a68:	45b1                	li	a1,12
    3a6a:	8522                	mv	a0,s0
    3a6c:	d67ff0ef          	jal	ra,37d2 <dhcp_set_state>
    3a70:	8526                	mv	a0,s1
    3a72:	e1dff0ef          	jal	ra,388e <dhcp_create_request>
    3a76:	12051963          	bnez	a0,3ba8 <dhcp_arp_reply+0x172>
    3a7a:	4605                	li	a2,1
    3a7c:	03500593          	li	a1,53
    3a80:	8522                	mv	a0,s0
    3a82:	d5fff0ef          	jal	ra,37e0 <dhcp_option>
    3a86:	4591                	li	a1,4
    3a88:	8522                	mv	a0,s0
    3a8a:	d77ff0ef          	jal	ra,3800 <dhcp_option_byte>
    3a8e:	4611                	li	a2,4
    3a90:	03200593          	li	a1,50
    3a94:	8522                	mv	a0,s0
    3a96:	d4bff0ef          	jal	ra,37e0 <dhcp_option>
    3a9a:	5408                	lw	a0,40(s0)
    3a9c:	a2aff0ef          	jal	ra,2cc6 <ntohl>
    3aa0:	85aa                	mv	a1,a0
    3aa2:	8522                	mv	a0,s0
    3aa4:	d6fff0ef          	jal	ra,3812 <dhcp_option_long>
    3aa8:	4611                	li	a2,4
    3aaa:	03600593          	li	a1,54
    3aae:	8522                	mv	a0,s0
    3ab0:	d31ff0ef          	jal	ra,37e0 <dhcp_option>
    3ab4:	5048                	lw	a0,36(s0)
    3ab6:	a10ff0ef          	jal	ra,2cc6 <ntohl>
    3aba:	85aa                	mv	a1,a0
    3abc:	8522                	mv	a0,s0
    3abe:	d55ff0ef          	jal	ra,3812 <dhcp_option_long>
    3ac2:	461d                	li	a2,7
    3ac4:	03d00593          	li	a1,61
    3ac8:	8522                	mv	a0,s0
    3aca:	d17ff0ef          	jal	ra,37e0 <dhcp_option>
    3ace:	2c5e                	lhu	a5,28(s0)
    3ad0:	4c18                	lw	a4,24(s0)
    3ad2:	4605                	li	a2,1
    3ad4:	8522                	mv	a0,s0
    3ad6:	00f706b3          	add	a3,a4,a5
    3ada:	0ec68823          	sb	a2,240(a3)
    3ade:	00278613          	addi	a2,a5,2
    3ae2:	0642                	slli	a2,a2,0x10
    3ae4:	8241                	srli	a2,a2,0x10
    3ae6:	ac52                	sh	a2,28(s0)
    3ae8:	00178693          	addi	a3,a5,1
    3aec:	0294c583          	lbu	a1,41(s1)
    3af0:	06c2                	slli	a3,a3,0x10
    3af2:	82c1                	srli	a3,a3,0x10
    3af4:	96ba                	add	a3,a3,a4
    3af6:	0eb68823          	sb	a1,240(a3)
    3afa:	00378693          	addi	a3,a5,3
    3afe:	06c2                	slli	a3,a3,0x10
    3b00:	82c1                	srli	a3,a3,0x10
    3b02:	ac56                	sh	a3,28(s0)
    3b04:	02a4c583          	lbu	a1,42(s1)
    3b08:	963a                	add	a2,a2,a4
    3b0a:	96ba                	add	a3,a3,a4
    3b0c:	0eb60823          	sb	a1,240(a2)
    3b10:	00478613          	addi	a2,a5,4
    3b14:	0642                	slli	a2,a2,0x10
    3b16:	8241                	srli	a2,a2,0x10
    3b18:	ac52                	sh	a2,28(s0)
    3b1a:	02b4c583          	lbu	a1,43(s1)
    3b1e:	963a                	add	a2,a2,a4
    3b20:	0eb68823          	sb	a1,240(a3)
    3b24:	00578693          	addi	a3,a5,5
    3b28:	06c2                	slli	a3,a3,0x10
    3b2a:	82c1                	srli	a3,a3,0x10
    3b2c:	ac56                	sh	a3,28(s0)
    3b2e:	02c4c583          	lbu	a1,44(s1)
    3b32:	96ba                	add	a3,a3,a4
    3b34:	0eb60823          	sb	a1,240(a2)
    3b38:	00678613          	addi	a2,a5,6
    3b3c:	0642                	slli	a2,a2,0x10
    3b3e:	8241                	srli	a2,a2,0x10
    3b40:	ac52                	sh	a2,28(s0)
    3b42:	02d4c583          	lbu	a1,45(s1)
    3b46:	079d                	addi	a5,a5,7
    3b48:	9732                	add	a4,a4,a2
    3b4a:	0eb68823          	sb	a1,240(a3)
    3b4e:	ac5e                	sh	a5,28(s0)
    3b50:	02e4c783          	lbu	a5,46(s1)
    3b54:	0ef70823          	sb	a5,240(a4)
    3b58:	d03ff0ef          	jal	ra,385a <dhcp_option_trailer>
    3b5c:	2c4e                	lhu	a1,28(s0)
    3b5e:	4848                	lw	a0,20(s0)
    3b60:	0f058593          	addi	a1,a1,240
    3b64:	05c2                	slli	a1,a1,0x10
    3b66:	81c1                	srli	a1,a1,0x10
    3b68:	2d51                	jal	41fc <pbuf_realloc>
    3b6a:	02844703          	lbu	a4,40(s0)
    3b6e:	4c1c                	lw	a5,24(s0)
    3b70:	484c                	lw	a1,20(s0)
    3b72:	4048                	lw	a0,4(s0)
    3b74:	a7d8                	sb	a4,12(a5)
    3b76:	02944703          	lbu	a4,41(s0)
    3b7a:	0044a903          	lw	s2,4(s1)
    3b7e:	b7d8                	sb	a4,13(a5)
    3b80:	02a44703          	lbu	a4,42(s0)
    3b84:	04300693          	li	a3,67
    3b88:	85418613          	addi	a2,gp,-1964 # 200000c4 <ip_addr_broadcast>
    3b8c:	a7f8                	sb	a4,14(a5)
    3b8e:	02b44703          	lbu	a4,43(s0)
    3b92:	b7f8                	sb	a4,15(a5)
    3b94:	0004a223          	sw	zero,4(s1)
    3b98:	8726                	mv	a4,s1
    3b9a:	5f8030ef          	jal	ra,7192 <udp_sendto_if>
    3b9e:	8526                	mv	a0,s1
    3ba0:	0124a223          	sw	s2,4(s1)
    3ba4:	e75ff0ef          	jal	ra,3a18 <dhcp_delete_request>
    3ba8:	383c                	lbu	a5,19(s0)
    3baa:	0785                	addi	a5,a5,1
    3bac:	b83c                	sb	a5,19(s0)
    3bae:	4785                	li	a5,1
    3bb0:	ac7e                	sh	a5,30(s0)
    3bb2:	de2fc06f          	j	194 <__riscv_restore_0>
    3bb6:	8082                	ret

00003bb8 <lwip_init>:
    3bb8:	db8fc2ef          	jal	t0,170 <__riscv_save_0>
    3bbc:	2811                	jal	3bd0 <mem_init>
    3bbe:	24bd                	jal	3e2c <memp_init>
    3bc0:	200047b7          	lui	a5,0x20004
    3bc4:	1e07a783          	lw	a5,480(a5) # 200041e0 <DNSInf+0x8>
    3bc8:	c391                	beqz	a5,3bcc <lwip_init+0x14>
    3bca:	9782                	jalr	a5
    3bcc:	dc8fc06f          	j	194 <__riscv_restore_0>

00003bd0 <mem_init>:
    3bd0:	20003737          	lui	a4,0x20003
    3bd4:	e7f70713          	addi	a4,a4,-385 # 20002e7f <Mem_Heap_Memory+0x3>
    3bd8:	9b71                	andi	a4,a4,-4
    3bda:	8ee1a423          	sw	a4,-1816(gp) # 20000158 <ram>
    3bde:	200047b7          	lui	a5,0x20004
    3be2:	2447a783          	lw	a5,580(a5) # 20004244 <WCHCfg+0x8>
    3be6:	00071123          	sh	zero,2(a4)
    3bea:	078d                	addi	a5,a5,3
    3bec:	9bf1                	andi	a5,a5,-4
    3bee:	01079693          	slli	a3,a5,0x10
    3bf2:	82c1                	srli	a3,a3,0x10
    3bf4:	97ba                	add	a5,a5,a4
    3bf6:	a316                	sh	a3,0(a4)
    3bf8:	00070223          	sb	zero,4(a4)
    3bfc:	8ef1a623          	sw	a5,-1812(gp) # 2000015c <ram_end>
    3c00:	4605                	li	a2,1
    3c02:	a3d0                	sb	a2,4(a5)
    3c04:	a396                	sh	a3,0(a5)
    3c06:	a3b6                	sh	a3,2(a5)
    3c08:	8ee1a223          	sw	a4,-1820(gp) # 20000154 <lfree>
    3c0c:	8082                	ret

00003c0e <mem_free>:
    3c0e:	c149                	beqz	a0,3c90 <mem_free+0x82>
    3c10:	8e81a783          	lw	a5,-1816(gp) # 20000158 <ram>
    3c14:	06f56e63          	bltu	a0,a5,3c90 <mem_free+0x82>
    3c18:	8ec1a583          	lw	a1,-1812(gp) # 2000015c <ram_end>
    3c1c:	06b57a63          	bgeu	a0,a1,3c90 <mem_free+0x82>
    3c20:	8e41a683          	lw	a3,-1820(gp) # 20000154 <lfree>
    3c24:	ff850613          	addi	a2,a0,-8
    3c28:	fe050e23          	sb	zero,-4(a0)
    3c2c:	8e418713          	addi	a4,gp,-1820 # 20000154 <lfree>
    3c30:	00d67363          	bgeu	a2,a3,3c36 <mem_free+0x28>
    3c34:	c310                	sw	a2,0(a4)
    3c36:	ff855683          	lhu	a3,-8(a0)
    3c3a:	96be                	add	a3,a3,a5
    3c3c:	02d60463          	beq	a2,a3,3c64 <mem_free+0x56>
    3c40:	0046c803          	lbu	a6,4(a3)
    3c44:	02081063          	bnez	a6,3c64 <mem_free+0x56>
    3c48:	00d58e63          	beq	a1,a3,3c64 <mem_free+0x56>
    3c4c:	430c                	lw	a1,0(a4)
    3c4e:	00b69363          	bne	a3,a1,3c54 <mem_free+0x46>
    3c52:	c310                	sw	a2,0(a4)
    3c54:	228e                	lhu	a1,0(a3)
    3c56:	feb51c23          	sh	a1,-8(a0)
    3c5a:	2296                	lhu	a3,0(a3)
    3c5c:	40f605b3          	sub	a1,a2,a5
    3c60:	96be                	add	a3,a3,a5
    3c62:	a2ae                	sh	a1,2(a3)
    3c64:	ffa55583          	lhu	a1,-6(a0)
    3c68:	00b786b3          	add	a3,a5,a1
    3c6c:	02d60263          	beq	a2,a3,3c90 <mem_free+0x82>
    3c70:	0046c803          	lbu	a6,4(a3)
    3c74:	00081e63          	bnez	a6,3c90 <mem_free+0x82>
    3c78:	00072803          	lw	a6,0(a4)
    3c7c:	01061363          	bne	a2,a6,3c82 <mem_free+0x74>
    3c80:	c314                	sw	a3,0(a4)
    3c82:	ff855703          	lhu	a4,-8(a0)
    3c86:	a29a                	sh	a4,0(a3)
    3c88:	ff855703          	lhu	a4,-8(a0)
    3c8c:	97ba                	add	a5,a5,a4
    3c8e:	a3ae                	sh	a1,2(a5)
    3c90:	8082                	ret

00003c92 <mem_realloc>:
    3c92:	058d                	addi	a1,a1,3
    3c94:	05c2                	slli	a1,a1,0x10
    3c96:	81c1                	srli	a1,a1,0x10
    3c98:	99f1                	andi	a1,a1,-4
    3c9a:	05c2                	slli	a1,a1,0x10
    3c9c:	81c1                	srli	a1,a1,0x10
    3c9e:	4731                	li	a4,12
    3ca0:	87ae                	mv	a5,a1
    3ca2:	00e5f363          	bgeu	a1,a4,3ca8 <mem_realloc+0x16>
    3ca6:	47b1                	li	a5,12
    3ca8:	20004737          	lui	a4,0x20004
    3cac:	24472603          	lw	a2,580(a4) # 20004244 <WCHCfg+0x8>
    3cb0:	07c2                	slli	a5,a5,0x10
    3cb2:	83c1                	srli	a5,a5,0x10
    3cb4:	060d                	addi	a2,a2,3
    3cb6:	9a71                	andi	a2,a2,-4
    3cb8:	0af66063          	bltu	a2,a5,3d58 <mem_realloc+0xc6>
    3cbc:	8e81a703          	lw	a4,-1816(gp) # 20000158 <ram>
    3cc0:	08e56d63          	bltu	a0,a4,3d5a <mem_realloc+0xc8>
    3cc4:	8ec1a683          	lw	a3,-1812(gp) # 2000015c <ram_end>
    3cc8:	08d57963          	bgeu	a0,a3,3d5a <mem_realloc+0xc8>
    3ccc:	ff850693          	addi	a3,a0,-8
    3cd0:	ff855883          	lhu	a7,-8(a0)
    3cd4:	8e99                	sub	a3,a3,a4
    3cd6:	06c2                	slli	a3,a3,0x10
    3cd8:	82c1                	srli	a3,a3,0x10
    3cda:	ff888593          	addi	a1,a7,-8
    3cde:	8d95                	sub	a1,a1,a3
    3ce0:	05c2                	slli	a1,a1,0x10
    3ce2:	81c1                	srli	a1,a1,0x10
    3ce4:	06f5ea63          	bltu	a1,a5,3d58 <mem_realloc+0xc6>
    3ce8:	06f58963          	beq	a1,a5,3d5a <mem_realloc+0xc8>
    3cec:	01170333          	add	t1,a4,a7
    3cf0:	00434803          	lbu	a6,4(t1)
    3cf4:	02081463          	bnez	a6,3d1c <mem_realloc+0x8a>
    3cf8:	00868593          	addi	a1,a3,8
    3cfc:	8e418813          	addi	a6,gp,-1820 # 20000154 <lfree>
    3d00:	97ae                	add	a5,a5,a1
    3d02:	00082e03          	lw	t3,0(a6)
    3d06:	07c2                	slli	a5,a5,0x10
    3d08:	83c1                	srli	a5,a5,0x10
    3d0a:	00035883          	lhu	a7,0(t1)
    3d0e:	00f705b3          	add	a1,a4,a5
    3d12:	026e1663          	bne	t3,t1,3d3e <mem_realloc+0xac>
    3d16:	00b82023          	sw	a1,0(a6)
    3d1a:	a015                	j	3d3e <mem_realloc+0xac>
    3d1c:	01478813          	addi	a6,a5,20
    3d20:	0305ed63          	bltu	a1,a6,3d5a <mem_realloc+0xc8>
    3d24:	00868593          	addi	a1,a3,8
    3d28:	97ae                	add	a5,a5,a1
    3d2a:	8e418813          	addi	a6,gp,-1820 # 20000154 <lfree>
    3d2e:	07c2                	slli	a5,a5,0x10
    3d30:	00082303          	lw	t1,0(a6)
    3d34:	83c1                	srli	a5,a5,0x10
    3d36:	00f705b3          	add	a1,a4,a5
    3d3a:	fc65eee3          	bltu	a1,t1,3d16 <mem_realloc+0x84>
    3d3e:	01159023          	sh	a7,0(a1)
    3d42:	a1b6                	sh	a3,2(a1)
    3d44:	00058223          	sb	zero,4(a1)
    3d48:	fef51c23          	sh	a5,-8(a0)
    3d4c:	2196                	lhu	a3,0(a1)
    3d4e:	00d60663          	beq	a2,a3,3d5a <mem_realloc+0xc8>
    3d52:	9736                	add	a4,a4,a3
    3d54:	a33e                	sh	a5,2(a4)
    3d56:	8082                	ret
    3d58:	4501                	li	a0,0
    3d5a:	8082                	ret

00003d5c <mem_malloc>:
    3d5c:	c539                	beqz	a0,3daa <mem_malloc+0x4e>
    3d5e:	00350713          	addi	a4,a0,3
    3d62:	0742                	slli	a4,a4,0x10
    3d64:	8341                	srli	a4,a4,0x10
    3d66:	9b71                	andi	a4,a4,-4
    3d68:	0742                	slli	a4,a4,0x10
    3d6a:	8341                	srli	a4,a4,0x10
    3d6c:	46b1                	li	a3,12
    3d6e:	87ba                	mv	a5,a4
    3d70:	00d77363          	bgeu	a4,a3,3d76 <mem_malloc+0x1a>
    3d74:	47b1                	li	a5,12
    3d76:	20004737          	lui	a4,0x20004
    3d7a:	24472603          	lw	a2,580(a4) # 20004244 <WCHCfg+0x8>
    3d7e:	07c2                	slli	a5,a5,0x10
    3d80:	83c1                	srli	a5,a5,0x10
    3d82:	060d                	addi	a2,a2,3
    3d84:	9a71                	andi	a2,a2,-4
    3d86:	4501                	li	a0,0
    3d88:	02f66263          	bltu	a2,a5,3dac <mem_malloc+0x50>
    3d8c:	8e41a703          	lw	a4,-1820(gp) # 20000154 <lfree>
    3d90:	8e81ae83          	lw	t4,-1816(gp) # 20000158 <ram>
    3d94:	8e418593          	addi	a1,gp,-1820 # 20000154 <lfree>
    3d98:	40f60333          	sub	t1,a2,a5
    3d9c:	41d706b3          	sub	a3,a4,t4
    3da0:	06c2                	slli	a3,a3,0x10
    3da2:	82c1                	srli	a3,a3,0x10
    3da4:	5e61                	li	t3,-8
    3da6:	0066e463          	bltu	a3,t1,3dae <mem_malloc+0x52>
    3daa:	4501                	li	a0,0
    3dac:	8082                	ret
    3dae:	00de8533          	add	a0,t4,a3
    3db2:	00454803          	lbu	a6,4(a0)
    3db6:	00055883          	lhu	a7,0(a0)
    3dba:	06081763          	bnez	a6,3e28 <mem_malloc+0xcc>
    3dbe:	40de0833          	sub	a6,t3,a3
    3dc2:	9846                	add	a6,a6,a7
    3dc4:	06f86263          	bltu	a6,a5,3e28 <mem_malloc+0xcc>
    3dc8:	01478313          	addi	t1,a5,20
    3dcc:	04686263          	bltu	a6,t1,3e10 <mem_malloc+0xb4>
    3dd0:	07a1                	addi	a5,a5,8
    3dd2:	97b6                	add	a5,a5,a3
    3dd4:	07c2                	slli	a5,a5,0x10
    3dd6:	83c1                	srli	a5,a5,0x10
    3dd8:	00fe8833          	add	a6,t4,a5
    3ddc:	01181023          	sh	a7,0(a6)
    3de0:	00d81123          	sh	a3,2(a6)
    3de4:	00080223          	sb	zero,4(a6)
    3de8:	4685                	li	a3,1
    3dea:	a11e                	sh	a5,0(a0)
    3dec:	a154                	sb	a3,4(a0)
    3dee:	00085683          	lhu	a3,0(a6)
    3df2:	00d60463          	beq	a2,a3,3dfa <mem_malloc+0x9e>
    3df6:	96f6                	add	a3,a3,t4
    3df8:	a2be                	sh	a5,2(a3)
    3dfa:	00a71963          	bne	a4,a0,3e0c <mem_malloc+0xb0>
    3dfe:	8ec1a683          	lw	a3,-1812(gp) # 2000015c <ram_end>
    3e02:	4781                	li	a5,0
    3e04:	2350                	lbu	a2,4(a4)
    3e06:	ee01                	bnez	a2,3e1e <mem_malloc+0xc2>
    3e08:	c391                	beqz	a5,3e0c <mem_malloc+0xb0>
    3e0a:	c198                	sw	a4,0(a1)
    3e0c:	0521                	addi	a0,a0,8
    3e0e:	8082                	ret
    3e10:	4785                	li	a5,1
    3e12:	a15c                	sb	a5,4(a0)
    3e14:	b7dd                	j	3dfa <mem_malloc+0x9e>
    3e16:	231a                	lhu	a4,0(a4)
    3e18:	4785                	li	a5,1
    3e1a:	9776                	add	a4,a4,t4
    3e1c:	b7e5                	j	3e04 <mem_malloc+0xa8>
    3e1e:	fee69ce3          	bne	a3,a4,3e16 <mem_malloc+0xba>
    3e22:	d7ed                	beqz	a5,3e0c <mem_malloc+0xb0>
    3e24:	c194                	sw	a3,0(a1)
    3e26:	b7dd                	j	3e0c <mem_malloc+0xb0>
    3e28:	86c6                	mv	a3,a7
    3e2a:	bfb5                	j	3da6 <mem_malloc+0x4a>

00003e2c <memp_init>:
    3e2c:	82c1a583          	lw	a1,-2004(gp) # 2000009c <memp_num>
    3e30:	8301a683          	lw	a3,-2000(gp) # 200000a0 <memp_sizes>
    3e34:	200037b7          	lui	a5,0x20003
    3e38:	4f778793          	addi	a5,a5,1271 # 200034f7 <Memp_Memory+0x3>
    3e3c:	20004737          	lui	a4,0x20004
    3e40:	9bf1                	andi	a5,a5,-4
    3e42:	2a070713          	addi	a4,a4,672 # 200042a0 <memp_tab>
    3e46:	01068513          	addi	a0,a3,16
    3e4a:	0005d803          	lhu	a6,0(a1)
    3e4e:	00072023          	sw	zero,0(a4)
    3e52:	4601                	li	a2,0
    3e54:	00c81863          	bne	a6,a2,3e64 <memp_init+0x38>
    3e58:	0689                	addi	a3,a3,2
    3e5a:	0711                	addi	a4,a4,4
    3e5c:	0589                	addi	a1,a1,2
    3e5e:	fea696e3          	bne	a3,a0,3e4a <memp_init+0x1e>
    3e62:	8082                	ret
    3e64:	00072883          	lw	a7,0(a4)
    3e68:	0605                	addi	a2,a2,1
    3e6a:	0642                	slli	a2,a2,0x10
    3e6c:	0117a023          	sw	a7,0(a5)
    3e70:	0006d883          	lhu	a7,0(a3)
    3e74:	c31c                	sw	a5,0(a4)
    3e76:	8241                	srli	a2,a2,0x10
    3e78:	97c6                	add	a5,a5,a7
    3e7a:	bfe9                	j	3e54 <memp_init+0x28>

00003e7c <memp_malloc>:
    3e7c:	479d                	li	a5,7
    3e7e:	00a7ed63          	bltu	a5,a0,3e98 <memp_malloc+0x1c>
    3e82:	200047b7          	lui	a5,0x20004
    3e86:	050a                	slli	a0,a0,0x2
    3e88:	2a078793          	addi	a5,a5,672 # 200042a0 <memp_tab>
    3e8c:	97aa                	add	a5,a5,a0
    3e8e:	4388                	lw	a0,0(a5)
    3e90:	c509                	beqz	a0,3e9a <memp_malloc+0x1e>
    3e92:	4118                	lw	a4,0(a0)
    3e94:	c398                	sw	a4,0(a5)
    3e96:	8082                	ret
    3e98:	4501                	li	a0,0
    3e9a:	8082                	ret

00003e9c <memp_free>:
    3e9c:	c999                	beqz	a1,3eb2 <memp_free+0x16>
    3e9e:	00251793          	slli	a5,a0,0x2
    3ea2:	20004537          	lui	a0,0x20004
    3ea6:	2a050513          	addi	a0,a0,672 # 200042a0 <memp_tab>
    3eaa:	953e                	add	a0,a0,a5
    3eac:	411c                	lw	a5,0(a0)
    3eae:	c19c                	sw	a5,0(a1)
    3eb0:	c10c                	sw	a1,0(a0)
    3eb2:	8082                	ret

00003eb4 <netif_set_ipaddr>:
    3eb4:	aa2fc2ef          	jal	t0,156 <__riscv_save_4>
    3eb8:	3198                	lbu	a4,1(a1)
    3eba:	219c                	lbu	a5,0(a1)
    3ebc:	84aa                	mv	s1,a0
    3ebe:	0722                	slli	a4,a4,0x8
    3ec0:	8f5d                	or	a4,a4,a5
    3ec2:	21bc                	lbu	a5,2(a1)
    3ec4:	842e                	mv	s0,a1
    3ec6:	07c2                	slli	a5,a5,0x10
    3ec8:	8f5d                	or	a4,a4,a5
    3eca:	31bc                	lbu	a5,3(a1)
    3ecc:	07e2                	slli	a5,a5,0x18
    3ece:	8fd9                	or	a5,a5,a4
    3ed0:	4158                	lw	a4,4(a0)
    3ed2:	00e79f63          	bne	a5,a4,3ef0 <netif_set_ipaddr+0x3c>
    3ed6:	3018                	lbu	a4,1(s0)
    3ed8:	201c                	lbu	a5,0(s0)
    3eda:	0722                	slli	a4,a4,0x8
    3edc:	8f5d                	or	a4,a4,a5
    3ede:	203c                	lbu	a5,2(s0)
    3ee0:	07c2                	slli	a5,a5,0x10
    3ee2:	8f5d                	or	a4,a4,a5
    3ee4:	303c                	lbu	a5,3(s0)
    3ee6:	07e2                	slli	a5,a5,0x18
    3ee8:	8fd9                	or	a5,a5,a4
    3eea:	c0dc                	sw	a5,4(s1)
    3eec:	a9efc06f          	j	18a <__riscv_restore_4>
    3ef0:	9001a503          	lw	a0,-1792(gp) # 20000170 <tcp_active_pcbs>
    3ef4:	4901                	li	s2,0
    3ef6:	06400993          	li	s3,100
    3efa:	c105                	beqz	a0,3f1a <netif_set_ipaddr+0x66>
    3efc:	4118                	lw	a4,0(a0)
    3efe:	40dc                	lw	a5,4(s1)
    3f00:	00c52a03          	lw	s4,12(a0)
    3f04:	04f71163          	bne	a4,a5,3f46 <netif_set_ipaddr+0x92>
    3f08:	4585                	li	a1,1
    3f0a:	4d9000ef          	jal	ra,4be2 <tcp_abandon>
    3f0e:	00190793          	addi	a5,s2,1
    3f12:	0ff7f793          	andi	a5,a5,255
    3f16:	0329f763          	bgeu	s3,s2,3f44 <netif_set_ipaddr+0x90>
    3f1a:	9081a783          	lw	a5,-1784(gp) # 20000178 <tcp_listen_pcbs>
    3f1e:	dfc5                	beqz	a5,3ed6 <netif_set_ipaddr+0x22>
    3f20:	4398                	lw	a4,0(a5)
    3f22:	cf19                	beqz	a4,3f40 <netif_set_ipaddr+0x8c>
    3f24:	40d4                	lw	a3,4(s1)
    3f26:	00d71d63          	bne	a4,a3,3f40 <netif_set_ipaddr+0x8c>
    3f2a:	3014                	lbu	a3,1(s0)
    3f2c:	2018                	lbu	a4,0(s0)
    3f2e:	06a2                	slli	a3,a3,0x8
    3f30:	8ed9                	or	a3,a3,a4
    3f32:	2038                	lbu	a4,2(s0)
    3f34:	0742                	slli	a4,a4,0x10
    3f36:	8ed9                	or	a3,a3,a4
    3f38:	3038                	lbu	a4,3(s0)
    3f3a:	0762                	slli	a4,a4,0x18
    3f3c:	8f55                	or	a4,a4,a3
    3f3e:	c398                	sw	a4,0(a5)
    3f40:	47dc                	lw	a5,12(a5)
    3f42:	bff1                	j	3f1e <netif_set_ipaddr+0x6a>
    3f44:	893e                	mv	s2,a5
    3f46:	8552                	mv	a0,s4
    3f48:	bf4d                	j	3efa <netif_set_ipaddr+0x46>

00003f4a <netif_set_addr>:
    3f4a:	a26fc2ef          	jal	t0,170 <__riscv_save_0>
    3f4e:	1141                	addi	sp,sp,-16
    3f50:	c632                	sw	a2,12(sp)
    3f52:	c436                	sw	a3,8(sp)
    3f54:	842a                	mv	s0,a0
    3f56:	f5fff0ef          	jal	ra,3eb4 <netif_set_ipaddr>
    3f5a:	4632                	lw	a2,12(sp)
    3f5c:	46a2                	lw	a3,8(sp)
    3f5e:	4781                	li	a5,0
    3f60:	ca19                	beqz	a2,3f76 <netif_set_addr+0x2c>
    3f62:	3218                	lbu	a4,1(a2)
    3f64:	221c                	lbu	a5,0(a2)
    3f66:	0722                	slli	a4,a4,0x8
    3f68:	8f5d                	or	a4,a4,a5
    3f6a:	223c                	lbu	a5,2(a2)
    3f6c:	07c2                	slli	a5,a5,0x10
    3f6e:	8f5d                	or	a4,a4,a5
    3f70:	323c                	lbu	a5,3(a2)
    3f72:	07e2                	slli	a5,a5,0x18
    3f74:	8fd9                	or	a5,a5,a4
    3f76:	c41c                	sw	a5,8(s0)
    3f78:	4781                	li	a5,0
    3f7a:	ca99                	beqz	a3,3f90 <netif_set_addr+0x46>
    3f7c:	3298                	lbu	a4,1(a3)
    3f7e:	229c                	lbu	a5,0(a3)
    3f80:	0722                	slli	a4,a4,0x8
    3f82:	8f5d                	or	a4,a4,a5
    3f84:	22bc                	lbu	a5,2(a3)
    3f86:	07c2                	slli	a5,a5,0x10
    3f88:	8f5d                	or	a4,a4,a5
    3f8a:	32bc                	lbu	a5,3(a3)
    3f8c:	07e2                	slli	a5,a5,0x18
    3f8e:	8fd9                	or	a5,a5,a4
    3f90:	c45c                	sw	a5,12(s0)
    3f92:	0141                	addi	sp,sp,16
    3f94:	a00fc06f          	j	194 <__riscv_restore_0>

00003f98 <netif_add>:
    3f98:	9d8fc2ef          	jal	t0,170 <__riscv_save_0>
    3f9c:	cd58                	sw	a4,28(a0)
    3f9e:	8f818713          	addi	a4,gp,-1800 # 20000168 <netifnum.2471>
    3fa2:	00074883          	lbu	a7,0(a4)
    3fa6:	1141                	addi	sp,sp,-16
    3fa8:	00052223          	sw	zero,4(a0)
    3fac:	00052423          	sw	zero,8(a0)
    3fb0:	00052623          	sw	zero,12(a0)
    3fb4:	02050923          	sb	zero,50(a0)
    3fb8:	02052023          	sw	zero,32(a0)
    3fbc:	00188313          	addi	t1,a7,1
    3fc0:	03150aa3          	sb	a7,53(a0)
    3fc4:	01052823          	sw	a6,16(a0)
    3fc8:	842a                	mv	s0,a0
    3fca:	c63e                	sw	a5,12(sp)
    3fcc:	00670023          	sb	t1,0(a4)
    3fd0:	f7bff0ef          	jal	ra,3f4a <netif_set_addr>
    3fd4:	47b2                	lw	a5,12(sp)
    3fd6:	8522                	mv	a0,s0
    3fd8:	9782                	jalr	a5
    3fda:	e911                	bnez	a0,3fee <netif_add+0x56>
    3fdc:	8f418793          	addi	a5,gp,-1804 # 20000164 <netif_list>
    3fe0:	4398                	lw	a4,0(a5)
    3fe2:	c018                	sw	a4,0(s0)
    3fe4:	c380                	sw	s0,0(a5)
    3fe6:	8522                	mv	a0,s0
    3fe8:	0141                	addi	sp,sp,16
    3fea:	9aafc06f          	j	194 <__riscv_restore_0>
    3fee:	4401                	li	s0,0
    3ff0:	bfdd                	j	3fe6 <netif_add+0x4e>

00003ff2 <netif_set_default>:
    3ff2:	8ea1a823          	sw	a0,-1808(gp) # 20000160 <netif_default>
    3ff6:	8082                	ret

00003ff8 <netif_is_up>:
    3ff8:	03254503          	lbu	a0,50(a0)
    3ffc:	8905                	andi	a0,a0,1
    3ffe:	8082                	ret

00004000 <pbuf_header>:
    4000:	87aa                	mv	a5,a0
    4002:	4501                	li	a0,0
    4004:	c5a5                	beqz	a1,406c <pbuf_header+0x6c>
    4006:	c3bd                	beqz	a5,406c <pbuf_header+0x6c>
    4008:	01059613          	slli	a2,a1,0x10
    400c:	8241                	srli	a2,a2,0x10
    400e:	8832                	mv	a6,a2
    4010:	0005db63          	bgez	a1,4026 <pbuf_header+0x26>
    4014:	40c00833          	neg	a6,a2
    4018:	27ba                	lhu	a4,10(a5)
    401a:	0842                	slli	a6,a6,0x10
    401c:	01085813          	srli	a6,a6,0x10
    4020:	4505                	li	a0,1
    4022:	05076563          	bltu	a4,a6,406c <pbuf_header+0x6c>
    4026:	27d4                	lbu	a3,12(a5)
    4028:	43d8                	lw	a4,4(a5)
    402a:	c681                	beqz	a3,4032 <pbuf_header+0x32>
    402c:	450d                	li	a0,3
    402e:	02a69163          	bne	a3,a0,4050 <pbuf_header+0x50>
    4032:	8f0d                	sub	a4,a4,a1
    4034:	01078693          	addi	a3,a5,16
    4038:	4505                	li	a0,1
    403a:	02d76963          	bltu	a4,a3,406c <pbuf_header+0x6c>
    403e:	c3d8                	sw	a4,4(a5)
    4040:	27ba                	lhu	a4,10(a5)
    4042:	4501                	li	a0,0
    4044:	9732                	add	a4,a4,a2
    4046:	a7ba                	sh	a4,10(a5)
    4048:	279a                	lhu	a4,8(a5)
    404a:	963a                	add	a2,a2,a4
    404c:	a792                	sh	a2,8(a5)
    404e:	8082                	ret
    4050:	16fd                	addi	a3,a3,-1
    4052:	06c2                	slli	a3,a3,0x10
    4054:	82c1                	srli	a3,a3,0x10
    4056:	4885                	li	a7,1
    4058:	4505                	li	a0,1
    405a:	00d8e963          	bltu	a7,a3,406c <pbuf_header+0x6c>
    405e:	0005d763          	bgez	a1,406c <pbuf_header+0x6c>
    4062:	27b6                	lhu	a3,10(a5)
    4064:	0106e463          	bltu	a3,a6,406c <pbuf_header+0x6c>
    4068:	8f0d                	sub	a4,a4,a1
    406a:	bfd1                	j	403e <pbuf_header+0x3e>
    406c:	8082                	ret

0000406e <pbuf_free>:
    406e:	8e8fc2ef          	jal	t0,156 <__riscv_save_4>
    4072:	4401                	li	s0,0
    4074:	cd0d                	beqz	a0,40ae <pbuf_free+0x40>
    4076:	85aa                	mv	a1,a0
    4078:	4401                	li	s0,0
    407a:	490d                	li	s2,3
    407c:	4985                	li	s3,1
    407e:	25fe                	lhu	a5,14(a1)
    4080:	17fd                	addi	a5,a5,-1
    4082:	07c2                	slli	a5,a5,0x10
    4084:	83c1                	srli	a5,a5,0x10
    4086:	a5fe                	sh	a5,14(a1)
    4088:	e39d                	bnez	a5,40ae <pbuf_free+0x40>
    408a:	25dc                	lbu	a5,12(a1)
    408c:	4184                	lw	s1,0(a1)
    408e:	451d                	li	a0,7
    4090:	01278863          	beq	a5,s2,40a0 <pbuf_free+0x32>
    4094:	17fd                	addi	a5,a5,-1
    4096:	07c2                	slli	a5,a5,0x10
    4098:	83c1                	srli	a5,a5,0x10
    409a:	00f9ed63          	bltu	s3,a5,40b4 <pbuf_free+0x46>
    409e:	4519                	li	a0,6
    40a0:	dfdff0ef          	jal	ra,3e9c <memp_free>
    40a4:	0405                	addi	s0,s0,1
    40a6:	0ff47413          	andi	s0,s0,255
    40aa:	85a6                	mv	a1,s1
    40ac:	f8e9                	bnez	s1,407e <pbuf_free+0x10>
    40ae:	8522                	mv	a0,s0
    40b0:	8dafc06f          	j	18a <__riscv_restore_4>
    40b4:	852e                	mv	a0,a1
    40b6:	b59ff0ef          	jal	ra,3c0e <mem_free>
    40ba:	b7ed                	j	40a4 <pbuf_free+0x36>

000040bc <pbuf_alloc>:
    40bc:	89afc2ef          	jal	t0,156 <__riscv_save_4>
    40c0:	4785                	li	a5,1
    40c2:	00f50d63          	beq	a0,a5,40dc <pbuf_alloc+0x20>
    40c6:	c531                	beqz	a0,4112 <pbuf_alloc+0x56>
    40c8:	4789                	li	a5,2
    40ca:	04f50663          	beq	a0,a5,4116 <pbuf_alloc+0x5a>
    40ce:	478d                	li	a5,3
    40d0:	04f50563          	beq	a0,a5,411a <pbuf_alloc+0x5e>
    40d4:	4401                	li	s0,0
    40d6:	8522                	mv	a0,s0
    40d8:	8b2fc06f          	j	18a <__riscv_restore_4>
    40dc:	4481                	li	s1,0
    40de:	04d1                	addi	s1,s1,20
    40e0:	04b9                	addi	s1,s1,14
    40e2:	04c2                	slli	s1,s1,0x10
    40e4:	80c1                	srli	s1,s1,0x10
    40e6:	4789                	li	a5,2
    40e8:	89b2                	mv	s3,a2
    40ea:	892e                	mv	s2,a1
    40ec:	02c7e963          	bltu	a5,a2,411e <pbuf_alloc+0x62>
    40f0:	ca79                	beqz	a2,41c6 <pbuf_alloc+0x10a>
    40f2:	4519                	li	a0,6
    40f4:	d89ff0ef          	jal	ra,3e7c <memp_malloc>
    40f8:	842a                	mv	s0,a0
    40fa:	dd69                	beqz	a0,40d4 <pbuf_alloc+0x18>
    40fc:	00052223          	sw	zero,4(a0)
    4100:	01251423          	sh	s2,8(a0)
    4104:	01251523          	sh	s2,10(a0)
    4108:	00052023          	sw	zero,0(a0)
    410c:	01350623          	sb	s3,12(a0)
    4110:	a0b5                	j	417c <pbuf_alloc+0xc0>
    4112:	44d1                	li	s1,20
    4114:	b7e9                	j	40de <pbuf_alloc+0x22>
    4116:	4481                	li	s1,0
    4118:	b7e1                	j	40e0 <pbuf_alloc+0x24>
    411a:	4481                	li	s1,0
    411c:	b7e9                	j	40e6 <pbuf_alloc+0x2a>
    411e:	478d                	li	a5,3
    4120:	4401                	li	s0,0
    4122:	faf61ae3          	bne	a2,a5,40d6 <pbuf_alloc+0x1a>
    4126:	451d                	li	a0,7
    4128:	d55ff0ef          	jal	ra,3e7c <memp_malloc>
    412c:	842a                	mv	s0,a0
    412e:	d15d                	beqz	a0,40d4 <pbuf_alloc+0x18>
    4130:	009507b3          	add	a5,a0,s1
    4134:	07cd                	addi	a5,a5,19
    4136:	9bf1                	andi	a5,a5,-4
    4138:	20004737          	lui	a4,0x20004
    413c:	c15c                	sw	a5,4(a0)
    413e:	23c70793          	addi	a5,a4,572 # 2000423c <WCHCfg>
    4142:	43dc                	lw	a5,4(a5)
    4144:	048d                	addi	s1,s1,3
    4146:	98f1                	andi	s1,s1,-4
    4148:	03978793          	addi	a5,a5,57
    414c:	9bf1                	andi	a5,a5,-4
    414e:	01350623          	sb	s3,12(a0)
    4152:	00052023          	sw	zero,0(a0)
    4156:	01251423          	sh	s2,8(a0)
    415a:	409784b3          	sub	s1,a5,s1
    415e:	23c70993          	addi	s3,a4,572
    4162:	00997363          	bgeu	s2,s1,4168 <pbuf_alloc+0xac>
    4166:	84ca                	mv	s1,s2
    4168:	4785                	li	a5,1
    416a:	a426                	sh	s1,10(s0)
    416c:	a47e                	sh	a5,14(s0)
    416e:	409904b3          	sub	s1,s2,s1
    4172:	4a0d                	li	s4,3
    4174:	8922                	mv	s2,s0
    4176:	4a85                	li	s5,1
    4178:	00904763          	bgtz	s1,4186 <pbuf_alloc+0xca>
    417c:	4785                	li	a5,1
    417e:	a47e                	sh	a5,14(s0)
    4180:	000406a3          	sb	zero,13(s0)
    4184:	bf89                	j	40d6 <pbuf_alloc+0x1a>
    4186:	451d                	li	a0,7
    4188:	cf5ff0ef          	jal	ra,3e7c <memp_malloc>
    418c:	e509                	bnez	a0,4196 <pbuf_alloc+0xda>
    418e:	8522                	mv	a0,s0
    4190:	edfff0ef          	jal	ra,406e <pbuf_free>
    4194:	b781                	j	40d4 <pbuf_alloc+0x18>
    4196:	0049a783          	lw	a5,4(s3)
    419a:	01451623          	sh	s4,12(a0)
    419e:	00052023          	sw	zero,0(a0)
    41a2:	00a92023          	sw	a0,0(s2)
    41a6:	03978793          	addi	a5,a5,57
    41aa:	a506                	sh	s1,8(a0)
    41ac:	9bf1                	andi	a5,a5,-4
    41ae:	00f4f363          	bgeu	s1,a5,41b4 <pbuf_alloc+0xf8>
    41b2:	87a6                	mv	a5,s1
    41b4:	01050713          	addi	a4,a0,16
    41b8:	a53e                	sh	a5,10(a0)
    41ba:	c158                	sw	a4,4(a0)
    41bc:	01551723          	sh	s5,14(a0)
    41c0:	8c9d                	sub	s1,s1,a5
    41c2:	892a                	mv	s2,a0
    41c4:	bf55                	j	4178 <pbuf_alloc+0xbc>
    41c6:	00358793          	addi	a5,a1,3
    41ca:	01348513          	addi	a0,s1,19
    41ce:	9bf1                	andi	a5,a5,-4
    41d0:	9971                	andi	a0,a0,-4
    41d2:	953e                	add	a0,a0,a5
    41d4:	0542                	slli	a0,a0,0x10
    41d6:	8141                	srli	a0,a0,0x10
    41d8:	b85ff0ef          	jal	ra,3d5c <mem_malloc>
    41dc:	842a                	mv	s0,a0
    41de:	ee050be3          	beqz	a0,40d4 <pbuf_alloc+0x18>
    41e2:	94aa                	add	s1,s1,a0
    41e4:	04cd                	addi	s1,s1,19
    41e6:	98f1                	andi	s1,s1,-4
    41e8:	c144                	sw	s1,4(a0)
    41ea:	01251423          	sh	s2,8(a0)
    41ee:	01251523          	sh	s2,10(a0)
    41f2:	00052023          	sw	zero,0(a0)
    41f6:	00050623          	sb	zero,12(a0)
    41fa:	b749                	j	417c <pbuf_alloc+0xc0>

000041fc <pbuf_realloc>:
    41fc:	251e                	lhu	a5,8(a0)
    41fe:	04f5fa63          	bgeu	a1,a5,4252 <pbuf_realloc+0x56>
    4202:	f6ffb2ef          	jal	t0,170 <__riscv_save_0>
    4206:	842a                	mv	s0,a0
    4208:	84ae                	mv	s1,a1
    420a:	40f587b3          	sub	a5,a1,a5
    420e:	242e                	lhu	a1,10(s0)
    4210:	0295e963          	bltu	a1,s1,4242 <pbuf_realloc+0x46>
    4214:	245c                	lbu	a5,12(s0)
    4216:	ef81                	bnez	a5,422e <pbuf_realloc+0x32>
    4218:	00958b63          	beq	a1,s1,422e <pbuf_realloc+0x32>
    421c:	404c                	lw	a1,4(s0)
    421e:	8522                	mv	a0,s0
    4220:	8d81                	sub	a1,a1,s0
    4222:	95a6                	add	a1,a1,s1
    4224:	05c2                	slli	a1,a1,0x10
    4226:	81c1                	srli	a1,a1,0x10
    4228:	a6bff0ef          	jal	ra,3c92 <mem_realloc>
    422c:	842a                	mv	s0,a0
    422e:	4008                	lw	a0,0(s0)
    4230:	a426                	sh	s1,10(s0)
    4232:	a406                	sh	s1,8(s0)
    4234:	c119                	beqz	a0,423a <pbuf_realloc+0x3e>
    4236:	e39ff0ef          	jal	ra,406e <pbuf_free>
    423a:	00042023          	sw	zero,0(s0)
    423e:	f57fb06f          	j	194 <__riscv_restore_0>
    4242:	241a                	lhu	a4,8(s0)
    4244:	8c8d                	sub	s1,s1,a1
    4246:	04c2                	slli	s1,s1,0x10
    4248:	973e                	add	a4,a4,a5
    424a:	a41a                	sh	a4,8(s0)
    424c:	80c1                	srli	s1,s1,0x10
    424e:	4000                	lw	s0,0(s0)
    4250:	bf7d                	j	420e <pbuf_realloc+0x12>
    4252:	8082                	ret

00004254 <pbuf_clen>:
    4254:	4781                	li	a5,0
    4256:	e119                	bnez	a0,425c <pbuf_clen+0x8>
    4258:	853e                	mv	a0,a5
    425a:	8082                	ret
    425c:	0785                	addi	a5,a5,1
    425e:	0ff7f793          	andi	a5,a5,255
    4262:	4108                	lw	a0,0(a0)
    4264:	bfcd                	j	4256 <pbuf_clen+0x2>

00004266 <pbuf_ref>:
    4266:	c501                	beqz	a0,426e <pbuf_ref+0x8>
    4268:	257e                	lhu	a5,14(a0)
    426a:	0785                	addi	a5,a5,1
    426c:	a57e                	sh	a5,14(a0)
    426e:	8082                	ret

00004270 <pbuf_cat>:
    4270:	cd09                	beqz	a0,428a <pbuf_cat+0x1a>
    4272:	e199                	bnez	a1,4278 <pbuf_cat+0x8>
    4274:	8082                	ret
    4276:	853a                	mv	a0,a4
    4278:	259e                	lhu	a5,8(a1)
    427a:	2516                	lhu	a3,8(a0)
    427c:	4118                	lw	a4,0(a0)
    427e:	97b6                	add	a5,a5,a3
    4280:	07c2                	slli	a5,a5,0x10
    4282:	83c1                	srli	a5,a5,0x10
    4284:	a51e                	sh	a5,8(a0)
    4286:	fb65                	bnez	a4,4276 <pbuf_cat+0x6>
    4288:	c10c                	sw	a1,0(a0)
    428a:	8082                	ret

0000428c <pbuf_chain>:
    428c:	ee5fb2ef          	jal	t0,170 <__riscv_save_0>
    4290:	842e                	mv	s0,a1
    4292:	fdfff0ef          	jal	ra,4270 <pbuf_cat>
    4296:	8522                	mv	a0,s0
    4298:	fcfff0ef          	jal	ra,4266 <pbuf_ref>
    429c:	ef9fb06f          	j	194 <__riscv_restore_0>

000042a0 <pbuf_copy>:
    42a0:	cd3d                	beqz	a0,431e <pbuf_copy+0x7e>
    42a2:	eb5fb2ef          	jal	t0,156 <__riscv_save_4>
    42a6:	842a                	mv	s0,a0
    42a8:	84ae                	mv	s1,a1
    42aa:	5559                	li	a0,-10
    42ac:	c5ad                	beqz	a1,4316 <pbuf_copy+0x76>
    42ae:	241a                	lhu	a4,8(s0)
    42b0:	259e                	lhu	a5,8(a1)
    42b2:	06f76263          	bltu	a4,a5,4316 <pbuf_copy+0x76>
    42b6:	4901                	li	s2,0
    42b8:	4a01                	li	s4,0
    42ba:	00a45983          	lhu	s3,10(s0)
    42be:	24be                	lhu	a5,10(s1)
    42c0:	414989b3          	sub	s3,s3,s4
    42c4:	412787b3          	sub	a5,a5,s2
    42c8:	04f9c963          	blt	s3,a5,431a <pbuf_copy+0x7a>
    42cc:	01079993          	slli	s3,a5,0x10
    42d0:	4048                	lw	a0,4(s0)
    42d2:	40cc                	lw	a1,4(s1)
    42d4:	0109d993          	srli	s3,s3,0x10
    42d8:	9552                	add	a0,a0,s4
    42da:	95ca                	add	a1,a1,s2
    42dc:	864e                	mv	a2,s3
    42de:	552030ef          	jal	ra,7830 <memcpy>
    42e2:	9a4e                	add	s4,s4,s3
    42e4:	243e                	lhu	a5,10(s0)
    42e6:	0a42                	slli	s4,s4,0x10
    42e8:	994e                	add	s2,s2,s3
    42ea:	0942                	slli	s2,s2,0x10
    42ec:	010a5a13          	srli	s4,s4,0x10
    42f0:	01095913          	srli	s2,s2,0x10
    42f4:	01479463          	bne	a5,s4,42fc <pbuf_copy+0x5c>
    42f8:	4000                	lw	s0,0(s0)
    42fa:	4a01                	li	s4,0
    42fc:	24be                	lhu	a5,10(s1)
    42fe:	00f96563          	bltu	s2,a5,4308 <pbuf_copy+0x68>
    4302:	4084                	lw	s1,0(s1)
    4304:	cc99                	beqz	s1,4322 <pbuf_copy+0x82>
    4306:	4901                	li	s2,0
    4308:	24ba                	lhu	a4,10(s1)
    430a:	249e                	lhu	a5,8(s1)
    430c:	02f71663          	bne	a4,a5,4338 <pbuf_copy+0x98>
    4310:	409c                	lw	a5,0(s1)
    4312:	c39d                	beqz	a5,4338 <pbuf_copy+0x98>
    4314:	555d                	li	a0,-9
    4316:	e75fb06f          	j	18a <__riscv_restore_4>
    431a:	09c2                	slli	s3,s3,0x10
    431c:	bf55                	j	42d0 <pbuf_copy+0x30>
    431e:	5559                	li	a0,-10
    4320:	8082                	ret
    4322:	c809                	beqz	s0,4334 <pbuf_copy+0x94>
    4324:	4901                	li	s2,0
    4326:	243a                	lhu	a4,10(s0)
    4328:	241e                	lhu	a5,8(s0)
    432a:	00f71463          	bne	a4,a5,4332 <pbuf_copy+0x92>
    432e:	401c                	lw	a5,0(s0)
    4330:	f3f5                	bnez	a5,4314 <pbuf_copy+0x74>
    4332:	f4c1                	bnez	s1,42ba <pbuf_copy+0x1a>
    4334:	4501                	li	a0,0
    4336:	b7c5                	j	4316 <pbuf_copy+0x76>
    4338:	f47d                	bnez	s0,4326 <pbuf_copy+0x86>
    433a:	b741                	j	42ba <pbuf_copy+0x1a>

0000433c <raw_input>:
    433c:	e1bfb2ef          	jal	t0,156 <__riscv_save_4>
    4340:	00452903          	lw	s2,4(a0)
    4344:	89aa                	mv	s3,a0
    4346:	00994783          	lbu	a5,9(s2)
    434a:	00894503          	lbu	a0,8(s2)
    434e:	4a01                	li	s4,0
    4350:	07a2                	slli	a5,a5,0x8
    4352:	8d5d                	or	a0,a0,a5
    4354:	941fe0ef          	jal	ra,2c94 <ntohs>
    4358:	0ff57a93          	andi	s5,a0,255
    435c:	8fc1a403          	lw	s0,-1796(gp) # 2000016c <raw_pcbs>
    4360:	0931                	addi	s2,s2,12
    4362:	8fc18493          	addi	s1,gp,-1796 # 2000016c <raw_pcbs>
    4366:	e401                	bnez	s0,436e <raw_input+0x32>
    4368:	4501                	li	a0,0
    436a:	e21fb06f          	j	18a <__riscv_restore_4>
    436e:	281c                	lbu	a5,16(s0)
    4370:	4501                	li	a0,0
    4372:	03579463          	bne	a5,s5,439a <raw_input+0x5e>
    4376:	485c                	lw	a5,20(s0)
    4378:	c38d                	beqz	a5,439a <raw_input+0x5e>
    437a:	4c08                	lw	a0,24(s0)
    437c:	86ca                	mv	a3,s2
    437e:	864e                	mv	a2,s3
    4380:	85a2                	mv	a1,s0
    4382:	9782                	jalr	a5
    4384:	c919                	beqz	a0,439a <raw_input+0x5e>
    4386:	000a0863          	beqz	s4,4396 <raw_input+0x5a>
    438a:	445c                	lw	a5,12(s0)
    438c:	00fa2623          	sw	a5,12(s4)
    4390:	409c                	lw	a5,0(s1)
    4392:	c080                	sw	s0,0(s1)
    4394:	c45c                	sw	a5,12(s0)
    4396:	4505                	li	a0,1
    4398:	4981                	li	s3,0
    439a:	445c                	lw	a5,12(s0)
    439c:	8a22                	mv	s4,s0
    439e:	f571                	bnez	a0,436a <raw_input+0x2e>
    43a0:	843e                	mv	s0,a5
    43a2:	b7d1                	j	4366 <raw_input+0x2a>

000043a4 <raw_bind>:
    43a4:	4781                	li	a5,0
    43a6:	c999                	beqz	a1,43bc <raw_bind+0x18>
    43a8:	3198                	lbu	a4,1(a1)
    43aa:	219c                	lbu	a5,0(a1)
    43ac:	0722                	slli	a4,a4,0x8
    43ae:	8f5d                	or	a4,a4,a5
    43b0:	21bc                	lbu	a5,2(a1)
    43b2:	07c2                	slli	a5,a5,0x10
    43b4:	8f5d                	or	a4,a4,a5
    43b6:	31bc                	lbu	a5,3(a1)
    43b8:	07e2                	slli	a5,a5,0x18
    43ba:	8fd9                	or	a5,a5,a4
    43bc:	c11c                	sw	a5,0(a0)
    43be:	4501                	li	a0,0
    43c0:	8082                	ret

000043c2 <raw_connect>:
    43c2:	4781                	li	a5,0
    43c4:	c999                	beqz	a1,43da <raw_connect+0x18>
    43c6:	3198                	lbu	a4,1(a1)
    43c8:	219c                	lbu	a5,0(a1)
    43ca:	0722                	slli	a4,a4,0x8
    43cc:	8f5d                	or	a4,a4,a5
    43ce:	21bc                	lbu	a5,2(a1)
    43d0:	07c2                	slli	a5,a5,0x10
    43d2:	8f5d                	or	a4,a4,a5
    43d4:	31bc                	lbu	a5,3(a1)
    43d6:	07e2                	slli	a5,a5,0x18
    43d8:	8fd9                	or	a5,a5,a4
    43da:	c15c                	sw	a5,4(a0)
    43dc:	4501                	li	a0,0
    43de:	8082                	ret

000043e0 <raw_recv>:
    43e0:	c94c                	sw	a1,20(a0)
    43e2:	cd10                	sw	a2,24(a0)
    43e4:	8082                	ret

000043e6 <raw_new>:
    43e6:	d8bfb2ef          	jal	t0,170 <__riscv_save_0>
    43ea:	84aa                	mv	s1,a0
    43ec:	4501                	li	a0,0
    43ee:	a8fff0ef          	jal	ra,3e7c <memp_malloc>
    43f2:	842a                	mv	s0,a0
    43f4:	cd11                	beqz	a0,4410 <raw_new+0x2a>
    43f6:	4671                	li	a2,28
    43f8:	4581                	li	a1,0
    43fa:	da7fb0ef          	jal	ra,1a0 <memset>
    43fe:	f8000793          	li	a5,-128
    4402:	b43c                	sb	a5,11(s0)
    4404:	8fc18793          	addi	a5,gp,-1796 # 2000016c <raw_pcbs>
    4408:	4398                	lw	a4,0(a5)
    440a:	a804                	sb	s1,16(s0)
    440c:	c380                	sw	s0,0(a5)
    440e:	c458                	sw	a4,12(s0)
    4410:	8522                	mv	a0,s0
    4412:	d83fb06f          	j	194 <__riscv_restore_0>

00004416 <tcp_new_port>:
    4416:	9001a683          	lw	a3,-1792(gp) # 20000170 <tcp_active_pcbs>
    441a:	9181a603          	lw	a2,-1768(gp) # 20000188 <tcp_tw_pcbs>
    441e:	9081a583          	lw	a1,-1784(gp) # 20000178 <tcp_listen_pcbs>
    4422:	8381d503          	lhu	a0,-1992(gp) # 200000a8 <port.3018>
    4426:	83818793          	addi	a5,gp,-1992 # 200000a8 <port.3018>
    442a:	00150713          	addi	a4,a0,1
    442e:	01071513          	slli	a0,a4,0x10
    4432:	01071813          	slli	a6,a4,0x10
    4436:	8141                	srli	a0,a0,0x10
    4438:	00085363          	bgez	a6,443e <tcp_new_port+0x28>
    443c:	6505                	lui	a0,0x1
    443e:	8736                	mv	a4,a3
    4440:	e719                	bnez	a4,444e <tcp_new_port+0x38>
    4442:	8732                	mv	a4,a2
    4444:	eb19                	bnez	a4,445a <tcp_new_port+0x44>
    4446:	872e                	mv	a4,a1
    4448:	ef19                	bnez	a4,4466 <tcp_new_port+0x50>
    444a:	a38a                	sh	a0,0(a5)
    444c:	8082                	ret
    444e:	01c75803          	lhu	a6,28(a4)
    4452:	fca80ce3          	beq	a6,a0,442a <tcp_new_port+0x14>
    4456:	4758                	lw	a4,12(a4)
    4458:	b7e5                	j	4440 <tcp_new_port+0x2a>
    445a:	01c75803          	lhu	a6,28(a4)
    445e:	fca806e3          	beq	a6,a0,442a <tcp_new_port+0x14>
    4462:	4758                	lw	a4,12(a4)
    4464:	b7c5                	j	4444 <tcp_new_port+0x2e>
    4466:	01c75803          	lhu	a6,28(a4)
    446a:	fca800e3          	beq	a6,a0,442a <tcp_new_port+0x14>
    446e:	4758                	lw	a4,12(a4)
    4470:	bfe1                	j	4448 <tcp_new_port+0x32>

00004472 <tcp_bind>:
    4472:	491c                	lw	a5,16(a0)
    4474:	10079663          	bnez	a5,4580 <tcp_bind+0x10e>
    4478:	cdffb2ef          	jal	t0,156 <__riscv_save_4>
    447c:	1141                	addi	sp,sp,-16
    447e:	84aa                	mv	s1,a0
    4480:	8432                	mv	s0,a2
    4482:	e611                	bnez	a2,448e <tcp_bind+0x1c>
    4484:	c62e                	sw	a1,12(sp)
    4486:	f91ff0ef          	jal	ra,4416 <tcp_new_port>
    448a:	45b2                	lw	a1,12(sp)
    448c:	842a                	mv	s0,a0
    448e:	9081a703          	lw	a4,-1784(gp) # 20000178 <tcp_listen_pcbs>
    4492:	e731                	bnez	a4,44de <tcp_bind+0x6c>
    4494:	9001a703          	lw	a4,-1792(gp) # 20000170 <tcp_active_pcbs>
    4498:	eb25                	bnez	a4,4508 <tcp_bind+0x96>
    449a:	9041a983          	lw	s3,-1788(gp) # 20000174 <tcp_bound_pcbs>
    449e:	90418913          	addi	s2,gp,-1788 # 20000174 <tcp_bound_pcbs>
    44a2:	874e                	mv	a4,s3
    44a4:	e759                	bnez	a4,4532 <tcp_bind+0xc0>
    44a6:	9181a783          	lw	a5,-1768(gp) # 20000188 <tcp_tw_pcbs>
    44aa:	ebcd                	bnez	a5,455c <tcp_bind+0xea>
    44ac:	c185                	beqz	a1,44cc <tcp_bind+0x5a>
    44ae:	3198                	lbu	a4,1(a1)
    44b0:	219c                	lbu	a5,0(a1)
    44b2:	0722                	slli	a4,a4,0x8
    44b4:	8f5d                	or	a4,a4,a5
    44b6:	21bc                	lbu	a5,2(a1)
    44b8:	07c2                	slli	a5,a5,0x10
    44ba:	8f5d                	or	a4,a4,a5
    44bc:	31bc                	lbu	a5,3(a1)
    44be:	07e2                	slli	a5,a5,0x18
    44c0:	8fd9                	or	a5,a5,a4
    44c2:	c789                	beqz	a5,44cc <tcp_bind+0x5a>
    44c4:	4611                	li	a2,4
    44c6:	8526                	mv	a0,s1
    44c8:	368030ef          	jal	ra,7830 <memcpy>
    44cc:	acc2                	sh	s0,28(s1)
    44ce:	0134a623          	sw	s3,12(s1)
    44d2:	00992023          	sw	s1,0(s2)
    44d6:	4501                	li	a0,0
    44d8:	0141                	addi	sp,sp,16
    44da:	cb1fb06f          	j	18a <__riscv_restore_4>
    44de:	2f5e                	lhu	a5,28(a4)
    44e0:	02879263          	bne	a5,s0,4504 <tcp_bind+0x92>
    44e4:	4310                	lw	a2,0(a4)
    44e6:	ce59                	beqz	a2,4584 <tcp_bind+0x112>
    44e8:	cdd1                	beqz	a1,4584 <tcp_bind+0x112>
    44ea:	3194                	lbu	a3,1(a1)
    44ec:	219c                	lbu	a5,0(a1)
    44ee:	06a2                	slli	a3,a3,0x8
    44f0:	8edd                	or	a3,a3,a5
    44f2:	21bc                	lbu	a5,2(a1)
    44f4:	07c2                	slli	a5,a5,0x10
    44f6:	8edd                	or	a3,a3,a5
    44f8:	31bc                	lbu	a5,3(a1)
    44fa:	07e2                	slli	a5,a5,0x18
    44fc:	8fd5                	or	a5,a5,a3
    44fe:	c3d9                	beqz	a5,4584 <tcp_bind+0x112>
    4500:	08f60263          	beq	a2,a5,4584 <tcp_bind+0x112>
    4504:	4758                	lw	a4,12(a4)
    4506:	b771                	j	4492 <tcp_bind+0x20>
    4508:	2f5e                	lhu	a5,28(a4)
    450a:	02879263          	bne	a5,s0,452e <tcp_bind+0xbc>
    450e:	4310                	lw	a2,0(a4)
    4510:	ca35                	beqz	a2,4584 <tcp_bind+0x112>
    4512:	c9ad                	beqz	a1,4584 <tcp_bind+0x112>
    4514:	3194                	lbu	a3,1(a1)
    4516:	219c                	lbu	a5,0(a1)
    4518:	06a2                	slli	a3,a3,0x8
    451a:	8edd                	or	a3,a3,a5
    451c:	21bc                	lbu	a5,2(a1)
    451e:	07c2                	slli	a5,a5,0x10
    4520:	8edd                	or	a3,a3,a5
    4522:	31bc                	lbu	a5,3(a1)
    4524:	07e2                	slli	a5,a5,0x18
    4526:	8fd5                	or	a5,a5,a3
    4528:	cfb1                	beqz	a5,4584 <tcp_bind+0x112>
    452a:	04f60d63          	beq	a2,a5,4584 <tcp_bind+0x112>
    452e:	4758                	lw	a4,12(a4)
    4530:	b7a5                	j	4498 <tcp_bind+0x26>
    4532:	2f5e                	lhu	a5,28(a4)
    4534:	02879263          	bne	a5,s0,4558 <tcp_bind+0xe6>
    4538:	4310                	lw	a2,0(a4)
    453a:	c629                	beqz	a2,4584 <tcp_bind+0x112>
    453c:	c5a1                	beqz	a1,4584 <tcp_bind+0x112>
    453e:	3194                	lbu	a3,1(a1)
    4540:	219c                	lbu	a5,0(a1)
    4542:	06a2                	slli	a3,a3,0x8
    4544:	8edd                	or	a3,a3,a5
    4546:	21bc                	lbu	a5,2(a1)
    4548:	07c2                	slli	a5,a5,0x10
    454a:	8edd                	or	a3,a3,a5
    454c:	31bc                	lbu	a5,3(a1)
    454e:	07e2                	slli	a5,a5,0x18
    4550:	8fd5                	or	a5,a5,a3
    4552:	cb8d                	beqz	a5,4584 <tcp_bind+0x112>
    4554:	02f60863          	beq	a2,a5,4584 <tcp_bind+0x112>
    4558:	4758                	lw	a4,12(a4)
    455a:	b7a9                	j	44a4 <tcp_bind+0x32>
    455c:	2fda                	lhu	a4,28(a5)
    455e:	00871f63          	bne	a4,s0,457c <tcp_bind+0x10a>
    4562:	3194                	lbu	a3,1(a1)
    4564:	2198                	lbu	a4,0(a1)
    4566:	06a2                	slli	a3,a3,0x8
    4568:	8ed9                	or	a3,a3,a4
    456a:	21b8                	lbu	a4,2(a1)
    456c:	0742                	slli	a4,a4,0x10
    456e:	8ed9                	or	a3,a3,a4
    4570:	31b8                	lbu	a4,3(a1)
    4572:	0762                	slli	a4,a4,0x18
    4574:	8f55                	or	a4,a4,a3
    4576:	4394                	lw	a3,0(a5)
    4578:	00e68663          	beq	a3,a4,4584 <tcp_bind+0x112>
    457c:	47dc                	lw	a5,12(a5)
    457e:	b735                	j	44aa <tcp_bind+0x38>
    4580:	554d                	li	a0,-13
    4582:	8082                	ret
    4584:	5555                	li	a0,-11
    4586:	bf89                	j	44d8 <tcp_bind+0x66>

00004588 <tcp_update_rcv_ann_wnd>:
    4588:	87aa                	mv	a5,a0
    458a:	02c55803          	lhu	a6,44(a0) # 102c <WCHNET_HandlePhyNegotiation+0x5c>
    458e:	5914                	lw	a3,48(a0)
    4590:	3bd2                	lhu	a2,52(a5)
    4592:	550c                	lw	a1,40(a0)
    4594:	0407d883          	lhu	a7,64(a5)
    4598:	40d80533          	sub	a0,a6,a3
    459c:	8205                	srli	a2,a2,0x1
    459e:	952e                	add	a0,a0,a1
    45a0:	8732                	mv	a4,a2
    45a2:	00c8f363          	bgeu	a7,a2,45a8 <tcp_update_rcv_ann_wnd+0x20>
    45a6:	8746                	mv	a4,a7
    45a8:	0742                	slli	a4,a4,0x10
    45aa:	8341                	srli	a4,a4,0x10
    45ac:	40e50733          	sub	a4,a0,a4
    45b0:	00074563          	bltz	a4,45ba <tcp_update_rcv_ann_wnd+0x32>
    45b4:	03079723          	sh	a6,46(a5)
    45b8:	8082                	ret
    45ba:	40d58733          	sub	a4,a1,a3
    45be:	00e05663          	blez	a4,45ca <tcp_update_rcv_ann_wnd+0x42>
    45c2:	02079723          	sh	zero,46(a5)
    45c6:	4501                	li	a0,0
    45c8:	8082                	ret
    45ca:	8e8d                	sub	a3,a3,a1
    45cc:	b7f6                	sh	a3,46(a5)
    45ce:	bfe5                	j	45c6 <tcp_update_rcv_ann_wnd+0x3e>

000045d0 <tcp_recved>:
    45d0:	ba1fb2ef          	jal	t0,170 <__riscv_save_0>
    45d4:	355e                	lhu	a5,44(a0)
    45d6:	842a                	mv	s0,a0
    45d8:	95be                	add	a1,a1,a5
    45da:	05c2                	slli	a1,a1,0x10
    45dc:	395e                	lhu	a5,52(a0)
    45de:	81c1                	srli	a1,a1,0x10
    45e0:	b54e                	sh	a1,44(a0)
    45e2:	00b7f363          	bgeu	a5,a1,45e8 <tcp_recved+0x18>
    45e6:	b55e                	sh	a5,44(a0)
    45e8:	8522                	mv	a0,s0
    45ea:	f9fff0ef          	jal	ra,4588 <tcp_update_rcv_ann_wnd>
    45ee:	385e                	lhu	a5,52(s0)
    45f0:	8389                	srli	a5,a5,0x2
    45f2:	00f54b63          	blt	a0,a5,4608 <tcp_recved+0x38>
    45f6:	02644783          	lbu	a5,38(s0)
    45fa:	8522                	mv	a0,s0
    45fc:	0027e793          	ori	a5,a5,2
    4600:	02f40323          	sb	a5,38(s0)
    4604:	208020ef          	jal	ra,680c <tcp_output>
    4608:	b8dfb06f          	j	194 <__riscv_restore_0>

0000460c <tcp_seg_free>:
    460c:	b65fb2ef          	jal	t0,170 <__riscv_save_0>
    4610:	1141                	addi	sp,sp,-16
    4612:	4401                	li	s0,0
    4614:	cd09                	beqz	a0,462e <tcp_seg_free+0x22>
    4616:	85aa                	mv	a1,a0
    4618:	4148                	lw	a0,4(a0)
    461a:	4401                	li	s0,0
    461c:	c511                	beqz	a0,4628 <tcp_seg_free+0x1c>
    461e:	c62e                	sw	a1,12(sp)
    4620:	a4fff0ef          	jal	ra,406e <pbuf_free>
    4624:	45b2                	lw	a1,12(sp)
    4626:	842a                	mv	s0,a0
    4628:	4511                	li	a0,4
    462a:	873ff0ef          	jal	ra,3e9c <memp_free>
    462e:	8522                	mv	a0,s0
    4630:	0141                	addi	sp,sp,16
    4632:	b63fb06f          	j	194 <__riscv_restore_0>

00004636 <tcp_segs_free>:
    4636:	b3bfb2ef          	jal	t0,170 <__riscv_save_0>
    463a:	4401                	li	s0,0
    463c:	e501                	bnez	a0,4644 <tcp_segs_free+0xe>
    463e:	8522                	mv	a0,s0
    4640:	b55fb06f          	j	194 <__riscv_restore_0>
    4644:	4104                	lw	s1,0(a0)
    4646:	fc7ff0ef          	jal	ra,460c <tcp_seg_free>
    464a:	942a                	add	s0,s0,a0
    464c:	0ff47413          	andi	s0,s0,255
    4650:	8526                	mv	a0,s1
    4652:	b7ed                	j	463c <tcp_segs_free+0x6>

00004654 <tcp_seg_copy>:
    4654:	b1dfb2ef          	jal	t0,170 <__riscv_save_0>
    4658:	1141                	addi	sp,sp,-16
    465a:	c62a                	sw	a0,12(sp)
    465c:	4511                	li	a0,4
    465e:	81fff0ef          	jal	ra,3e7c <memp_malloc>
    4662:	842a                	mv	s0,a0
    4664:	c901                	beqz	a0,4674 <tcp_seg_copy+0x20>
    4666:	45b2                	lw	a1,12(sp)
    4668:	4651                	li	a2,20
    466a:	1c6030ef          	jal	ra,7830 <memcpy>
    466e:	4048                	lw	a0,4(s0)
    4670:	bf7ff0ef          	jal	ra,4266 <pbuf_ref>
    4674:	8522                	mv	a0,s0
    4676:	0141                	addi	sp,sp,16
    4678:	b1dfb06f          	j	194 <__riscv_restore_0>

0000467c <tcp_arg>:
    467c:	cd0c                	sw	a1,24(a0)
    467e:	8082                	ret

00004680 <tcp_err>:
    4680:	08b52e23          	sw	a1,156(a0)
    4684:	8082                	ret

00004686 <tcp_pcb_purge>:
    4686:	491c                	lw	a5,16(a0)
    4688:	4705                	li	a4,1
    468a:	04f77463          	bgeu	a4,a5,46d2 <tcp_pcb_purge+0x4c>
    468e:	4729                	li	a4,10
    4690:	04e78163          	beq	a5,a4,46d2 <tcp_pcb_purge+0x4c>
    4694:	addfb2ef          	jal	t0,170 <__riscv_save_0>
    4698:	842a                	mv	s0,a0
    469a:	08852503          	lw	a0,136(a0)
    469e:	c509                	beqz	a0,46a8 <tcp_pcb_purge+0x22>
    46a0:	9cfff0ef          	jal	ra,406e <pbuf_free>
    46a4:	08042423          	sw	zero,136(s0)
    46a8:	08442503          	lw	a0,132(s0)
    46ac:	57fd                	li	a5,-1
    46ae:	bc7e                	sh	a5,62(s0)
    46b0:	f87ff0ef          	jal	ra,4636 <tcp_segs_free>
    46b4:	5c68                	lw	a0,124(s0)
    46b6:	08042223          	sw	zero,132(s0)
    46ba:	f7dff0ef          	jal	ra,4636 <tcp_segs_free>
    46be:	08042503          	lw	a0,128(s0)
    46c2:	f75ff0ef          	jal	ra,4636 <tcp_segs_free>
    46c6:	06042e23          	sw	zero,124(s0)
    46ca:	08042023          	sw	zero,128(s0)
    46ce:	ac7fb06f          	j	194 <__riscv_restore_0>
    46d2:	8082                	ret

000046d4 <tcp_slowtmr>:
    46d4:	a6dfb2ef          	jal	t0,140 <__riscv_save_12>
    46d8:	200044b7          	lui	s1,0x20004
    46dc:	1f848793          	addi	a5,s1,504 # 200041f8 <NetInf>
    46e0:	90c18713          	addi	a4,gp,-1780 # 2000017c <tcp_ticks>
    46e4:	0187cc03          	lbu	s8,24(a5)
    46e8:	431c                	lw	a5,0(a4)
    46ea:	6aa5                	lui	s5,0x9
    46ec:	0785                	addi	a5,a5,1
    46ee:	9001ad03          	lw	s10,-1792(gp) # 20000170 <tcp_active_pcbs>
    46f2:	c31c                	sw	a5,0(a4)
    46f4:	06600913          	li	s2,102
    46f8:	4a01                	li	s4,0
    46fa:	1f848493          	addi	s1,s1,504
    46fe:	90c18413          	addi	s0,gp,-1780 # 2000017c <tcp_ticks>
    4702:	90018993          	addi	s3,gp,-1792 # 20000170 <tcp_active_pcbs>
    4706:	4c8d                	li	s9,3
    4708:	da8a8a93          	addi	s5,s5,-600 # 8da8 <tcp_backoff>
    470c:	85818b13          	addi	s6,gp,-1960 # 200000c8 <tcp_persist_backoff>
    4710:	000d1a63          	bnez	s10,4724 <tcp_slowtmr+0x50>
    4714:	9181a403          	lw	s0,-1768(gp) # 20000188 <tcp_tw_pcbs>
    4718:	91818493          	addi	s1,gp,-1768 # 20000188 <tcp_tw_pcbs>
    471c:	24041963          	bnez	s0,496e <tcp_slowtmr+0x29a>
    4720:	a5dfb06f          	j	17c <__riscv_restore_12>
    4724:	197d                	addi	s2,s2,-1
    4726:	0ff97913          	andi	s2,s2,255
    472a:	fe090be3          	beqz	s2,4720 <tcp_slowtmr+0x4c>
    472e:	052d4603          	lbu	a2,82(s10)
    4732:	010d2683          	lw	a3,16(s10)
    4736:	4d85                	li	s11,1
    4738:	02cc0263          	beq	s8,a2,475c <tcp_slowtmr+0x88>
    473c:	0b0d4d83          	lbu	s11,176(s10)
    4740:	100d8463          	beqz	s11,4848 <tcp_slowtmr+0x174>
    4744:	0acd2703          	lw	a4,172(s10)
    4748:	01bb06b3          	add	a3,s6,s11
    474c:	fff6c683          	lbu	a3,-1(a3)
    4750:	0705                	addi	a4,a4,1
    4752:	0aed2623          	sw	a4,172(s10)
    4756:	0cd77c63          	bgeu	a4,a3,482e <tcp_slowtmr+0x15a>
    475a:	4d81                	li	s11,0
    475c:	010d2703          	lw	a4,16(s10)
    4760:	4699                	li	a3,6
    4762:	00d71d63          	bne	a4,a3,477c <tcp_slowtmr+0xa8>
    4766:	038d2603          	lw	a2,56(s10)
    476a:	4014                	lw	a3,0(s0)
    476c:	8e91                	sub	a3,a3,a2
    476e:	4c90                	lw	a2,24(s1)
    4770:	00d67663          	bgeu	a2,a3,477c <tcp_slowtmr+0xa8>
    4774:	001d8793          	addi	a5,s11,1
    4778:	0ff7fd93          	andi	s11,a5,255
    477c:	008d5683          	lhu	a3,8(s10)
    4780:	4b81                	li	s7,0
    4782:	8aa1                	andi	a3,a3,8
    4784:	ce95                	beqz	a3,47c0 <tcp_slowtmr+0xec>
    4786:	4691                	li	a3,4
    4788:	00d70563          	beq	a4,a3,4792 <tcp_slowtmr+0xbe>
    478c:	469d                	li	a3,7
    478e:	02d71963          	bne	a4,a3,47c0 <tcp_slowtmr+0xec>
    4792:	0a4d2883          	lw	a7,164(s10)
    4796:	0a8d2683          	lw	a3,168(s10)
    479a:	0a0d2503          	lw	a0,160(s10)
    479e:	4ccc                	lw	a1,28(s1)
    47a0:	02d886b3          	mul	a3,a7,a3
    47a4:	4010                	lw	a2,0(s0)
    47a6:	038d2703          	lw	a4,56(s10)
    47aa:	8e19                	sub	a2,a2,a4
    47ac:	96aa                	add	a3,a3,a0
    47ae:	02b6d6b3          	divu	a3,a3,a1
    47b2:	10c6fc63          	bgeu	a3,a2,48ca <tcp_slowtmr+0x1f6>
    47b6:	001d8793          	addi	a5,s11,1
    47ba:	0ff7fd93          	andi	s11,a5,255
    47be:	4b85                	li	s7,1
    47c0:	084d2503          	lw	a0,132(s10)
    47c4:	c105                	beqz	a0,47e4 <tcp_slowtmr+0x110>
    47c6:	038d2703          	lw	a4,56(s10)
    47ca:	4014                	lw	a3,0(s0)
    47cc:	4619                	li	a2,6
    47ce:	8e99                	sub	a3,a3,a4
    47d0:	050d1703          	lh	a4,80(s10)
    47d4:	02c70733          	mul	a4,a4,a2
    47d8:	00e6e663          	bltu	a3,a4,47e4 <tcp_slowtmr+0x110>
    47dc:	e5bff0ef          	jal	ra,4636 <tcp_segs_free>
    47e0:	080d2223          	sw	zero,132(s10)
    47e4:	010d2703          	lw	a4,16(s10)
    47e8:	11971463          	bne	a4,s9,48f0 <tcp_slowtmr+0x21c>
    47ec:	038d2683          	lw	a3,56(s10)
    47f0:	4018                	lw	a4,0(s0)
    47f2:	8f15                	sub	a4,a4,a3
    47f4:	4c94                	lw	a3,24(s1)
    47f6:	10e6e863          	bltu	a3,a4,4906 <tcp_slowtmr+0x232>
    47fa:	100d9663          	bnez	s11,4906 <tcp_slowtmr+0x232>
    47fe:	03cd4783          	lbu	a5,60(s10)
    4802:	03dd4703          	lbu	a4,61(s10)
    4806:	0785                	addi	a5,a5,1
    4808:	0ff7f793          	andi	a5,a5,255
    480c:	02fd0e23          	sb	a5,60(s10)
    4810:	00e7eb63          	bltu	a5,a4,4826 <tcp_slowtmr+0x152>
    4814:	098d2783          	lw	a5,152(s10)
    4818:	020d0e23          	sb	zero,60(s10)
    481c:	14079263          	bnez	a5,4960 <tcp_slowtmr+0x28c>
    4820:	856a                	mv	a0,s10
    4822:	7eb010ef          	jal	ra,680c <tcp_output>
    4826:	8a6a                	mv	s4,s10
    4828:	00cd2d03          	lw	s10,12(s10)
    482c:	b5d5                	j	4710 <tcp_slowtmr+0x3c>
    482e:	0a0d2623          	sw	zero,172(s10)
    4832:	4719                	li	a4,6
    4834:	01b76663          	bltu	a4,s11,4840 <tcp_slowtmr+0x16c>
    4838:	001d8793          	addi	a5,s11,1
    483c:	0afd0823          	sb	a5,176(s10)
    4840:	856a                	mv	a0,s10
    4842:	5ac020ef          	jal	ra,6dee <tcp_zero_window_probe>
    4846:	bf11                	j	475a <tcp_slowtmr+0x86>
    4848:	03ed1703          	lh	a4,62(s10)
    484c:	00074563          	bltz	a4,4856 <tcp_slowtmr+0x182>
    4850:	0705                	addi	a4,a4,1
    4852:	02ed1f23          	sh	a4,62(s10)
    4856:	080d2703          	lw	a4,128(s10)
    485a:	f00700e3          	beqz	a4,475a <tcp_slowtmr+0x86>
    485e:	03ed1583          	lh	a1,62(s10)
    4862:	050d1703          	lh	a4,80(s10)
    4866:	eeb75ae3          	bge	a4,a1,475a <tcp_slowtmr+0x86>
    486a:	02dcf463          	bgeu	s9,a3,4892 <tcp_slowtmr+0x1be>
    486e:	04cd1703          	lh	a4,76(s10)
    4872:	04ed1683          	lh	a3,78(s10)
    4876:	47b1                	li	a5,12
    4878:	870d                	srai	a4,a4,0x3
    487a:	9736                	add	a4,a4,a3
    487c:	0ff67693          	andi	a3,a2,255
    4880:	00c7f363          	bgeu	a5,a2,4886 <tcp_slowtmr+0x1b2>
    4884:	46b1                	li	a3,12
    4886:	96d6                	add	a3,a3,s5
    4888:	2294                	lbu	a3,0(a3)
    488a:	00d71733          	sll	a4,a4,a3
    488e:	04ed1823          	sh	a4,80(s10)
    4892:	05ad5683          	lhu	a3,90(s10)
    4896:	064d5703          	lhu	a4,100(s10)
    489a:	020d1f23          	sh	zero,62(s10)
    489e:	00e6f363          	bgeu	a3,a4,48a4 <tcp_slowtmr+0x1d0>
    48a2:	8736                	mv	a4,a3
    48a4:	0742                	slli	a4,a4,0x10
    48a6:	8341                	srli	a4,a4,0x10
    48a8:	040d5683          	lhu	a3,64(s10)
    48ac:	8305                	srli	a4,a4,0x1
    48ae:	04ed1e23          	sh	a4,92(s10)
    48b2:	00d77663          	bgeu	a4,a3,48be <tcp_slowtmr+0x1ea>
    48b6:	00169713          	slli	a4,a3,0x1
    48ba:	04ed1e23          	sh	a4,92(s10)
    48be:	04dd1d23          	sh	a3,90(s10)
    48c2:	856a                	mv	a0,s10
    48c4:	3b8020ef          	jal	ra,6c7c <tcp_rexmit_rto>
    48c8:	bd51                	j	475c <tcp_slowtmr+0x88>
    48ca:	0b1d4703          	lbu	a4,177(s10)
    48ce:	4b81                	li	s7,0
    48d0:	03170733          	mul	a4,a4,a7
    48d4:	972a                	add	a4,a4,a0
    48d6:	02b75733          	divu	a4,a4,a1
    48da:	eec773e3          	bgeu	a4,a2,47c0 <tcp_slowtmr+0xec>
    48de:	856a                	mv	a0,s10
    48e0:	4b0020ef          	jal	ra,6d90 <tcp_keepalive>
    48e4:	0b1d4703          	lbu	a4,177(s10)
    48e8:	0705                	addi	a4,a4,1
    48ea:	0aed08a3          	sb	a4,177(s10)
    48ee:	bdc9                	j	47c0 <tcp_slowtmr+0xec>
    48f0:	46a5                	li	a3,9
    48f2:	f0d714e3          	bne	a4,a3,47fa <tcp_slowtmr+0x126>
    48f6:	038d2703          	lw	a4,56(s10)
    48fa:	4014                	lw	a3,0(s0)
    48fc:	8e99                	sub	a3,a3,a4
    48fe:	4c98                	lw	a4,24(s1)
    4900:	0706                	slli	a4,a4,0x1
    4902:	eed77ce3          	bgeu	a4,a3,47fa <tcp_slowtmr+0x126>
    4906:	856a                	mv	a0,s10
    4908:	8e7fd0ef          	jal	ra,21ee <LwipRemoveTcpPcb>
    490c:	856a                	mv	a0,s10
    490e:	d79ff0ef          	jal	ra,4686 <tcp_pcb_purge>
    4912:	00cd2783          	lw	a5,12(s10)
    4916:	040a0263          	beqz	s4,495a <tcp_slowtmr+0x286>
    491a:	00fa2623          	sw	a5,12(s4)
    491e:	09cd2783          	lw	a5,156(s10)
    4922:	c789                	beqz	a5,492c <tcp_slowtmr+0x258>
    4924:	018d2503          	lw	a0,24(s10)
    4928:	55ed                	li	a1,-5
    492a:	9782                	jalr	a5
    492c:	000b8f63          	beqz	s7,494a <tcp_slowtmr+0x276>
    4930:	024d5783          	lhu	a5,36(s10)
    4934:	01cd5703          	lhu	a4,28(s10)
    4938:	028d2583          	lw	a1,40(s10)
    493c:	060d2503          	lw	a0,96(s10)
    4940:	004d0693          	addi	a3,s10,4
    4944:	866a                	mv	a2,s10
    4946:	22e020ef          	jal	ra,6b74 <tcp_rst>
    494a:	00cd2b83          	lw	s7,12(s10)
    494e:	85ea                	mv	a1,s10
    4950:	4509                	li	a0,2
    4952:	d4aff0ef          	jal	ra,3e9c <memp_free>
    4956:	8d5e                	mv	s10,s7
    4958:	bb65                	j	4710 <tcp_slowtmr+0x3c>
    495a:	00f9a023          	sw	a5,0(s3)
    495e:	b7c1                	j	491e <tcp_slowtmr+0x24a>
    4960:	018d2503          	lw	a0,24(s10)
    4964:	85ea                	mv	a1,s10
    4966:	9782                	jalr	a5
    4968:	ea050ce3          	beqz	a0,4820 <tcp_slowtmr+0x14c>
    496c:	bd6d                	j	4826 <tcp_slowtmr+0x152>
    496e:	8522                	mv	a0,s0
    4970:	87ffd0ef          	jal	ra,21ee <LwipRemoveTcpPcb>
    4974:	8522                	mv	a0,s0
    4976:	d11ff0ef          	jal	ra,4686 <tcp_pcb_purge>
    497a:	00c42903          	lw	s2,12(s0)
    497e:	85a2                	mv	a1,s0
    4980:	4509                	li	a0,2
    4982:	0124a023          	sw	s2,0(s1)
    4986:	844a                	mv	s0,s2
    4988:	d14ff0ef          	jal	ra,3e9c <memp_free>
    498c:	bb41                	j	471c <tcp_slowtmr+0x48>

0000498e <tcp_pcb_remove>:
    498e:	fe2fb2ef          	jal	t0,170 <__riscv_save_0>
    4992:	411c                	lw	a5,0(a0)
    4994:	842e                	mv	s0,a1
    4996:	04b79063          	bne	a5,a1,49d6 <tcp_pcb_remove+0x48>
    499a:	45dc                	lw	a5,12(a1)
    499c:	c11c                	sw	a5,0(a0)
    499e:	00042623          	sw	zero,12(s0)
    49a2:	8522                	mv	a0,s0
    49a4:	ce3ff0ef          	jal	ra,4686 <tcp_pcb_purge>
    49a8:	481c                	lw	a5,16(s0)
    49aa:	4729                	li	a4,10
    49ac:	02e78163          	beq	a5,a4,49ce <tcp_pcb_remove+0x40>
    49b0:	4705                	li	a4,1
    49b2:	00e78e63          	beq	a5,a4,49ce <tcp_pcb_remove+0x40>
    49b6:	02644783          	lbu	a5,38(s0)
    49ba:	0017f713          	andi	a4,a5,1
    49be:	cb01                	beqz	a4,49ce <tcp_pcb_remove+0x40>
    49c0:	0027e793          	ori	a5,a5,2
    49c4:	02f40323          	sb	a5,38(s0)
    49c8:	8522                	mv	a0,s0
    49ca:	643010ef          	jal	ra,680c <tcp_output>
    49ce:	00042823          	sw	zero,16(s0)
    49d2:	fc2fb06f          	j	194 <__riscv_restore_0>
    49d6:	90f1aa23          	sw	a5,-1772(gp) # 20000184 <tcp_tmp_pcb>
    49da:	4681                	li	a3,0
    49dc:	91418713          	addi	a4,gp,-1772 # 20000184 <tcp_tmp_pcb>
    49e0:	e789                	bnez	a5,49ea <tcp_pcb_remove+0x5c>
    49e2:	ded5                	beqz	a3,499e <tcp_pcb_remove+0x10>
    49e4:	00072023          	sw	zero,0(a4)
    49e8:	bf5d                	j	499e <tcp_pcb_remove+0x10>
    49ea:	47d0                	lw	a2,12(a5)
    49ec:	00861763          	bne	a2,s0,49fa <tcp_pcb_remove+0x6c>
    49f0:	c291                	beqz	a3,49f4 <tcp_pcb_remove+0x66>
    49f2:	c31c                	sw	a5,0(a4)
    49f4:	4458                	lw	a4,12(s0)
    49f6:	c7d8                	sw	a4,12(a5)
    49f8:	b75d                	j	499e <tcp_pcb_remove+0x10>
    49fa:	4685                	li	a3,1
    49fc:	87b2                	mv	a5,a2
    49fe:	b7cd                	j	49e0 <tcp_pcb_remove+0x52>

00004a00 <tcp_close>:
    4a00:	491c                	lw	a5,16(a0)
    4a02:	471d                	li	a4,7
    4a04:	0af76563          	bltu	a4,a5,4aae <tcp_close+0xae>
    4a08:	f68fb2ef          	jal	t0,170 <__riscv_save_0>
    4a0c:	6725                	lui	a4,0x9
    4a0e:	078a                	slli	a5,a5,0x2
    4a10:	d8870713          	addi	a4,a4,-632 # 8d88 <ErrTable+0x10>
    4a14:	97ba                	add	a5,a5,a4
    4a16:	439c                	lw	a5,0(a5)
    4a18:	842a                	mv	s0,a0
    4a1a:	8782                	jr	a5
    4a1c:	fd2fd0ef          	jal	ra,21ee <LwipRemoveTcpPcb>
    4a20:	90418713          	addi	a4,gp,-1788 # 20000174 <tcp_bound_pcbs>
    4a24:	431c                	lw	a5,0(a4)
    4a26:	00879963          	bne	a5,s0,4a38 <tcp_close+0x38>
    4a2a:	445c                	lw	a5,12(s0)
    4a2c:	c31c                	sw	a5,0(a4)
    4a2e:	00042623          	sw	zero,12(s0)
    4a32:	85a2                	mv	a1,s0
    4a34:	4509                	li	a0,2
    4a36:	a83d                	j	4a74 <tcp_close+0x74>
    4a38:	90f1aa23          	sw	a5,-1772(gp) # 20000184 <tcp_tmp_pcb>
    4a3c:	4681                	li	a3,0
    4a3e:	91418713          	addi	a4,gp,-1772 # 20000184 <tcp_tmp_pcb>
    4a42:	e789                	bnez	a5,4a4c <tcp_close+0x4c>
    4a44:	d6ed                	beqz	a3,4a2e <tcp_close+0x2e>
    4a46:	00072023          	sw	zero,0(a4)
    4a4a:	b7d5                	j	4a2e <tcp_close+0x2e>
    4a4c:	47d0                	lw	a2,12(a5)
    4a4e:	00861763          	bne	a2,s0,4a5c <tcp_close+0x5c>
    4a52:	c291                	beqz	a3,4a56 <tcp_close+0x56>
    4a54:	c31c                	sw	a5,0(a4)
    4a56:	4458                	lw	a4,12(s0)
    4a58:	c7d8                	sw	a4,12(a5)
    4a5a:	bfd1                	j	4a2e <tcp_close+0x2e>
    4a5c:	4685                	li	a3,1
    4a5e:	87b2                	mv	a5,a2
    4a60:	b7cd                	j	4a42 <tcp_close+0x42>
    4a62:	f8cfd0ef          	jal	ra,21ee <LwipRemoveTcpPcb>
    4a66:	85a2                	mv	a1,s0
    4a68:	90818513          	addi	a0,gp,-1784 # 20000178 <tcp_listen_pcbs>
    4a6c:	f23ff0ef          	jal	ra,498e <tcp_pcb_remove>
    4a70:	85a2                	mv	a1,s0
    4a72:	450d                	li	a0,3
    4a74:	c28ff0ef          	jal	ra,3e9c <memp_free>
    4a78:	4501                	li	a0,0
    4a7a:	a831                	j	4a96 <tcp_close+0x96>
    4a7c:	f72fd0ef          	jal	ra,21ee <LwipRemoveTcpPcb>
    4a80:	85a2                	mv	a1,s0
    4a82:	90018513          	addi	a0,gp,-1792 # 20000170 <tcp_active_pcbs>
    4a86:	f09ff0ef          	jal	ra,498e <tcp_pcb_remove>
    4a8a:	b765                	j	4a32 <tcp_close+0x32>
    4a8c:	4585                	li	a1,1
    4a8e:	4f9010ef          	jal	ra,6786 <tcp_send_ctrl>
    4a92:	4795                	li	a5,5
    4a94:	c901                	beqz	a0,4aa4 <tcp_close+0xa4>
    4a96:	efefb06f          	j	194 <__riscv_restore_0>
    4a9a:	4585                	li	a1,1
    4a9c:	4eb010ef          	jal	ra,6786 <tcp_send_ctrl>
    4aa0:	f97d                	bnez	a0,4a96 <tcp_close+0x96>
    4aa2:	47a5                	li	a5,9
    4aa4:	c81c                	sw	a5,16(s0)
    4aa6:	8522                	mv	a0,s0
    4aa8:	565010ef          	jal	ra,680c <tcp_output>
    4aac:	b7f1                	j	4a78 <tcp_close+0x78>
    4aae:	4501                	li	a0,0
    4ab0:	8082                	ret

00004ab2 <tcp_recv_null>:
    4ab2:	ebefb2ef          	jal	t0,170 <__riscv_save_0>
    4ab6:	1141                	addi	sp,sp,-16
    4ab8:	852e                	mv	a0,a1
    4aba:	ce11                	beqz	a2,4ad6 <tcp_recv_null+0x24>
    4abc:	260e                	lhu	a1,8(a2)
    4abe:	c632                	sw	a2,12(sp)
    4ac0:	b11ff0ef          	jal	ra,45d0 <tcp_recved>
    4ac4:	4632                	lw	a2,12(sp)
    4ac6:	8532                	mv	a0,a2
    4ac8:	da6ff0ef          	jal	ra,406e <pbuf_free>
    4acc:	4781                	li	a5,0
    4ace:	853e                	mv	a0,a5
    4ad0:	0141                	addi	sp,sp,16
    4ad2:	ec2fb06f          	j	194 <__riscv_restore_0>
    4ad6:	4781                	li	a5,0
    4ad8:	fafd                	bnez	a3,4ace <tcp_recv_null+0x1c>
    4ada:	f27ff0ef          	jal	ra,4a00 <tcp_close>
    4ade:	87aa                	mv	a5,a0
    4ae0:	b7fd                	j	4ace <tcp_recv_null+0x1c>

00004ae2 <tcp_fasttmr>:
    4ae2:	e8efb2ef          	jal	t0,170 <__riscv_save_0>
    4ae6:	9001a403          	lw	s0,-1792(gp) # 20000170 <tcp_active_pcbs>
    4aea:	06500493          	li	s1,101
    4aee:	e019                	bnez	s0,4af4 <tcp_fasttmr+0x12>
    4af0:	ea4fb06f          	j	194 <__riscv_restore_0>
    4af4:	08842603          	lw	a2,136(s0)
    4af8:	ca19                	beqz	a2,4b0e <tcp_fasttmr+0x2c>
    4afa:	09042783          	lw	a5,144(s0)
    4afe:	4681                	li	a3,0
    4b00:	85a2                	mv	a1,s0
    4b02:	cf8d                	beqz	a5,4b3c <tcp_fasttmr+0x5a>
    4b04:	4c08                	lw	a0,24(s0)
    4b06:	9782                	jalr	a5
    4b08:	e119                	bnez	a0,4b0e <tcp_fasttmr+0x2c>
    4b0a:	08042423          	sw	zero,136(s0)
    4b0e:	14fd                	addi	s1,s1,-1
    4b10:	0ff4f493          	andi	s1,s1,255
    4b14:	dcf1                	beqz	s1,4af0 <tcp_fasttmr+0xe>
    4b16:	02644783          	lbu	a5,38(s0)
    4b1a:	0017f713          	andi	a4,a5,1
    4b1e:	cf09                	beqz	a4,4b38 <tcp_fasttmr+0x56>
    4b20:	0027e793          	ori	a5,a5,2
    4b24:	02f40323          	sb	a5,38(s0)
    4b28:	8522                	mv	a0,s0
    4b2a:	4e3010ef          	jal	ra,680c <tcp_output>
    4b2e:	02644783          	lbu	a5,38(s0)
    4b32:	9bf1                	andi	a5,a5,-4
    4b34:	02f40323          	sb	a5,38(s0)
    4b38:	4440                	lw	s0,12(s0)
    4b3a:	bf55                	j	4aee <tcp_fasttmr+0xc>
    4b3c:	4501                	li	a0,0
    4b3e:	f75ff0ef          	jal	ra,4ab2 <tcp_recv_null>
    4b42:	b7d9                	j	4b08 <tcp_fasttmr+0x26>

00004b44 <tcp_tmr>:
    4b44:	e2cfb2ef          	jal	t0,170 <__riscv_save_0>
    4b48:	f9bff0ef          	jal	ra,4ae2 <tcp_fasttmr>
    4b4c:	91018713          	addi	a4,gp,-1776 # 20000180 <tcp_timer>
    4b50:	231c                	lbu	a5,0(a4)
    4b52:	0785                	addi	a5,a5,1
    4b54:	0ff7f793          	andi	a5,a5,255
    4b58:	a31c                	sb	a5,0(a4)
    4b5a:	8b85                	andi	a5,a5,1
    4b5c:	c399                	beqz	a5,4b62 <tcp_tmr+0x1e>
    4b5e:	b77ff0ef          	jal	ra,46d4 <tcp_slowtmr>
    4b62:	e32fb06f          	j	194 <__riscv_restore_0>

00004b66 <tcp_fastsendack>:
    4b66:	e0afb2ef          	jal	t0,170 <__riscv_save_0>
    4b6a:	9001a403          	lw	s0,-1792(gp) # 20000170 <tcp_active_pcbs>
    4b6e:	06500493          	li	s1,101
    4b72:	4901                	li	s2,0
    4b74:	e401                	bnez	s0,4b7c <tcp_fastsendack+0x16>
    4b76:	854a                	mv	a0,s2
    4b78:	e1cfb06f          	j	194 <__riscv_restore_0>
    4b7c:	08842603          	lw	a2,136(s0)
    4b80:	ca19                	beqz	a2,4b96 <tcp_fastsendack+0x30>
    4b82:	09042783          	lw	a5,144(s0)
    4b86:	4681                	li	a3,0
    4b88:	85a2                	mv	a1,s0
    4b8a:	c7b1                	beqz	a5,4bd6 <tcp_fastsendack+0x70>
    4b8c:	4c08                	lw	a0,24(s0)
    4b8e:	9782                	jalr	a5
    4b90:	e119                	bnez	a0,4b96 <tcp_fastsendack+0x30>
    4b92:	08042423          	sw	zero,136(s0)
    4b96:	14fd                	addi	s1,s1,-1
    4b98:	0ff4f493          	andi	s1,s1,255
    4b9c:	dce9                	beqz	s1,4b76 <tcp_fastsendack+0x10>
    4b9e:	02744783          	lbu	a5,39(s0)
    4ba2:	cb85                	beqz	a5,4bd2 <tcp_fastsendack+0x6c>
    4ba4:	02644703          	lbu	a4,38(s0)
    4ba8:	00177693          	andi	a3,a4,1
    4bac:	c29d                	beqz	a3,4bd2 <tcp_fastsendack+0x6c>
    4bae:	17fd                	addi	a5,a5,-1
    4bb0:	0ff7f793          	andi	a5,a5,255
    4bb4:	02f403a3          	sb	a5,39(s0)
    4bb8:	e39d                	bnez	a5,4bde <tcp_fastsendack+0x78>
    4bba:	00276713          	ori	a4,a4,2
    4bbe:	02e40323          	sb	a4,38(s0)
    4bc2:	8522                	mv	a0,s0
    4bc4:	449010ef          	jal	ra,680c <tcp_output>
    4bc8:	02644783          	lbu	a5,38(s0)
    4bcc:	9bf1                	andi	a5,a5,-4
    4bce:	02f40323          	sb	a5,38(s0)
    4bd2:	4440                	lw	s0,12(s0)
    4bd4:	b745                	j	4b74 <tcp_fastsendack+0xe>
    4bd6:	4501                	li	a0,0
    4bd8:	edbff0ef          	jal	ra,4ab2 <tcp_recv_null>
    4bdc:	bf55                	j	4b90 <tcp_fastsendack+0x2a>
    4bde:	0905                	addi	s2,s2,1
    4be0:	bfcd                	j	4bd2 <tcp_fastsendack+0x6c>

00004be2 <tcp_abandon>:
    4be2:	d66fb2ef          	jal	t0,148 <__riscv_save_10>
    4be6:	4918                	lw	a4,16(a0)
    4be8:	47a9                	li	a5,10
    4bea:	1141                	addi	sp,sp,-16
    4bec:	842a                	mv	s0,a0
    4bee:	00f71e63          	bne	a4,a5,4c0a <tcp_abandon+0x28>
    4bf2:	85aa                	mv	a1,a0
    4bf4:	91818513          	addi	a0,gp,-1768 # 20000188 <tcp_tw_pcbs>
    4bf8:	d97ff0ef          	jal	ra,498e <tcp_pcb_remove>
    4bfc:	85a2                	mv	a1,s0
    4bfe:	4509                	li	a0,2
    4c00:	a9cff0ef          	jal	ra,3e9c <memp_free>
    4c04:	0141                	addi	sp,sp,16
    4c06:	d7afb06f          	j	180 <__riscv_restore_10>
    4c0a:	411c                	lw	a5,0(a0)
    4c0c:	8b2e                	mv	s6,a1
    4c0e:	06052903          	lw	s2,96(a0)
    4c12:	c63e                	sw	a5,12(sp)
    4c14:	415c                	lw	a5,4(a0)
    4c16:	02852983          	lw	s3,40(a0)
    4c1a:	01c55a03          	lhu	s4,28(a0)
    4c1e:	c43e                	sw	a5,8(sp)
    4c20:	02455a83          	lhu	s5,36(a0)
    4c24:	09c52483          	lw	s1,156(a0)
    4c28:	01852b83          	lw	s7,24(a0)
    4c2c:	dc2fd0ef          	jal	ra,21ee <LwipRemoveTcpPcb>
    4c30:	90018513          	addi	a0,gp,-1792 # 20000170 <tcp_active_pcbs>
    4c34:	85a2                	mv	a1,s0
    4c36:	d59ff0ef          	jal	ra,498e <tcp_pcb_remove>
    4c3a:	08042503          	lw	a0,128(s0)
    4c3e:	c119                	beqz	a0,4c44 <tcp_abandon+0x62>
    4c40:	9f7ff0ef          	jal	ra,4636 <tcp_segs_free>
    4c44:	5c68                	lw	a0,124(s0)
    4c46:	c119                	beqz	a0,4c4c <tcp_abandon+0x6a>
    4c48:	9efff0ef          	jal	ra,4636 <tcp_segs_free>
    4c4c:	08442503          	lw	a0,132(s0)
    4c50:	c119                	beqz	a0,4c56 <tcp_abandon+0x74>
    4c52:	9e5ff0ef          	jal	ra,4636 <tcp_segs_free>
    4c56:	85a2                	mv	a1,s0
    4c58:	4509                	li	a0,2
    4c5a:	a42ff0ef          	jal	ra,3e9c <memp_free>
    4c5e:	c481                	beqz	s1,4c66 <tcp_abandon+0x84>
    4c60:	55ed                	li	a1,-5
    4c62:	855e                	mv	a0,s7
    4c64:	9482                	jalr	s1
    4c66:	f80b0fe3          	beqz	s6,4c04 <tcp_abandon+0x22>
    4c6a:	87d6                	mv	a5,s5
    4c6c:	8752                	mv	a4,s4
    4c6e:	0034                	addi	a3,sp,8
    4c70:	0070                	addi	a2,sp,12
    4c72:	85ce                	mv	a1,s3
    4c74:	854a                	mv	a0,s2
    4c76:	6ff010ef          	jal	ra,6b74 <tcp_rst>
    4c7a:	b769                	j	4c04 <tcp_abandon+0x22>

00004c7c <tcp_next_iss>:
    4c7c:	83418793          	addi	a5,gp,-1996 # 200000a4 <iss.3186>
    4c80:	4388                	lw	a0,0(a5)
    4c82:	90c1a703          	lw	a4,-1780(gp) # 2000017c <tcp_ticks>
    4c86:	953a                	add	a0,a0,a4
    4c88:	c388                	sw	a0,0(a5)
    4c8a:	8082                	ret

00004c8c <tcp_alloc>:
    4c8c:	ccafb2ef          	jal	t0,156 <__riscv_save_4>
    4c90:	892a                	mv	s2,a0
    4c92:	4509                	li	a0,2
    4c94:	9e8ff0ef          	jal	ra,3e7c <memp_malloc>
    4c98:	200044b7          	lui	s1,0x20004
    4c9c:	23c48493          	addi	s1,s1,572 # 2000423c <WCHCfg>
    4ca0:	842a                	mv	s0,a0
    4ca2:	e125                	bnez	a0,4d02 <tcp_alloc+0x76>
    4ca4:	489c                	lw	a5,16(s1)
    4ca6:	8389                	srli	a5,a5,0x2
    4ca8:	8b85                	andi	a5,a5,1
    4caa:	e789                	bnez	a5,4cb4 <tcp_alloc+0x28>
    4cac:	4401                	li	s0,0
    4cae:	8522                	mv	a0,s0
    4cb0:	cdafb06f          	j	18a <__riscv_restore_4>
    4cb4:	9181a783          	lw	a5,-1768(gp) # 20000188 <tcp_tw_pcbs>
    4cb8:	90c1a603          	lw	a2,-1780(gp) # 2000017c <tcp_ticks>
    4cbc:	4501                	li	a0,0
    4cbe:	4681                	li	a3,0
    4cc0:	90c18993          	addi	s3,gp,-1780 # 2000017c <tcp_ticks>
    4cc4:	e7f1                	bnez	a5,4d90 <tcp_alloc+0x104>
    4cc6:	c501                	beqz	a0,4cce <tcp_alloc+0x42>
    4cc8:	4585                	li	a1,1
    4cca:	f19ff0ef          	jal	ra,4be2 <tcp_abandon>
    4cce:	4509                	li	a0,2
    4cd0:	9acff0ef          	jal	ra,3e7c <memp_malloc>
    4cd4:	842a                	mv	s0,a0
    4cd6:	e515                	bnez	a0,4d02 <tcp_alloc+0x76>
    4cd8:	9001a783          	lw	a5,-1792(gp) # 20000170 <tcp_active_pcbs>
    4cdc:	0009a503          	lw	a0,0(s3)
    4ce0:	197d                	addi	s2,s2,-1
    4ce2:	0ff97913          	andi	s2,s2,255
    4ce6:	07f00613          	li	a2,127
    4cea:	4581                	li	a1,0
    4cec:	ebdd                	bnez	a5,4da2 <tcp_alloc+0x116>
    4cee:	c409                	beqz	s0,4cf8 <tcp_alloc+0x6c>
    4cf0:	4585                	li	a1,1
    4cf2:	8522                	mv	a0,s0
    4cf4:	eefff0ef          	jal	ra,4be2 <tcp_abandon>
    4cf8:	4509                	li	a0,2
    4cfa:	982ff0ef          	jal	ra,3e7c <memp_malloc>
    4cfe:	842a                	mv	s0,a0
    4d00:	d555                	beqz	a0,4cac <tcp_alloc+0x20>
    4d02:	0b400613          	li	a2,180
    4d06:	4581                	li	a1,0
    4d08:	8522                	mv	a0,s0
    4d0a:	c96fb0ef          	jal	ra,1a0 <memset>
    4d0e:	04000793          	li	a5,64
    4d12:	a85c                	sb	a5,20(s0)
    4d14:	449c                	lw	a5,8(s1)
    4d16:	06041c23          	sh	zero,120(s0)
    4d1a:	21800713          	li	a4,536
    4d1e:	06f41b23          	sh	a5,118(s0)
    4d22:	385e                	lhu	a5,52(s0)
    4d24:	b45e                	sh	a5,44(s0)
    4d26:	b47e                	sh	a5,46(s0)
    4d28:	77e1                	lui	a5,0xffff8
    4d2a:	a43e                	sh	a5,10(s0)
    4d2c:	40dc                	lw	a5,4(s1)
    4d2e:	00f77463          	bgeu	a4,a5,4d36 <tcp_alloc+0xaa>
    4d32:	21800793          	li	a5,536
    4d36:	04f41023          	sh	a5,64(s0)
    4d3a:	67c1                	lui	a5,0x10
    4d3c:	577d                	li	a4,-1
    4d3e:	c47c                	sw	a5,76(s0)
    4d40:	4785                	li	a5,1
    4d42:	04f41823          	sh	a5,80(s0)
    4d46:	bc7a                	sh	a4,62(s0)
    4d48:	04f41d23          	sh	a5,90(s0)
    4d4c:	f31ff0ef          	jal	ra,4c7c <tcp_next_iss>
    4d50:	90c1a783          	lw	a5,-1780(gp) # 2000017c <tcp_ticks>
    4d54:	d468                	sw	a0,108(s0)
    4d56:	d028                	sw	a0,96(s0)
    4d58:	dc1c                	sw	a5,56(s0)
    4d5a:	000057b7          	lui	a5,0x5
    4d5e:	ab278793          	addi	a5,a5,-1358 # 4ab2 <tcp_recv_null>
    4d62:	08f42823          	sw	a5,144(s0)
    4d66:	200047b7          	lui	a5,0x20004
    4d6a:	1ec7a703          	lw	a4,492(a5) # 200041ec <KeepLiveCfg>
    4d6e:	1ec78793          	addi	a5,a5,492
    4d72:	c868                	sw	a0,84(s0)
    4d74:	0ae42023          	sw	a4,160(s0)
    4d78:	43d8                	lw	a4,4(a5)
    4d7a:	479c                	lw	a5,8(a5)
    4d7c:	d828                	sw	a0,112(s0)
    4d7e:	02040e23          	sb	zero,60(s0)
    4d82:	0ae42223          	sw	a4,164(s0)
    4d86:	0af42423          	sw	a5,168(s0)
    4d8a:	0a0408a3          	sb	zero,177(s0)
    4d8e:	b705                	j	4cae <tcp_alloc+0x22>
    4d90:	5f98                	lw	a4,56(a5)
    4d92:	40e60733          	sub	a4,a2,a4
    4d96:	00d76463          	bltu	a4,a3,4d9e <tcp_alloc+0x112>
    4d9a:	86ba                	mv	a3,a4
    4d9c:	853e                	mv	a0,a5
    4d9e:	47dc                	lw	a5,12(a5)
    4da0:	b715                	j	4cc4 <tcp_alloc+0x38>
    4da2:	2bd4                	lbu	a3,20(a5)
    4da4:	00d96c63          	bltu	s2,a3,4dbc <tcp_alloc+0x130>
    4da8:	00d66a63          	bltu	a2,a3,4dbc <tcp_alloc+0x130>
    4dac:	5f98                	lw	a4,56(a5)
    4dae:	40e50733          	sub	a4,a0,a4
    4db2:	00b76563          	bltu	a4,a1,4dbc <tcp_alloc+0x130>
    4db6:	8636                	mv	a2,a3
    4db8:	85ba                	mv	a1,a4
    4dba:	843e                	mv	s0,a5
    4dbc:	47dc                	lw	a5,12(a5)
    4dbe:	b73d                	j	4cec <tcp_alloc+0x60>

00004dc0 <tcp_new>:
    4dc0:	bb0fb2ef          	jal	t0,170 <__riscv_save_0>
    4dc4:	04000513          	li	a0,64
    4dc8:	ec5ff0ef          	jal	ra,4c8c <tcp_alloc>
    4dcc:	bc8fb06f          	j	194 <__riscv_restore_0>

00004dd0 <tcp_eff_send_mss>:
    4dd0:	ba0fb2ef          	jal	t0,170 <__riscv_save_0>
    4dd4:	842a                	mv	s0,a0
    4dd6:	852e                	mv	a0,a1
    4dd8:	efbfd0ef          	jal	ra,2cd2 <ip_route>
    4ddc:	cd11                	beqz	a0,4df8 <tcp_eff_send_mss+0x28>
    4dde:	391e                	lhu	a5,48(a0)
    4de0:	cf81                	beqz	a5,4df8 <tcp_eff_send_mss+0x28>
    4de2:	fd878793          	addi	a5,a5,-40
    4de6:	873e                	mv	a4,a5
    4de8:	07c2                	slli	a5,a5,0x10
    4dea:	83c1                	srli	a5,a5,0x10
    4dec:	00f47363          	bgeu	s0,a5,4df2 <tcp_eff_send_mss+0x22>
    4df0:	8722                	mv	a4,s0
    4df2:	01071413          	slli	s0,a4,0x10
    4df6:	8041                	srli	s0,s0,0x10
    4df8:	8522                	mv	a0,s0
    4dfa:	b9afb06f          	j	194 <__riscv_restore_0>

00004dfe <RemoveTimeWaiTCP>:
    4dfe:	b72fb2ef          	jal	t0,170 <__riscv_save_0>
    4e02:	9181a403          	lw	s0,-1768(gp) # 20000188 <tcp_tw_pcbs>
    4e06:	91818493          	addi	s1,gp,-1768 # 20000188 <tcp_tw_pcbs>
    4e0a:	e019                	bnez	s0,4e10 <RemoveTimeWaiTCP+0x12>
    4e0c:	b88fb06f          	j	194 <__riscv_restore_0>
    4e10:	8522                	mv	a0,s0
    4e12:	bdcfd0ef          	jal	ra,21ee <LwipRemoveTcpPcb>
    4e16:	8522                	mv	a0,s0
    4e18:	86fff0ef          	jal	ra,4686 <tcp_pcb_purge>
    4e1c:	00c42903          	lw	s2,12(s0)
    4e20:	85a2                	mv	a1,s0
    4e22:	4509                	li	a0,2
    4e24:	0124a023          	sw	s2,0(s1)
    4e28:	844a                	mv	s0,s2
    4e2a:	872ff0ef          	jal	ra,3e9c <memp_free>
    4e2e:	bff1                	j	4e0a <RemoveTimeWaiTCP+0xc>

00004e30 <tcp_oos_insert_segment>:
    4e30:	b26fb2ef          	jal	t0,156 <__riscv_save_4>
    4e34:	491c                	lw	a5,16(a0)
    4e36:	84aa                	mv	s1,a0
    4e38:	8a2e                	mv	s4,a1
    4e3a:	27c8                	lbu	a0,12(a5)
    4e3c:	37dc                	lbu	a5,13(a5)
    4e3e:	07a2                	slli	a5,a5,0x8
    4e40:	8d5d                	or	a0,a0,a5
    4e42:	e53fd0ef          	jal	ra,2c94 <ntohs>
    4e46:	8905                	andi	a0,a0,1
    4e48:	e929                	bnez	a0,4e9a <tcp_oos_insert_segment+0x6a>
    4e4a:	6941                	lui	s2,0x10
    4e4c:	fc090913          	addi	s2,s2,-64 # ffc0 <_data_lma+0x714c>
    4e50:	010a2703          	lw	a4,16(s4)
    4e54:	9301a603          	lw	a2,-1744(gp) # 200001a0 <seqno>
    4e58:	24de                	lhu	a5,12(s1)
    4e5a:	3354                	lbu	a3,5(a4)
    4e5c:	234c                	lbu	a1,4(a4)
    4e5e:	97b2                	add	a5,a5,a2
    4e60:	06a2                	slli	a3,a3,0x8
    4e62:	8dd5                	or	a1,a1,a3
    4e64:	2374                	lbu	a3,6(a4)
    4e66:	06c2                	slli	a3,a3,0x10
    4e68:	8ecd                	or	a3,a3,a1
    4e6a:	336c                	lbu	a1,7(a4)
    4e6c:	05e2                	slli	a1,a1,0x18
    4e6e:	8dd5                	or	a1,a1,a3
    4e70:	00ca5683          	lhu	a3,12(s4)
    4e74:	96ae                	add	a3,a3,a1
    4e76:	40d786b3          	sub	a3,a5,a3
    4e7a:	0206d563          	bgez	a3,4ea4 <tcp_oos_insert_segment+0x74>
    4e7e:	8f8d                	sub	a5,a5,a1
    4e80:	00f05963          	blez	a5,4e92 <tcp_oos_insert_segment+0x62>
    4e84:	8d91                	sub	a1,a1,a2
    4e86:	05c2                	slli	a1,a1,0x10
    4e88:	40c8                	lw	a0,4(s1)
    4e8a:	81c1                	srli	a1,a1,0x10
    4e8c:	a4ce                	sh	a1,12(s1)
    4e8e:	b6eff0ef          	jal	ra,41fc <pbuf_realloc>
    4e92:	0144a023          	sw	s4,0(s1)
    4e96:	af4fb06f          	j	18a <__riscv_restore_4>
    4e9a:	8552                	mv	a0,s4
    4e9c:	f9aff0ef          	jal	ra,4636 <tcp_segs_free>
    4ea0:	4a01                	li	s4,0
    4ea2:	bfc5                	j	4e92 <tcp_oos_insert_segment+0x62>
    4ea4:	375c                	lbu	a5,13(a4)
    4ea6:	2748                	lbu	a0,12(a4)
    4ea8:	07a2                	slli	a5,a5,0x8
    4eaa:	8d5d                	or	a0,a0,a5
    4eac:	de9fd0ef          	jal	ra,2c94 <ntohs>
    4eb0:	8905                	andi	a0,a0,1
    4eb2:	cd15                	beqz	a0,4eee <tcp_oos_insert_segment+0xbe>
    4eb4:	489c                	lw	a5,16(s1)
    4eb6:	37c0                	lbu	s0,13(a5)
    4eb8:	27c8                	lbu	a0,12(a5)
    4eba:	0422                	slli	s0,s0,0x8
    4ebc:	8c49                	or	s0,s0,a0
    4ebe:	854a                	mv	a0,s2
    4ec0:	dc7fd0ef          	jal	ra,2c86 <htons>
    4ec4:	489c                	lw	a5,16(s1)
    4ec6:	8c69                	and	s0,s0,a0
    4ec8:	27c8                	lbu	a0,12(a5)
    4eca:	37dc                	lbu	a5,13(a5)
    4ecc:	07a2                	slli	a5,a5,0x8
    4ece:	8d5d                	or	a0,a0,a5
    4ed0:	dc5fd0ef          	jal	ra,2c94 <ntohs>
    4ed4:	03e57513          	andi	a0,a0,62
    4ed8:	00156513          	ori	a0,a0,1
    4edc:	dabfd0ef          	jal	ra,2c86 <htons>
    4ee0:	489c                	lw	a5,16(s1)
    4ee2:	8d41                	or	a0,a0,s0
    4ee4:	0542                	slli	a0,a0,0x10
    4ee6:	8141                	srli	a0,a0,0x10
    4ee8:	a7c8                	sb	a0,12(a5)
    4eea:	8121                	srli	a0,a0,0x8
    4eec:	b7c8                	sb	a0,13(a5)
    4eee:	000a2403          	lw	s0,0(s4)
    4ef2:	8552                	mv	a0,s4
    4ef4:	f18ff0ef          	jal	ra,460c <tcp_seg_free>
    4ef8:	d445                	beqz	s0,4ea0 <tcp_oos_insert_segment+0x70>
    4efa:	8a22                	mv	s4,s0
    4efc:	bf91                	j	4e50 <tcp_oos_insert_segment+0x20>

00004efe <tcp_receive>:
    4efe:	a4afb2ef          	jal	t0,148 <__riscv_save_10>
    4f02:	9201c783          	lbu	a5,-1760(gp) # 20000190 <flags>
    4f06:	842a                	mv	s0,a0
    4f08:	8bc1                	andi	a5,a5,16
    4f0a:	93018913          	addi	s2,gp,-1744 # 200001a0 <seqno>
    4f0e:	c7f1                	beqz	a5,4fda <tcp_receive+0xdc>
    4f10:	00092583          	lw	a1,0(s2)
    4f14:	5538                	lw	a4,104(a0)
    4f16:	06455683          	lhu	a3,100(a0)
    4f1a:	5570                	lw	a2,108(a0)
    4f1c:	40b70533          	sub	a0,a4,a1
    4f20:	91c1a783          	lw	a5,-1764(gp) # 2000018c <ackno>
    4f24:	91c18493          	addi	s1,gp,-1764 # 2000018c <ackno>
    4f28:	02054463          	bltz	a0,4f50 <tcp_receive+0x52>
    4f2c:	00b71663          	bne	a4,a1,4f38 <tcp_receive+0x3a>
    4f30:	40f60733          	sub	a4,a2,a5
    4f34:	00074e63          	bltz	a4,4f50 <tcp_receive+0x52>
    4f38:	02f61e63          	bne	a2,a5,4f74 <tcp_receive+0x76>
    4f3c:	9381a503          	lw	a0,-1736(gp) # 200001a8 <tcphdr>
    4f40:	3578                	lbu	a4,15(a0)
    4f42:	00e54803          	lbu	a6,14(a0)
    4f46:	0722                	slli	a4,a4,0x8
    4f48:	01076733          	or	a4,a4,a6
    4f4c:	02e6f463          	bgeu	a3,a4,4f74 <tcp_receive+0x76>
    4f50:	9381a503          	lw	a0,-1736(gp) # 200001a8 <tcphdr>
    4f54:	3578                	lbu	a4,15(a0)
    4f56:	00e54803          	lbu	a6,14(a0)
    4f5a:	d42c                	sw	a1,104(s0)
    4f5c:	0722                	slli	a4,a4,0x8
    4f5e:	01076733          	or	a4,a4,a6
    4f62:	06e41223          	sh	a4,100(s0)
    4f66:	d47c                	sw	a5,108(s0)
    4f68:	c711                	beqz	a4,4f74 <tcp_receive+0x76>
    4f6a:	0b044703          	lbu	a4,176(s0)
    4f6e:	c319                	beqz	a4,4f74 <tcp_receive+0x76>
    4f70:	0a040823          	sb	zero,176(s0)
    4f74:	486c                	lw	a1,84(s0)
    4f76:	40b78733          	sub	a4,a5,a1
    4f7a:	2ae04263          	bgtz	a4,521e <tcp_receive+0x320>
    4f7e:	93c1d703          	lhu	a4,-1732(gp) # 200001ac <tcplen>
    4f82:	06041a23          	sh	zero,116(s0)
    4f86:	28071963          	bnez	a4,5218 <tcp_receive+0x31a>
    4f8a:	06445703          	lhu	a4,100(s0)
    4f8e:	5468                	lw	a0,108(s0)
    4f90:	96b2                	add	a3,a3,a2
    4f92:	972a                	add	a4,a4,a0
    4f94:	28d71263          	bne	a4,a3,5218 <tcp_receive+0x31a>
    4f98:	03e41703          	lh	a4,62(s0)
    4f9c:	26074e63          	bltz	a4,5218 <tcp_receive+0x31a>
    4fa0:	26f59c63          	bne	a1,a5,5218 <tcp_receive+0x31a>
    4fa4:	05844783          	lbu	a5,88(s0)
    4fa8:	470d                	li	a4,3
    4faa:	0785                	addi	a5,a5,1
    4fac:	0ff7f793          	andi	a5,a5,255
    4fb0:	04f40c23          	sb	a5,88(s0)
    4fb4:	24f77c63          	bgeu	a4,a5,520c <tcp_receive+0x30e>
    4fb8:	05a45703          	lhu	a4,90(s0)
    4fbc:	04045783          	lhu	a5,64(s0)
    4fc0:	97ba                	add	a5,a5,a4
    4fc2:	07c2                	slli	a5,a5,0x10
    4fc4:	83c1                	srli	a5,a5,0x10
    4fc6:	00f77463          	bgeu	a4,a5,4fce <tcp_receive+0xd0>
    4fca:	04f41d23          	sh	a5,90(s0)
    4fce:	5c7c                	lw	a5,124(s0)
    4fd0:	36079f63          	bnez	a5,534e <tcp_receive+0x450>
    4fd4:	4070                	lw	a2,68(s0)
    4fd6:	40061a63          	bnez	a2,53ea <tcp_receive+0x4ec>
    4fda:	93c1d603          	lhu	a2,-1732(gp) # 200001ac <tcplen>
    4fde:	00092783          	lw	a5,0(s2)
    4fe2:	5414                	lw	a3,40(s0)
    4fe4:	93c18a13          	addi	s4,gp,-1732 # 200001ac <tcplen>
    4fe8:	7e060663          	beqz	a2,57d4 <tcp_receive+0x8d6>
    4fec:	40f685b3          	sub	a1,a3,a5
    4ff0:	fff58713          	addi	a4,a1,-1
    4ff4:	46074b63          	bltz	a4,546a <tcp_receive+0x56c>
    4ff8:	4705                	li	a4,1
    4ffa:	8f1d                	sub	a4,a4,a5
    4ffc:	8f11                	sub	a4,a4,a2
    4ffe:	9736                	add	a4,a4,a3
    5000:	46e04563          	bgtz	a4,546a <tcp_receive+0x56c>
    5004:	200049b7          	lui	s3,0x20004
    5008:	2c098793          	addi	a5,s3,704 # 200042c0 <inseg>
    500c:	43c4                	lw	s1,4(a5)
    500e:	01059713          	slli	a4,a1,0x10
    5012:	8341                	srli	a4,a4,0x10
    5014:	24be                	lhu	a5,10(s1)
    5016:	2c098993          	addi	s3,s3,704
    501a:	44b7d363          	bge	a5,a1,5460 <tcp_receive+0x562>
    501e:	249e                	lhu	a5,8(s1)
    5020:	8f99                	sub	a5,a5,a4
    5022:	07c2                	slli	a5,a5,0x10
    5024:	83c1                	srli	a5,a5,0x10
    5026:	24ba                	lhu	a4,10(s1)
    5028:	42b74663          	blt	a4,a1,5454 <tcp_receive+0x556>
    502c:	40b005b3          	neg	a1,a1
    5030:	05c2                	slli	a1,a1,0x10
    5032:	85c1                	srai	a1,a1,0x10
    5034:	8526                	mv	a0,s1
    5036:	fcbfe0ef          	jal	ra,4000 <pbuf_header>
    503a:	40dc                	lw	a5,4(s1)
    503c:	00c9d683          	lhu	a3,12(s3)
    5040:	00092703          	lw	a4,0(s2)
    5044:	00f9a423          	sw	a5,8(s3)
    5048:	541c                	lw	a5,40(s0)
    504a:	9736                	add	a4,a4,a3
    504c:	8f1d                	sub	a4,a4,a5
    504e:	00e99623          	sh	a4,12(s3)
    5052:	0109a703          	lw	a4,16(s3)
    5056:	0087d693          	srli	a3,a5,0x8
    505a:	00f92023          	sw	a5,0(s2)
    505e:	a35c                	sb	a5,4(a4)
    5060:	b354                	sb	a3,5(a4)
    5062:	0107d693          	srli	a3,a5,0x10
    5066:	83e1                	srli	a5,a5,0x18
    5068:	a374                	sb	a3,6(a4)
    506a:	b37c                	sb	a5,7(a4)
    506c:	00092683          	lw	a3,0(s2)
    5070:	5418                	lw	a4,40(s0)
    5072:	40e687b3          	sub	a5,a3,a4
    5076:	7407cb63          	bltz	a5,57cc <tcp_receive+0x8ce>
    507a:	3452                	lhu	a2,44(s0)
    507c:	00168793          	addi	a5,a3,1
    5080:	8f99                	sub	a5,a5,a4
    5082:	8f91                	sub	a5,a5,a2
    5084:	74f04463          	bgtz	a5,57cc <tcp_receive+0x8ce>
    5088:	5ce69063          	bne	a3,a4,5648 <tcp_receive+0x74a>
    508c:	200044b7          	lui	s1,0x20004
    5090:	2c048793          	addi	a5,s1,704 # 200042c0 <inseg>
    5094:	00c7d983          	lhu	s3,12(a5)
    5098:	4b9c                	lw	a5,16(a5)
    509a:	2c048493          	addi	s1,s1,704
    509e:	27c8                	lbu	a0,12(a5)
    50a0:	37dc                	lbu	a5,13(a5)
    50a2:	07a2                	slli	a5,a5,0x8
    50a4:	8d5d                	or	a0,a0,a5
    50a6:	beffd0ef          	jal	ra,2c94 <ntohs>
    50aa:	890d                	andi	a0,a0,3
    50ac:	00a03533          	snez	a0,a0
    50b0:	954e                	add	a0,a0,s3
    50b2:	0542                	slli	a0,a0,0x10
    50b4:	345e                	lhu	a5,44(s0)
    50b6:	8141                	srli	a0,a0,0x10
    50b8:	00aa1023          	sh	a0,0(s4)
    50bc:	08a7fd63          	bgeu	a5,a0,5156 <tcp_receive+0x258>
    50c0:	489c                	lw	a5,16(s1)
    50c2:	27c8                	lbu	a0,12(a5)
    50c4:	37dc                	lbu	a5,13(a5)
    50c6:	07a2                	slli	a5,a5,0x8
    50c8:	8d5d                	or	a0,a0,a5
    50ca:	bcbfd0ef          	jal	ra,2c94 <ntohs>
    50ce:	8905                	andi	a0,a0,1
    50d0:	c131                	beqz	a0,5114 <tcp_receive+0x216>
    50d2:	489c                	lw	a5,16(s1)
    50d4:	00d7c983          	lbu	s3,13(a5)
    50d8:	27c8                	lbu	a0,12(a5)
    50da:	09a2                	slli	s3,s3,0x8
    50dc:	00a9e9b3          	or	s3,s3,a0
    50e0:	6541                	lui	a0,0x10
    50e2:	fc050513          	addi	a0,a0,-64 # ffc0 <_data_lma+0x714c>
    50e6:	ba1fd0ef          	jal	ra,2c86 <htons>
    50ea:	489c                	lw	a5,16(s1)
    50ec:	00a9f9b3          	and	s3,s3,a0
    50f0:	27c8                	lbu	a0,12(a5)
    50f2:	37dc                	lbu	a5,13(a5)
    50f4:	07a2                	slli	a5,a5,0x8
    50f6:	8d5d                	or	a0,a0,a5
    50f8:	b9dfd0ef          	jal	ra,2c94 <ntohs>
    50fc:	03e57513          	andi	a0,a0,62
    5100:	b87fd0ef          	jal	ra,2c86 <htons>
    5104:	489c                	lw	a5,16(s1)
    5106:	00a9e533          	or	a0,s3,a0
    510a:	0542                	slli	a0,a0,0x10
    510c:	8141                	srli	a0,a0,0x10
    510e:	a7c8                	sb	a0,12(a5)
    5110:	8121                	srli	a0,a0,0x8
    5112:	b7c8                	sb	a0,13(a5)
    5114:	345e                	lhu	a5,44(s0)
    5116:	a4de                	sh	a5,12(s1)
    5118:	489c                	lw	a5,16(s1)
    511a:	27c8                	lbu	a0,12(a5)
    511c:	37dc                	lbu	a5,13(a5)
    511e:	07a2                	slli	a5,a5,0x8
    5120:	8d5d                	or	a0,a0,a5
    5122:	b73fd0ef          	jal	ra,2c94 <ntohs>
    5126:	8909                	andi	a0,a0,2
    5128:	c501                	beqz	a0,5130 <tcp_receive+0x232>
    512a:	24de                	lhu	a5,12(s1)
    512c:	17fd                	addi	a5,a5,-1
    512e:	a4de                	sh	a5,12(s1)
    5130:	24ce                	lhu	a1,12(s1)
    5132:	40c8                	lw	a0,4(s1)
    5134:	8c8ff0ef          	jal	ra,41fc <pbuf_realloc>
    5138:	489c                	lw	a5,16(s1)
    513a:	00c4d983          	lhu	s3,12(s1)
    513e:	27c8                	lbu	a0,12(a5)
    5140:	37dc                	lbu	a5,13(a5)
    5142:	07a2                	slli	a5,a5,0x8
    5144:	8d5d                	or	a0,a0,a5
    5146:	b4ffd0ef          	jal	ra,2c94 <ntohs>
    514a:	890d                	andi	a0,a0,3
    514c:	00a03533          	snez	a0,a0
    5150:	99aa                	add	s3,s3,a0
    5152:	013a1023          	sh	s3,0(s4)
    5156:	08442783          	lw	a5,132(s0)
    515a:	32078d63          	beqz	a5,5494 <tcp_receive+0x596>
    515e:	489c                	lw	a5,16(s1)
    5160:	27c8                	lbu	a0,12(a5)
    5162:	37dc                	lbu	a5,13(a5)
    5164:	07a2                	slli	a5,a5,0x8
    5166:	8d5d                	or	a0,a0,a5
    5168:	b2dfd0ef          	jal	ra,2c94 <ntohs>
    516c:	8905                	andi	a0,a0,1
    516e:	32051063          	bnez	a0,548e <tcp_receive+0x590>
    5172:	08442a83          	lw	s5,132(s0)
    5176:	6b41                	lui	s6,0x10
    5178:	fc0b0b13          	addi	s6,s6,-64 # ffc0 <_data_lma+0x714c>
    517c:	00092503          	lw	a0,0(s2)
    5180:	000a5703          	lhu	a4,0(s4)
    5184:	972a                	add	a4,a4,a0
    5186:	080a8063          	beqz	s5,5206 <tcp_receive+0x308>
    518a:	010aa603          	lw	a2,16(s5)
    518e:	324c                	lbu	a1,5(a2)
    5190:	2254                	lbu	a3,4(a2)
    5192:	05a2                	slli	a1,a1,0x8
    5194:	8dd5                	or	a1,a1,a3
    5196:	2274                	lbu	a3,6(a2)
    5198:	06c2                	slli	a3,a3,0x10
    519a:	8dd5                	or	a1,a1,a3
    519c:	3274                	lbu	a3,7(a2)
    519e:	06e2                	slli	a3,a3,0x18
    51a0:	8ecd                	or	a3,a3,a1
    51a2:	00cad583          	lhu	a1,12(s5)
    51a6:	95b6                	add	a1,a1,a3
    51a8:	40b705b3          	sub	a1,a4,a1
    51ac:	3205d963          	bgez	a1,54de <tcp_receive+0x5e0>
    51b0:	8f15                	sub	a4,a4,a3
    51b2:	04e05a63          	blez	a4,5206 <tcp_receive+0x308>
    51b6:	08442783          	lw	a5,132(s0)
    51ba:	4b98                	lw	a4,16(a5)
    51bc:	335c                	lbu	a5,5(a4)
    51be:	2354                	lbu	a3,4(a4)
    51c0:	07a2                	slli	a5,a5,0x8
    51c2:	8fd5                	or	a5,a5,a3
    51c4:	8f89                	sub	a5,a5,a0
    51c6:	a4de                	sh	a5,12(s1)
    51c8:	489c                	lw	a5,16(s1)
    51ca:	27c8                	lbu	a0,12(a5)
    51cc:	37dc                	lbu	a5,13(a5)
    51ce:	07a2                	slli	a5,a5,0x8
    51d0:	8d5d                	or	a0,a0,a5
    51d2:	ac3fd0ef          	jal	ra,2c94 <ntohs>
    51d6:	8909                	andi	a0,a0,2
    51d8:	c501                	beqz	a0,51e0 <tcp_receive+0x2e2>
    51da:	24de                	lhu	a5,12(s1)
    51dc:	17fd                	addi	a5,a5,-1
    51de:	a4de                	sh	a5,12(s1)
    51e0:	24ce                	lhu	a1,12(s1)
    51e2:	40c8                	lw	a0,4(s1)
    51e4:	818ff0ef          	jal	ra,41fc <pbuf_realloc>
    51e8:	489c                	lw	a5,16(s1)
    51ea:	00c4d983          	lhu	s3,12(s1)
    51ee:	27c8                	lbu	a0,12(a5)
    51f0:	37dc                	lbu	a5,13(a5)
    51f2:	07a2                	slli	a5,a5,0x8
    51f4:	8d5d                	or	a0,a0,a5
    51f6:	a9ffd0ef          	jal	ra,2c94 <ntohs>
    51fa:	890d                	andi	a0,a0,3
    51fc:	00a03533          	snez	a0,a0
    5200:	99aa                	add	s3,s3,a0
    5202:	013a1023          	sh	s3,0(s4)
    5206:	09542223          	sw	s5,132(s0)
    520a:	a469                	j	5494 <tcp_receive+0x596>
    520c:	dce791e3          	bne	a5,a4,4fce <tcp_receive+0xd0>
    5210:	8522                	mv	a0,s0
    5212:	31d010ef          	jal	ra,6d2e <tcp_rexmit_fast>
    5216:	bb65                	j	4fce <tcp_receive+0xd0>
    5218:	04040c23          	sb	zero,88(s0)
    521c:	bb4d                	j	4fce <tcp_receive+0xd0>
    521e:	5034                	lw	a3,96(s0)
    5220:	40d786b3          	sub	a3,a5,a3
    5224:	12d04263          	bgtz	a3,5348 <tcp_receive+0x44a>
    5228:	02644683          	lbu	a3,38(s0)
    522c:	0046f613          	andi	a2,a3,4
    5230:	ca01                	beqz	a2,5240 <tcp_receive+0x342>
    5232:	9aed                	andi	a3,a3,-5
    5234:	02d40323          	sb	a3,38(s0)
    5238:	05c45683          	lhu	a3,92(s0)
    523c:	04d41d23          	sh	a3,90(s0)
    5240:	04c41683          	lh	a3,76(s0)
    5244:	04e45603          	lhu	a2,78(s0)
    5248:	0742                	slli	a4,a4,0x10
    524a:	868d                	srai	a3,a3,0x3
    524c:	96b2                	add	a3,a3,a2
    524e:	04d41823          	sh	a3,80(s0)
    5252:	07645683          	lhu	a3,118(s0)
    5256:	8341                	srli	a4,a4,0x10
    5258:	06e41a23          	sh	a4,116(s0)
    525c:	9736                	add	a4,a4,a3
    525e:	06e41b23          	sh	a4,118(s0)
    5262:	4818                	lw	a4,16(s0)
    5264:	c87c                	sw	a5,84(s0)
    5266:	04040923          	sb	zero,82(s0)
    526a:	04040c23          	sb	zero,88(s0)
    526e:	478d                	li	a5,3
    5270:	02e7f163          	bgeu	a5,a4,5292 <tcp_receive+0x394>
    5274:	05a45703          	lhu	a4,90(s0)
    5278:	05c45683          	lhu	a3,92(s0)
    527c:	04045783          	lhu	a5,64(s0)
    5280:	02d77663          	bgeu	a4,a3,52ac <tcp_receive+0x3ae>
    5284:	97ba                	add	a5,a5,a4
    5286:	07c2                	slli	a5,a5,0x10
    5288:	83c1                	srli	a5,a5,0x10
    528a:	00f77463          	bgeu	a4,a5,5292 <tcp_receive+0x394>
    528e:	04f41d23          	sh	a5,90(s0)
    5292:	08042783          	lw	a5,128(s0)
    5296:	e385                	bnez	a5,52b6 <tcp_receive+0x3b8>
    5298:	08042783          	lw	a5,128(s0)
    529c:	02040e23          	sb	zero,60(s0)
    52a0:	0017b793          	seqz	a5,a5
    52a4:	40f007b3          	neg	a5,a5
    52a8:	bc7e                	sh	a5,62(s0)
    52aa:	b315                	j	4fce <tcp_receive+0xd0>
    52ac:	02f787b3          	mul	a5,a5,a5
    52b0:	02e7c7b3          	div	a5,a5,a4
    52b4:	bfc1                	j	5284 <tcp_receive+0x386>
    52b6:	4b98                	lw	a4,16(a5)
    52b8:	3348                	lbu	a0,5(a4)
    52ba:	235c                	lbu	a5,4(a4)
    52bc:	0522                	slli	a0,a0,0x8
    52be:	8d5d                	or	a0,a0,a5
    52c0:	237c                	lbu	a5,6(a4)
    52c2:	07c2                	slli	a5,a5,0x10
    52c4:	8fc9                	or	a5,a5,a0
    52c6:	3368                	lbu	a0,7(a4)
    52c8:	0562                	slli	a0,a0,0x18
    52ca:	8d5d                	or	a0,a0,a5
    52cc:	9fbfd0ef          	jal	ra,2cc6 <ntohl>
    52d0:	08042783          	lw	a5,128(s0)
    52d4:	89aa                	mv	s3,a0
    52d6:	00c7da03          	lhu	s4,12(a5)
    52da:	4b9c                	lw	a5,16(a5)
    52dc:	27c8                	lbu	a0,12(a5)
    52de:	37dc                	lbu	a5,13(a5)
    52e0:	07a2                	slli	a5,a5,0x8
    52e2:	8d5d                	or	a0,a0,a5
    52e4:	9b1fd0ef          	jal	ra,2c94 <ntohs>
    52e8:	409c                	lw	a5,0(s1)
    52ea:	890d                	andi	a0,a0,3
    52ec:	00a03533          	snez	a0,a0
    52f0:	9552                	add	a0,a0,s4
    52f2:	40f989b3          	sub	s3,s3,a5
    52f6:	954e                	add	a0,a0,s3
    52f8:	faa040e3          	bgtz	a0,5298 <tcp_receive+0x39a>
    52fc:	08042983          	lw	s3,128(s0)
    5300:	0009a783          	lw	a5,0(s3)
    5304:	08f42023          	sw	a5,128(s0)
    5308:	07445783          	lhu	a5,116(s0)
    530c:	c385                	beqz	a5,532c <tcp_receive+0x42e>
    530e:	0109a783          	lw	a5,16(s3)
    5312:	27c8                	lbu	a0,12(a5)
    5314:	37dc                	lbu	a5,13(a5)
    5316:	07a2                	slli	a5,a5,0x8
    5318:	8d5d                	or	a0,a0,a5
    531a:	97bfd0ef          	jal	ra,2c94 <ntohs>
    531e:	8905                	andi	a0,a0,1
    5320:	c511                	beqz	a0,532c <tcp_receive+0x42e>
    5322:	07445783          	lhu	a5,116(s0)
    5326:	17fd                	addi	a5,a5,-1
    5328:	06f41a23          	sh	a5,116(s0)
    532c:	0049a503          	lw	a0,4(s3)
    5330:	f25fe0ef          	jal	ra,4254 <pbuf_clen>
    5334:	07845783          	lhu	a5,120(s0)
    5338:	40a78533          	sub	a0,a5,a0
    533c:	06a41c23          	sh	a0,120(s0)
    5340:	854e                	mv	a0,s3
    5342:	acaff0ef          	jal	ra,460c <tcp_seg_free>
    5346:	b7b1                	j	5292 <tcp_receive+0x394>
    5348:	06041a23          	sh	zero,116(s0)
    534c:	b149                	j	4fce <tcp_receive+0xd0>
    534e:	4b98                	lw	a4,16(a5)
    5350:	0004a983          	lw	s3,0(s1)
    5354:	3348                	lbu	a0,5(a4)
    5356:	235c                	lbu	a5,4(a4)
    5358:	0522                	slli	a0,a0,0x8
    535a:	8d5d                	or	a0,a0,a5
    535c:	237c                	lbu	a5,6(a4)
    535e:	07c2                	slli	a5,a5,0x10
    5360:	8fc9                	or	a5,a5,a0
    5362:	3368                	lbu	a0,7(a4)
    5364:	0562                	slli	a0,a0,0x18
    5366:	8d5d                	or	a0,a0,a5
    5368:	95ffd0ef          	jal	ra,2cc6 <ntohl>
    536c:	5c7c                	lw	a5,124(s0)
    536e:	8aaa                	mv	s5,a0
    5370:	415989b3          	sub	s3,s3,s5
    5374:	00c7da03          	lhu	s4,12(a5)
    5378:	4b9c                	lw	a5,16(a5)
    537a:	27c8                	lbu	a0,12(a5)
    537c:	37dc                	lbu	a5,13(a5)
    537e:	07a2                	slli	a5,a5,0x8
    5380:	8d5d                	or	a0,a0,a5
    5382:	913fd0ef          	jal	ra,2c94 <ntohs>
    5386:	890d                	andi	a0,a0,3
    5388:	00a03533          	snez	a0,a0
    538c:	9552                	add	a0,a0,s4
    538e:	40a989b3          	sub	s3,s3,a0
    5392:	c409c1e3          	bltz	s3,4fd4 <tcp_receive+0xd6>
    5396:	409c                	lw	a5,0(s1)
    5398:	5038                	lw	a4,96(s0)
    539a:	8f99                	sub	a5,a5,a4
    539c:	c2f04ce3          	bgtz	a5,4fd4 <tcp_receive+0xd6>
    53a0:	07c42983          	lw	s3,124(s0)
    53a4:	0009a783          	lw	a5,0(s3)
    53a8:	dc7c                	sw	a5,124(s0)
    53aa:	07445783          	lhu	a5,116(s0)
    53ae:	c385                	beqz	a5,53ce <tcp_receive+0x4d0>
    53b0:	0109a783          	lw	a5,16(s3)
    53b4:	27c8                	lbu	a0,12(a5)
    53b6:	37dc                	lbu	a5,13(a5)
    53b8:	07a2                	slli	a5,a5,0x8
    53ba:	8d5d                	or	a0,a0,a5
    53bc:	8d9fd0ef          	jal	ra,2c94 <ntohs>
    53c0:	8905                	andi	a0,a0,1
    53c2:	c511                	beqz	a0,53ce <tcp_receive+0x4d0>
    53c4:	07445783          	lhu	a5,116(s0)
    53c8:	17fd                	addi	a5,a5,-1
    53ca:	06f41a23          	sh	a5,116(s0)
    53ce:	0049a503          	lw	a0,4(s3)
    53d2:	e83fe0ef          	jal	ra,4254 <pbuf_clen>
    53d6:	07845783          	lhu	a5,120(s0)
    53da:	40a78533          	sub	a0,a5,a0
    53de:	06a41c23          	sh	a0,120(s0)
    53e2:	854e                	mv	a0,s3
    53e4:	a28ff0ef          	jal	ra,460c <tcp_seg_free>
    53e8:	b6dd                	j	4fce <tcp_receive+0xd0>
    53ea:	443c                	lw	a5,72(s0)
    53ec:	4098                	lw	a4,0(s1)
    53ee:	8f99                	sub	a5,a5,a4
    53f0:	be07d5e3          	bgez	a5,4fda <tcp_receive+0xdc>
    53f4:	04c41683          	lh	a3,76(s0)
    53f8:	90c1d703          	lhu	a4,-1780(gp) # 2000017c <tcp_ticks>
    53fc:	0642                	slli	a2,a2,0x10
    53fe:	4036d593          	srai	a1,a3,0x3
    5402:	8241                	srli	a2,a2,0x10
    5404:	05c2                	slli	a1,a1,0x10
    5406:	81c1                	srli	a1,a1,0x10
    5408:	40c707b3          	sub	a5,a4,a2
    540c:	8f8d                	sub	a5,a5,a1
    540e:	07c2                	slli	a5,a5,0x10
    5410:	83c1                	srli	a5,a5,0x10
    5412:	01079513          	slli	a0,a5,0x10
    5416:	97b6                	add	a5,a5,a3
    5418:	07c2                	slli	a5,a5,0x10
    541a:	87c1                	srai	a5,a5,0x10
    541c:	8541                	srai	a0,a0,0x10
    541e:	04f41623          	sh	a5,76(s0)
    5422:	00055763          	bgez	a0,5430 <tcp_receive+0x532>
    5426:	8e19                	sub	a2,a2,a4
    5428:	962e                	add	a2,a2,a1
    542a:	01061513          	slli	a0,a2,0x10
    542e:	8541                	srai	a0,a0,0x10
    5430:	04e41683          	lh	a3,78(s0)
    5434:	878d                	srai	a5,a5,0x3
    5436:	04042223          	sw	zero,68(s0)
    543a:	4026d713          	srai	a4,a3,0x2
    543e:	40e68733          	sub	a4,a3,a4
    5442:	972a                	add	a4,a4,a0
    5444:	0742                	slli	a4,a4,0x10
    5446:	8341                	srli	a4,a4,0x10
    5448:	97ba                	add	a5,a5,a4
    544a:	04e41723          	sh	a4,78(s0)
    544e:	04f41823          	sh	a5,80(s0)
    5452:	b661                	j	4fda <tcp_receive+0xdc>
    5454:	a49e                	sh	a5,8(s1)
    5456:	00049523          	sh	zero,10(s1)
    545a:	8d99                	sub	a1,a1,a4
    545c:	4084                	lw	s1,0(s1)
    545e:	b6e1                	j	5026 <tcp_receive+0x128>
    5460:	40e00733          	neg	a4,a4
    5464:	01071593          	slli	a1,a4,0x10
    5468:	b6e9                	j	5032 <tcp_receive+0x134>
    546a:	8f95                	sub	a5,a5,a3
    546c:	c007d0e3          	bgez	a5,506c <tcp_receive+0x16e>
    5470:	02644783          	lbu	a5,38(s0)
    5474:	8522                	mv	a0,s0
    5476:	0027e793          	ori	a5,a5,2
    547a:	02f40323          	sb	a5,38(s0)
    547e:	38e010ef          	jal	ra,680c <tcp_output>
    5482:	b6ed                	j	506c <tcp_receive+0x16e>
    5484:	411c                	lw	a5,0(a0)
    5486:	08f42223          	sw	a5,132(s0)
    548a:	982ff0ef          	jal	ra,460c <tcp_seg_free>
    548e:	08442503          	lw	a0,132(s0)
    5492:	f96d                	bnez	a0,5484 <tcp_receive+0x586>
    5494:	000a5683          	lhu	a3,0(s4)
    5498:	345e                	lhu	a5,44(s0)
    549a:	00092703          	lw	a4,0(s2)
    549e:	8522                	mv	a0,s0
    54a0:	8f95                	sub	a5,a5,a3
    54a2:	9736                	add	a4,a4,a3
    54a4:	d418                	sw	a4,40(s0)
    54a6:	b45e                	sh	a5,44(s0)
    54a8:	8e0ff0ef          	jal	ra,4588 <tcp_update_rcv_ann_wnd>
    54ac:	40dc                	lw	a5,4(s1)
    54ae:	279a                	lhu	a4,8(a5)
    54b0:	c709                	beqz	a4,54ba <tcp_receive+0x5bc>
    54b2:	92f1a423          	sw	a5,-1752(gp) # 20000198 <recv_data>
    54b6:	0004a223          	sw	zero,4(s1)
    54ba:	489c                	lw	a5,16(s1)
    54bc:	27c8                	lbu	a0,12(a5)
    54be:	37dc                	lbu	a5,13(a5)
    54c0:	07a2                	slli	a5,a5,0x8
    54c2:	8d5d                	or	a0,a0,a5
    54c4:	fd0fd0ef          	jal	ra,2c94 <ntohs>
    54c8:	8905                	andi	a0,a0,1
    54ca:	c519                	beqz	a0,54d8 <tcp_receive+0x5da>
    54cc:	92c18793          	addi	a5,gp,-1748 # 2000019c <recv_flags>
    54d0:	2398                	lbu	a4,0(a5)
    54d2:	02076713          	ori	a4,a4,32
    54d6:	a398                	sb	a4,0(a5)
    54d8:	4a91                	li	s5,4
    54da:	4b1d                	li	s6,7
    54dc:	aa39                	j	55fa <tcp_receive+0x6fc>
    54de:	365c                	lbu	a5,13(a2)
    54e0:	2648                	lbu	a0,12(a2)
    54e2:	07a2                	slli	a5,a5,0x8
    54e4:	8d5d                	or	a0,a0,a5
    54e6:	faefd0ef          	jal	ra,2c94 <ntohs>
    54ea:	8905                	andi	a0,a0,1
    54ec:	c535                	beqz	a0,5558 <tcp_receive+0x65a>
    54ee:	489c                	lw	a5,16(s1)
    54f0:	27c8                	lbu	a0,12(a5)
    54f2:	37dc                	lbu	a5,13(a5)
    54f4:	07a2                	slli	a5,a5,0x8
    54f6:	8d5d                	or	a0,a0,a5
    54f8:	f9cfd0ef          	jal	ra,2c94 <ntohs>
    54fc:	8909                	andi	a0,a0,2
    54fe:	ed29                	bnez	a0,5558 <tcp_receive+0x65a>
    5500:	489c                	lw	a5,16(s1)
    5502:	00d7c983          	lbu	s3,13(a5)
    5506:	27c8                	lbu	a0,12(a5)
    5508:	09a2                	slli	s3,s3,0x8
    550a:	00a9e9b3          	or	s3,s3,a0
    550e:	855a                	mv	a0,s6
    5510:	f76fd0ef          	jal	ra,2c86 <htons>
    5514:	489c                	lw	a5,16(s1)
    5516:	00a9f9b3          	and	s3,s3,a0
    551a:	27c8                	lbu	a0,12(a5)
    551c:	37dc                	lbu	a5,13(a5)
    551e:	07a2                	slli	a5,a5,0x8
    5520:	8d5d                	or	a0,a0,a5
    5522:	f72fd0ef          	jal	ra,2c94 <ntohs>
    5526:	03e57513          	andi	a0,a0,62
    552a:	00156513          	ori	a0,a0,1
    552e:	f58fd0ef          	jal	ra,2c86 <htons>
    5532:	00a9e533          	or	a0,s3,a0
    5536:	489c                	lw	a5,16(s1)
    5538:	0542                	slli	a0,a0,0x10
    553a:	8141                	srli	a0,a0,0x10
    553c:	00855713          	srli	a4,a0,0x8
    5540:	a7c8                	sb	a0,12(a5)
    5542:	b7d8                	sb	a4,13(a5)
    5544:	00c4d983          	lhu	s3,12(s1)
    5548:	f4cfd0ef          	jal	ra,2c94 <ntohs>
    554c:	890d                	andi	a0,a0,3
    554e:	00a03533          	snez	a0,a0
    5552:	99aa                	add	s3,s3,a0
    5554:	013a1023          	sh	s3,0(s4)
    5558:	000aa983          	lw	s3,0(s5)
    555c:	8556                	mv	a0,s5
    555e:	8aeff0ef          	jal	ra,460c <tcp_seg_free>
    5562:	8ace                	mv	s5,s3
    5564:	b921                	j	517c <tcp_receive+0x27e>
    5566:	00f92023          	sw	a5,0(s2)
    556a:	375c                	lbu	a5,13(a4)
    556c:	2748                	lbu	a0,12(a4)
    556e:	00c4db83          	lhu	s7,12(s1)
    5572:	07a2                	slli	a5,a5,0x8
    5574:	8d5d                	or	a0,a0,a5
    5576:	f1efd0ef          	jal	ra,2c94 <ntohs>
    557a:	541c                	lw	a5,40(s0)
    557c:	890d                	andi	a0,a0,3
    557e:	00a03533          	snez	a0,a0
    5582:	955e                	add	a0,a0,s7
    5584:	953e                	add	a0,a0,a5
    5586:	489c                	lw	a5,16(s1)
    5588:	d408                	sw	a0,40(s0)
    558a:	00c4db83          	lhu	s7,12(s1)
    558e:	27c8                	lbu	a0,12(a5)
    5590:	37dc                	lbu	a5,13(a5)
    5592:	07a2                	slli	a5,a5,0x8
    5594:	8d5d                	or	a0,a0,a5
    5596:	efefd0ef          	jal	ra,2c94 <ntohs>
    559a:	345e                	lhu	a5,44(s0)
    559c:	890d                	andi	a0,a0,3
    559e:	00a03533          	snez	a0,a0
    55a2:	955e                	add	a0,a0,s7
    55a4:	40a78533          	sub	a0,a5,a0
    55a8:	b44a                	sh	a0,44(s0)
    55aa:	8522                	mv	a0,s0
    55ac:	fddfe0ef          	jal	ra,4588 <tcp_update_rcv_ann_wnd>
    55b0:	40cc                	lw	a1,4(s1)
    55b2:	259e                	lhu	a5,8(a1)
    55b4:	cb89                	beqz	a5,55c6 <tcp_receive+0x6c8>
    55b6:	92818793          	addi	a5,gp,-1752 # 20000198 <recv_data>
    55ba:	4388                	lw	a0,0(a5)
    55bc:	cd35                	beqz	a0,5638 <tcp_receive+0x73a>
    55be:	cb3fe0ef          	jal	ra,4270 <pbuf_cat>
    55c2:	0004a223          	sw	zero,4(s1)
    55c6:	489c                	lw	a5,16(s1)
    55c8:	27c8                	lbu	a0,12(a5)
    55ca:	37dc                	lbu	a5,13(a5)
    55cc:	07a2                	slli	a5,a5,0x8
    55ce:	8d5d                	or	a0,a0,a5
    55d0:	ec4fd0ef          	jal	ra,2c94 <ntohs>
    55d4:	8905                	andi	a0,a0,1
    55d6:	cd01                	beqz	a0,55ee <tcp_receive+0x6f0>
    55d8:	92c18713          	addi	a4,gp,-1748 # 2000019c <recv_flags>
    55dc:	231c                	lbu	a5,0(a4)
    55de:	0207e793          	ori	a5,a5,32
    55e2:	a31c                	sb	a5,0(a4)
    55e4:	481c                	lw	a5,16(s0)
    55e6:	01579463          	bne	a5,s5,55ee <tcp_receive+0x6f0>
    55ea:	01642823          	sw	s6,16(s0)
    55ee:	409c                	lw	a5,0(s1)
    55f0:	8526                	mv	a0,s1
    55f2:	08f42223          	sw	a5,132(s0)
    55f6:	816ff0ef          	jal	ra,460c <tcp_seg_free>
    55fa:	08442483          	lw	s1,132(s0)
    55fe:	cc99                	beqz	s1,561c <tcp_receive+0x71e>
    5600:	4898                	lw	a4,16(s1)
    5602:	3354                	lbu	a3,5(a4)
    5604:	235c                	lbu	a5,4(a4)
    5606:	06a2                	slli	a3,a3,0x8
    5608:	8edd                	or	a3,a3,a5
    560a:	237c                	lbu	a5,6(a4)
    560c:	07c2                	slli	a5,a5,0x10
    560e:	8edd                	or	a3,a3,a5
    5610:	337c                	lbu	a5,7(a4)
    5612:	07e2                	slli	a5,a5,0x18
    5614:	8fd5                	or	a5,a5,a3
    5616:	5414                	lw	a3,40(s0)
    5618:	f4d787e3          	beq	a5,a3,5566 <tcp_receive+0x668>
    561c:	02644783          	lbu	a5,38(s0)
    5620:	0017f713          	andi	a4,a5,1
    5624:	cf01                	beqz	a4,563c <tcp_receive+0x73e>
    5626:	9bf9                	andi	a5,a5,-2
    5628:	0027e793          	ori	a5,a5,2
    562c:	02f40323          	sb	a5,38(s0)
    5630:	8522                	mv	a0,s0
    5632:	1da010ef          	jal	ra,680c <tcp_output>
    5636:	a039                	j	5644 <tcp_receive+0x746>
    5638:	c38c                	sw	a1,0(a5)
    563a:	b761                	j	55c2 <tcp_receive+0x6c4>
    563c:	0017e793          	ori	a5,a5,1
    5640:	02f40323          	sb	a5,38(s0)
    5644:	b3dfa06f          	j	180 <__riscv_restore_10>
    5648:	8522                	mv	a0,s0
    564a:	152010ef          	jal	ra,679c <tcp_send_empty_ack>
    564e:	08442483          	lw	s1,132(s0)
    5652:	e891                	bnez	s1,5666 <tcp_receive+0x768>
    5654:	20004537          	lui	a0,0x20004
    5658:	2c050513          	addi	a0,a0,704 # 200042c0 <inseg>
    565c:	ff9fe0ef          	jal	ra,4654 <tcp_seg_copy>
    5660:	08a42223          	sw	a0,132(s0)
    5664:	b7c5                	j	5644 <tcp_receive+0x746>
    5666:	00092703          	lw	a4,0(s2)
    566a:	4981                	li	s3,0
    566c:	fff70813          	addi	a6,a4,-1
    5670:	00170513          	addi	a0,a4,1
    5674:	4890                	lw	a2,16(s1)
    5676:	3254                	lbu	a3,5(a2)
    5678:	225c                	lbu	a5,4(a2)
    567a:	06a2                	slli	a3,a3,0x8
    567c:	8edd                	or	a3,a3,a5
    567e:	227c                	lbu	a5,6(a2)
    5680:	07c2                	slli	a5,a5,0x10
    5682:	8edd                	or	a3,a3,a5
    5684:	327c                	lbu	a5,7(a2)
    5686:	07e2                	slli	a5,a5,0x18
    5688:	8fd5                	or	a5,a5,a3
    568a:	02e79c63          	bne	a5,a4,56c2 <tcp_receive+0x7c4>
    568e:	20004537          	lui	a0,0x20004
    5692:	2c050793          	addi	a5,a0,704 # 200042c0 <inseg>
    5696:	27da                	lhu	a4,12(a5)
    5698:	24de                	lhu	a5,12(s1)
    569a:	fae7f5e3          	bgeu	a5,a4,5644 <tcp_receive+0x746>
    569e:	2c050513          	addi	a0,a0,704
    56a2:	fb3fe0ef          	jal	ra,4654 <tcp_seg_copy>
    56a6:	dd59                	beqz	a0,5644 <tcp_receive+0x746>
    56a8:	00098a63          	beqz	s3,56bc <tcp_receive+0x7be>
    56ac:	00a9a023          	sw	a0,0(s3)
    56b0:	85a6                	mv	a1,s1
    56b2:	f7eff0ef          	jal	ra,4e30 <tcp_oos_insert_segment>
    56b6:	b779                	j	5644 <tcp_receive+0x746>
    56b8:	84b6                	mv	s1,a3
    56ba:	bf6d                	j	5674 <tcp_receive+0x776>
    56bc:	08a42223          	sw	a0,132(s0)
    56c0:	bfc5                	j	56b0 <tcp_receive+0x7b2>
    56c2:	02099063          	bnez	s3,56e2 <tcp_receive+0x7e4>
    56c6:	40f706b3          	sub	a3,a4,a5
    56ca:	0806de63          	bgez	a3,5766 <tcp_receive+0x868>
    56ce:	20004537          	lui	a0,0x20004
    56d2:	2c050513          	addi	a0,a0,704 # 200042c0 <inseg>
    56d6:	f7ffe0ef          	jal	ra,4654 <tcp_seg_copy>
    56da:	d52d                	beqz	a0,5644 <tcp_receive+0x746>
    56dc:	08a42223          	sw	a0,132(s0)
    56e0:	bfc1                	j	56b0 <tcp_receive+0x7b2>
    56e2:	0109a883          	lw	a7,16(s3)
    56e6:	0058c583          	lbu	a1,5(a7)
    56ea:	0048c683          	lbu	a3,4(a7)
    56ee:	05a2                	slli	a1,a1,0x8
    56f0:	8dd5                	or	a1,a1,a3
    56f2:	0068c683          	lbu	a3,6(a7)
    56f6:	06c2                	slli	a3,a3,0x10
    56f8:	8dd5                	or	a1,a1,a3
    56fa:	0078c683          	lbu	a3,7(a7)
    56fe:	06e2                	slli	a3,a3,0x18
    5700:	8ecd                	or	a3,a3,a1
    5702:	40d806b3          	sub	a3,a6,a3
    5706:	0606c063          	bltz	a3,5766 <tcp_receive+0x868>
    570a:	40f506b3          	sub	a3,a0,a5
    570e:	04d04c63          	bgtz	a3,5766 <tcp_receive+0x868>
    5712:	20004537          	lui	a0,0x20004
    5716:	2c050513          	addi	a0,a0,704 # 200042c0 <inseg>
    571a:	f3bfe0ef          	jal	ra,4654 <tcp_seg_copy>
    571e:	842a                	mv	s0,a0
    5720:	d115                	beqz	a0,5644 <tcp_receive+0x746>
    5722:	0109a703          	lw	a4,16(s3)
    5726:	335c                	lbu	a5,5(a4)
    5728:	234c                	lbu	a1,4(a4)
    572a:	07a2                	slli	a5,a5,0x8
    572c:	8ddd                	or	a1,a1,a5
    572e:	237c                	lbu	a5,6(a4)
    5730:	07c2                	slli	a5,a5,0x10
    5732:	8fcd                	or	a5,a5,a1
    5734:	336c                	lbu	a1,7(a4)
    5736:	00c9d703          	lhu	a4,12(s3)
    573a:	05e2                	slli	a1,a1,0x18
    573c:	8fcd                	or	a5,a5,a1
    573e:	00092583          	lw	a1,0(s2)
    5742:	973e                	add	a4,a4,a5
    5744:	8f0d                	sub	a4,a4,a1
    5746:	00e05b63          	blez	a4,575c <tcp_receive+0x85e>
    574a:	8d9d                	sub	a1,a1,a5
    574c:	05c2                	slli	a1,a1,0x10
    574e:	0049a503          	lw	a0,4(s3)
    5752:	81c1                	srli	a1,a1,0x10
    5754:	00b99623          	sh	a1,12(s3)
    5758:	aa5fe0ef          	jal	ra,41fc <pbuf_realloc>
    575c:	0089a023          	sw	s0,0(s3)
    5760:	85a6                	mv	a1,s1
    5762:	8522                	mv	a0,s0
    5764:	b7b9                	j	56b2 <tcp_receive+0x7b4>
    5766:	4094                	lw	a3,0(s1)
    5768:	89a6                	mv	s3,s1
    576a:	f6b9                	bnez	a3,56b8 <tcp_receive+0x7ba>
    576c:	40f707b3          	sub	a5,a4,a5
    5770:	ecf05ae3          	blez	a5,5644 <tcp_receive+0x746>
    5774:	365c                	lbu	a5,13(a2)
    5776:	2648                	lbu	a0,12(a2)
    5778:	07a2                	slli	a5,a5,0x8
    577a:	8d5d                	or	a0,a0,a5
    577c:	d18fd0ef          	jal	ra,2c94 <ntohs>
    5780:	8905                	andi	a0,a0,1
    5782:	ec0511e3          	bnez	a0,5644 <tcp_receive+0x746>
    5786:	20004537          	lui	a0,0x20004
    578a:	2c050513          	addi	a0,a0,704 # 200042c0 <inseg>
    578e:	ec7fe0ef          	jal	ra,4654 <tcp_seg_copy>
    5792:	c088                	sw	a0,0(s1)
    5794:	ea0508e3          	beqz	a0,5644 <tcp_receive+0x746>
    5798:	4898                	lw	a4,16(s1)
    579a:	335c                	lbu	a5,5(a4)
    579c:	234c                	lbu	a1,4(a4)
    579e:	07a2                	slli	a5,a5,0x8
    57a0:	8ddd                	or	a1,a1,a5
    57a2:	237c                	lbu	a5,6(a4)
    57a4:	07c2                	slli	a5,a5,0x10
    57a6:	8fcd                	or	a5,a5,a1
    57a8:	336c                	lbu	a1,7(a4)
    57aa:	24da                	lhu	a4,12(s1)
    57ac:	05e2                	slli	a1,a1,0x18
    57ae:	8fcd                	or	a5,a5,a1
    57b0:	00092583          	lw	a1,0(s2)
    57b4:	973e                	add	a4,a4,a5
    57b6:	8f0d                	sub	a4,a4,a1
    57b8:	e8e056e3          	blez	a4,5644 <tcp_receive+0x746>
    57bc:	8d9d                	sub	a1,a1,a5
    57be:	05c2                	slli	a1,a1,0x10
    57c0:	40c8                	lw	a0,4(s1)
    57c2:	81c1                	srli	a1,a1,0x10
    57c4:	a4ce                	sh	a1,12(s1)
    57c6:	a37fe0ef          	jal	ra,41fc <pbuf_realloc>
    57ca:	bdad                	j	5644 <tcp_receive+0x746>
    57cc:	8522                	mv	a0,s0
    57ce:	7cf000ef          	jal	ra,679c <tcp_send_empty_ack>
    57d2:	bd8d                	j	5644 <tcp_receive+0x746>
    57d4:	40d78733          	sub	a4,a5,a3
    57d8:	00074863          	bltz	a4,57e8 <tcp_receive+0x8ea>
    57dc:	345a                	lhu	a4,44(s0)
    57de:	0785                	addi	a5,a5,1
    57e0:	8f95                	sub	a5,a5,a3
    57e2:	8f99                	sub	a5,a5,a4
    57e4:	e6f050e3          	blez	a5,5644 <tcp_receive+0x746>
    57e8:	02644783          	lbu	a5,38(s0)
    57ec:	bd35                	j	5628 <tcp_receive+0x72a>

000057ee <tcp_parseopt.isra.0>:
    57ee:	983fa2ef          	jal	t0,170 <__riscv_save_0>
    57f2:	93818493          	addi	s1,gp,-1736 # 200001a8 <tcphdr>
    57f6:	0004a903          	lw	s2,0(s1)
    57fa:	842a                	mv	s0,a0
    57fc:	00d94783          	lbu	a5,13(s2)
    5800:	00c94503          	lbu	a0,12(s2)
    5804:	07a2                	slli	a5,a5,0x8
    5806:	8d5d                	or	a0,a0,a5
    5808:	c8cfd0ef          	jal	ra,2c94 <ntohs>
    580c:	8131                	srli	a0,a0,0xc
    580e:	0542                	slli	a0,a0,0x10
    5810:	8141                	srli	a0,a0,0x10
    5812:	4795                	li	a5,5
    5814:	02a7fc63          	bgeu	a5,a0,584c <tcp_parseopt.isra.0+0x5e>
    5818:	409c                	lw	a5,0(s1)
    581a:	0951                	addi	s2,s2,20
    581c:	27c8                	lbu	a0,12(a5)
    581e:	37dc                	lbu	a5,13(a5)
    5820:	07a2                	slli	a5,a5,0x8
    5822:	8d5d                	or	a0,a0,a5
    5824:	c70fd0ef          	jal	ra,2c94 <ntohs>
    5828:	200047b7          	lui	a5,0x20004
    582c:	2407a603          	lw	a2,576(a5) # 20004240 <WCHCfg+0x4>
    5830:	8131                	srli	a0,a0,0xc
    5832:	156d                	addi	a0,a0,-5
    5834:	050a                	slli	a0,a0,0x2
    5836:	0542                	slli	a0,a0,0x10
    5838:	01061593          	slli	a1,a2,0x10
    583c:	8141                	srli	a0,a0,0x10
    583e:	81c1                	srli	a1,a1,0x10
    5840:	4781                	li	a5,0
    5842:	4805                	li	a6,1
    5844:	4889                	li	a7,2
    5846:	4311                	li	t1,4
    5848:	00a7e463          	bltu	a5,a0,5850 <tcp_parseopt.isra.0+0x62>
    584c:	949fa06f          	j	194 <__riscv_restore_0>
    5850:	00f906b3          	add	a3,s2,a5
    5854:	2298                	lbu	a4,0(a3)
    5856:	01070963          	beq	a4,a6,5868 <tcp_parseopt.isra.0+0x7a>
    585a:	db6d                	beqz	a4,584c <tcp_parseopt.isra.0+0x5e>
    585c:	01170a63          	beq	a4,a7,5870 <tcp_parseopt.isra.0+0x82>
    5860:	3298                	lbu	a4,1(a3)
    5862:	d76d                	beqz	a4,584c <tcp_parseopt.isra.0+0x5e>
    5864:	97ba                	add	a5,a5,a4
    5866:	a011                	j	586a <tcp_parseopt.isra.0+0x7c>
    5868:	0785                	addi	a5,a5,1
    586a:	07c2                	slli	a5,a5,0x10
    586c:	83c1                	srli	a5,a5,0x10
    586e:	bfe9                	j	5848 <tcp_parseopt.isra.0+0x5a>
    5870:	3298                	lbu	a4,1(a3)
    5872:	fc671de3          	bne	a4,t1,584c <tcp_parseopt.isra.0+0x5e>
    5876:	00378713          	addi	a4,a5,3
    587a:	fca759e3          	bge	a4,a0,584c <tcp_parseopt.isra.0+0x5e>
    587e:	22b8                	lbu	a4,2(a3)
    5880:	32b4                	lbu	a3,3(a3)
    5882:	0722                	slli	a4,a4,0x8
    5884:	8f55                	or	a4,a4,a3
    5886:	00e66363          	bltu	a2,a4,588c <tcp_parseopt.isra.0+0x9e>
    588a:	e311                	bnez	a4,588e <tcp_parseopt.isra.0+0xa0>
    588c:	872e                	mv	a4,a1
    588e:	a01a                	sh	a4,0(s0)
    5890:	0791                	addi	a5,a5,4
    5892:	bfe1                	j	586a <tcp_parseopt.isra.0+0x7c>

00005894 <tcp_input>:
    5894:	8adfa2ef          	jal	t0,140 <__riscv_save_12>
    5898:	4140                	lw	s0,4(a0)
    589a:	8baa                	mv	s7,a0
    589c:	301c                	lbu	a5,1(s0)
    589e:	2008                	lbu	a0,0(s0)
    58a0:	1141                	addi	sp,sp,-16
    58a2:	07a2                	slli	a5,a5,0x8
    58a4:	92418913          	addi	s2,gp,-1756 # 20000194 <iphdr>
    58a8:	8d5d                	or	a0,a0,a5
    58aa:	89ae                	mv	s3,a1
    58ac:	00892023          	sw	s0,0(s2)
    58b0:	be4fd0ef          	jal	ra,2c94 <ntohs>
    58b4:	00092783          	lw	a5,0(s2)
    58b8:	8119                	srli	a0,a0,0x6
    58ba:	03c57513          	andi	a0,a0,60
    58be:	942a                	add	s0,s0,a0
    58c0:	2388                	lbu	a0,0(a5)
    58c2:	339c                	lbu	a5,1(a5)
    58c4:	9281ac23          	sw	s0,-1736(gp) # 200001a8 <tcphdr>
    58c8:	07a2                	slli	a5,a5,0x8
    58ca:	8d5d                	or	a0,a0,a5
    58cc:	bc8fd0ef          	jal	ra,2c94 <ntohs>
    58d0:	00655593          	srli	a1,a0,0x6
    58d4:	03c5f593          	andi	a1,a1,60
    58d8:	40b005b3          	neg	a1,a1
    58dc:	855e                	mv	a0,s7
    58de:	f22fe0ef          	jal	ra,4000 <pbuf_header>
    58e2:	e511                	bnez	a0,58ee <tcp_input+0x5a>
    58e4:	008bd703          	lhu	a4,8(s7)
    58e8:	47cd                	li	a5,19
    58ea:	00e7e863          	bltu	a5,a4,58fa <tcp_input+0x66>
    58ee:	855e                	mv	a0,s7
    58f0:	f7efe0ef          	jal	ra,406e <pbuf_free>
    58f4:	0141                	addi	sp,sp,16
    58f6:	887fa06f          	j	17c <__riscv_restore_12>
    58fa:	92418b13          	addi	s6,gp,-1756 # 20000194 <iphdr>
    58fe:	000b2503          	lw	a0,0(s6)
    5902:	85ce                	mv	a1,s3
    5904:	0541                	addi	a0,a0,16
    5906:	843fd0ef          	jal	ra,3148 <ip_addr_isbroadcast>
    590a:	f175                	bnez	a0,58ee <tcp_input+0x5a>
    590c:	000b2703          	lw	a4,0(s6)
    5910:	f0000537          	lui	a0,0xf0000
    5914:	3b1c                	lbu	a5,17(a4)
    5916:	2b00                	lbu	s0,16(a4)
    5918:	07a2                	slli	a5,a5,0x8
    591a:	8fc1                	or	a5,a5,s0
    591c:	2b20                	lbu	s0,18(a4)
    591e:	0442                	slli	s0,s0,0x10
    5920:	8fc1                	or	a5,a5,s0
    5922:	3b20                	lbu	s0,19(a4)
    5924:	0462                	slli	s0,s0,0x18
    5926:	8c5d                	or	s0,s0,a5
    5928:	b9efd0ef          	jal	ra,2cc6 <ntohl>
    592c:	8c69                	and	s0,s0,a0
    592e:	e0000537          	lui	a0,0xe0000
    5932:	b94fd0ef          	jal	ra,2cc6 <ntohl>
    5936:	faa40ce3          	beq	s0,a0,58ee <tcp_input+0x5a>
    593a:	000b2583          	lw	a1,0(s6)
    593e:	008bd703          	lhu	a4,8(s7)
    5942:	4699                	li	a3,6
    5944:	01058613          	addi	a2,a1,16
    5948:	855e                	mv	a0,s7
    594a:	05b1                	addi	a1,a1,12
    594c:	55d010ef          	jal	ra,76a8 <inet_chksum_pseudo>
    5950:	fd59                	bnez	a0,58ee <tcp_input+0x5a>
    5952:	93818493          	addi	s1,gp,-1736 # 200001a8 <tcphdr>
    5956:	409c                	lw	a5,0(s1)
    5958:	27c8                	lbu	a0,12(a5)
    595a:	37dc                	lbu	a5,13(a5)
    595c:	07a2                	slli	a5,a5,0x8
    595e:	8d5d                	or	a0,a0,a5
    5960:	b34fd0ef          	jal	ra,2c94 <ntohs>
    5964:	8131                	srli	a0,a0,0xc
    5966:	55f1                	li	a1,-4
    5968:	02b505b3          	mul	a1,a0,a1
    596c:	855e                	mv	a0,s7
    596e:	05c2                	slli	a1,a1,0x10
    5970:	85c1                	srai	a1,a1,0x10
    5972:	e8efe0ef          	jal	ra,4000 <pbuf_header>
    5976:	fd25                	bnez	a0,58ee <tcp_input+0x5a>
    5978:	4080                	lw	s0,0(s1)
    597a:	301c                	lbu	a5,1(s0)
    597c:	2008                	lbu	a0,0(s0)
    597e:	07a2                	slli	a5,a5,0x8
    5980:	8d5d                	or	a0,a0,a5
    5982:	b12fd0ef          	jal	ra,2c94 <ntohs>
    5986:	a008                	sb	a0,0(s0)
    5988:	8121                	srli	a0,a0,0x8
    598a:	b008                	sb	a0,1(s0)
    598c:	4080                	lw	s0,0(s1)
    598e:	303c                	lbu	a5,3(s0)
    5990:	2028                	lbu	a0,2(s0)
    5992:	07a2                	slli	a5,a5,0x8
    5994:	8d5d                	or	a0,a0,a5
    5996:	afefd0ef          	jal	ra,2c94 <ntohs>
    599a:	a028                	sb	a0,2(s0)
    599c:	8121                	srli	a0,a0,0x8
    599e:	b028                	sb	a0,3(s0)
    59a0:	4080                	lw	s0,0(s1)
    59a2:	3048                	lbu	a0,5(s0)
    59a4:	205c                	lbu	a5,4(s0)
    59a6:	0522                	slli	a0,a0,0x8
    59a8:	8d5d                	or	a0,a0,a5
    59aa:	207c                	lbu	a5,6(s0)
    59ac:	07c2                	slli	a5,a5,0x10
    59ae:	8fc9                	or	a5,a5,a0
    59b0:	3068                	lbu	a0,7(s0)
    59b2:	0562                	slli	a0,a0,0x18
    59b4:	8d5d                	or	a0,a0,a5
    59b6:	b10fd0ef          	jal	ra,2cc6 <ntohl>
    59ba:	00855793          	srli	a5,a0,0x8
    59be:	b05c                	sb	a5,5(s0)
    59c0:	01055793          	srli	a5,a0,0x10
    59c4:	a07c                	sb	a5,6(s0)
    59c6:	01855793          	srli	a5,a0,0x18
    59ca:	a048                	sb	a0,4(s0)
    59cc:	b07c                	sb	a5,7(s0)
    59ce:	4080                	lw	s0,0(s1)
    59d0:	92a1a823          	sw	a0,-1744(gp) # 200001a0 <seqno>
    59d4:	93018a93          	addi	s5,gp,-1744 # 200001a0 <seqno>
    59d8:	3408                	lbu	a0,9(s0)
    59da:	241c                	lbu	a5,8(s0)
    59dc:	0522                	slli	a0,a0,0x8
    59de:	8d5d                	or	a0,a0,a5
    59e0:	243c                	lbu	a5,10(s0)
    59e2:	07c2                	slli	a5,a5,0x10
    59e4:	8fc9                	or	a5,a5,a0
    59e6:	3428                	lbu	a0,11(s0)
    59e8:	0562                	slli	a0,a0,0x18
    59ea:	8d5d                	or	a0,a0,a5
    59ec:	adafd0ef          	jal	ra,2cc6 <ntohl>
    59f0:	00855793          	srli	a5,a0,0x8
    59f4:	b41c                	sb	a5,9(s0)
    59f6:	01055793          	srli	a5,a0,0x10
    59fa:	a43c                	sb	a5,10(s0)
    59fc:	01855793          	srli	a5,a0,0x18
    5a00:	a408                	sb	a0,8(s0)
    5a02:	b43c                	sb	a5,11(s0)
    5a04:	4080                	lw	s0,0(s1)
    5a06:	90a1ae23          	sw	a0,-1764(gp) # 2000018c <ackno>
    5a0a:	91c18913          	addi	s2,gp,-1764 # 2000018c <ackno>
    5a0e:	347c                	lbu	a5,15(s0)
    5a10:	2468                	lbu	a0,14(s0)
    5a12:	07a2                	slli	a5,a5,0x8
    5a14:	8d5d                	or	a0,a0,a5
    5a16:	a7efd0ef          	jal	ra,2c94 <ntohs>
    5a1a:	409c                	lw	a5,0(s1)
    5a1c:	a468                	sb	a0,14(s0)
    5a1e:	8121                	srli	a0,a0,0x8
    5a20:	b468                	sb	a0,15(s0)
    5a22:	27c8                	lbu	a0,12(a5)
    5a24:	37dc                	lbu	a5,13(a5)
    5a26:	07a2                	slli	a5,a5,0x8
    5a28:	8d5d                	or	a0,a0,a5
    5a2a:	a6afd0ef          	jal	ra,2c94 <ntohs>
    5a2e:	0ff57813          	andi	a6,a0,255
    5a32:	008bd883          	lhu	a7,8(s7)
    5a36:	00387593          	andi	a1,a6,3
    5a3a:	00b035b3          	snez	a1,a1
    5a3e:	95c6                	add	a1,a1,a7
    5a40:	9001a303          	lw	t1,-1792(gp) # 20000170 <tcp_active_pcbs>
    5a44:	05c2                	slli	a1,a1,0x10
    5a46:	4094                	lw	a3,0(s1)
    5a48:	000b2603          	lw	a2,0(s6)
    5a4c:	03f87793          	andi	a5,a6,63
    5a50:	81c1                	srli	a1,a1,0x10
    5a52:	92f18023          	sb	a5,-1760(gp) # 20000190 <flags>
    5a56:	92b19e23          	sh	a1,-1732(gp) # 200001ac <tcplen>
    5a5a:	841a                	mv	s0,t1
    5a5c:	4501                	li	a0,0
    5a5e:	92018c93          	addi	s9,gp,-1760 # 20000190 <flags>
    5a62:	93c18c13          	addi	s8,gp,-1732 # 200001ac <tcplen>
    5a66:	e401                	bnez	s0,5a6e <tcp_input+0x1da>
    5a68:	9181a503          	lw	a0,-1768(gp) # 20000188 <tcp_tw_pcbs>
    5a6c:	a2e9                	j	5c36 <tcp_input+0x3a2>
    5a6e:	329c                	lbu	a5,1(a3)
    5a70:	0006ce03          	lbu	t3,0(a3)
    5a74:	305a                	lhu	a4,36(s0)
    5a76:	07a2                	slli	a5,a5,0x8
    5a78:	01c7e7b3          	or	a5,a5,t3
    5a7c:	0ef71263          	bne	a4,a5,5b60 <tcp_input+0x2cc>
    5a80:	32bc                	lbu	a5,3(a3)
    5a82:	0026ce03          	lbu	t3,2(a3)
    5a86:	2c5a                	lhu	a4,28(s0)
    5a88:	07a2                	slli	a5,a5,0x8
    5a8a:	01c7e7b3          	or	a5,a5,t3
    5a8e:	0cf71963          	bne	a4,a5,5b60 <tcp_input+0x2cc>
    5a92:	3658                	lbu	a4,13(a2)
    5a94:	265c                	lbu	a5,12(a2)
    5a96:	0722                	slli	a4,a4,0x8
    5a98:	8f5d                	or	a4,a4,a5
    5a9a:	267c                	lbu	a5,14(a2)
    5a9c:	07c2                	slli	a5,a5,0x10
    5a9e:	8f5d                	or	a4,a4,a5
    5aa0:	367c                	lbu	a5,15(a2)
    5aa2:	07e2                	slli	a5,a5,0x18
    5aa4:	8fd9                	or	a5,a5,a4
    5aa6:	4058                	lw	a4,4(s0)
    5aa8:	0af71c63          	bne	a4,a5,5b60 <tcp_input+0x2cc>
    5aac:	3a18                	lbu	a4,17(a2)
    5aae:	2a1c                	lbu	a5,16(a2)
    5ab0:	0722                	slli	a4,a4,0x8
    5ab2:	8f5d                	or	a4,a4,a5
    5ab4:	2a3c                	lbu	a5,18(a2)
    5ab6:	07c2                	slli	a5,a5,0x10
    5ab8:	8f5d                	or	a4,a4,a5
    5aba:	3a3c                	lbu	a5,19(a2)
    5abc:	07e2                	slli	a5,a5,0x18
    5abe:	8fd9                	or	a5,a5,a4
    5ac0:	4018                	lw	a4,0(s0)
    5ac2:	08f71f63          	bne	a4,a5,5b60 <tcp_input+0x2cc>
    5ac6:	c519                	beqz	a0,5ad4 <tcp_input+0x240>
    5ac8:	445c                	lw	a5,12(s0)
    5aca:	9081a023          	sw	s0,-1792(gp) # 20000170 <tcp_active_pcbs>
    5ace:	c55c                	sw	a5,12(a0)
    5ad0:	00642623          	sw	t1,12(s0)
    5ad4:	004ba703          	lw	a4,4(s7)
    5ad8:	20004db7          	lui	s11,0x20004
    5adc:	08842603          	lw	a2,136(s0)
    5ae0:	2c0d8793          	addi	a5,s11,704 # 200042c0 <inseg>
    5ae4:	9201a423          	sw	zero,-1752(gp) # 20000198 <recv_data>
    5ae8:	92018623          	sb	zero,-1748(gp) # 2000019c <recv_flags>
    5aec:	0007a023          	sw	zero,0(a5)
    5af0:	01179623          	sh	a7,12(a5)
    5af4:	c798                	sw	a4,8(a5)
    5af6:	0177a223          	sw	s7,4(a5)
    5afa:	cb94                	sw	a3,16(a5)
    5afc:	92c18a13          	addi	s4,gp,-1748 # 2000019c <recv_flags>
    5b00:	92818d13          	addi	s10,gp,-1752 # 20000198 <recv_data>
    5b04:	2c0d8d93          	addi	s11,s11,704
    5b08:	ce09                	beqz	a2,5b22 <tcp_input+0x28e>
    5b0a:	09042783          	lw	a5,144(s0)
    5b0e:	4681                	li	a3,0
    5b10:	85a2                	mv	a1,s0
    5b12:	2c078a63          	beqz	a5,5de6 <tcp_input+0x552>
    5b16:	4c08                	lw	a0,24(s0)
    5b18:	9782                	jalr	a5
    5b1a:	dc051ae3          	bnez	a0,58ee <tcp_input+0x5a>
    5b1e:	08042423          	sw	zero,136(s0)
    5b22:	000cc783          	lbu	a5,0(s9)
    5b26:	9281aa23          	sw	s0,-1740(gp) # 200001a4 <tcp_input_pcb>
    5b2a:	0047f713          	andi	a4,a5,4
    5b2e:	93418b93          	addi	s7,gp,-1740 # 200001a4 <tcp_input_pcb>
    5b32:	30070d63          	beqz	a4,5e4c <tcp_input+0x5b8>
    5b36:	4818                	lw	a4,16(s0)
    5b38:	4789                	li	a5,2
    5b3a:	2af71a63          	bne	a4,a5,5dee <tcp_input+0x55a>
    5b3e:	5038                	lw	a4,96(s0)
    5b40:	00092783          	lw	a5,0(s2)
    5b44:	2af71f63          	bne	a4,a5,5e02 <tcp_input+0x56e>
    5b48:	000a4783          	lbu	a5,0(s4)
    5b4c:	0087e793          	ori	a5,a5,8
    5b50:	00fa0023          	sb	a5,0(s4)
    5b54:	02644783          	lbu	a5,38(s0)
    5b58:	9bf9                	andi	a5,a5,-2
    5b5a:	02f40323          	sb	a5,38(s0)
    5b5e:	a455                	j	5e02 <tcp_input+0x56e>
    5b60:	8522                	mv	a0,s0
    5b62:	4440                	lw	s0,12(s0)
    5b64:	b709                	j	5a66 <tcp_input+0x1d2>
    5b66:	3298                	lbu	a4,1(a3)
    5b68:	229c                	lbu	a5,0(a3)
    5b6a:	0722                	slli	a4,a4,0x8
    5b6c:	8f5d                	or	a4,a4,a5
    5b6e:	315e                	lhu	a5,36(a0)
    5b70:	0ce79263          	bne	a5,a4,5c34 <tcp_input+0x3a0>
    5b74:	0036c883          	lbu	a7,3(a3)
    5b78:	22b8                	lbu	a4,2(a3)
    5b7a:	08a2                	slli	a7,a7,0x8
    5b7c:	00e8e8b3          	or	a7,a7,a4
    5b80:	2d5a                	lhu	a4,28(a0)
    5b82:	0b171963          	bne	a4,a7,5c34 <tcp_input+0x3a0>
    5b86:	00d64303          	lbu	t1,13(a2)
    5b8a:	00c64883          	lbu	a7,12(a2)
    5b8e:	0322                	slli	t1,t1,0x8
    5b90:	01136333          	or	t1,t1,a7
    5b94:	00e64883          	lbu	a7,14(a2)
    5b98:	08c2                	slli	a7,a7,0x10
    5b9a:	0068e333          	or	t1,a7,t1
    5b9e:	00f64883          	lbu	a7,15(a2)
    5ba2:	08e2                	slli	a7,a7,0x18
    5ba4:	0068e8b3          	or	a7,a7,t1
    5ba8:	00452303          	lw	t1,4(a0) # e0000004 <_eusrstack+0xbfff0004>
    5bac:	09131463          	bne	t1,a7,5c34 <tcp_input+0x3a0>
    5bb0:	01164303          	lbu	t1,17(a2)
    5bb4:	01064883          	lbu	a7,16(a2)
    5bb8:	0322                	slli	t1,t1,0x8
    5bba:	01136333          	or	t1,t1,a7
    5bbe:	01264883          	lbu	a7,18(a2)
    5bc2:	08c2                	slli	a7,a7,0x10
    5bc4:	0068e333          	or	t1,a7,t1
    5bc8:	01364883          	lbu	a7,19(a2)
    5bcc:	08e2                	slli	a7,a7,0x18
    5bce:	0068e8b3          	or	a7,a7,t1
    5bd2:	00052303          	lw	t1,0(a0)
    5bd6:	05131f63          	bne	t1,a7,5c34 <tcp_input+0x3a0>
    5bda:	00487693          	andi	a3,a6,4
    5bde:	d00698e3          	bnez	a3,58ee <tcp_input+0x5a>
    5be2:	00287693          	andi	a3,a6,2
    5be6:	c68d                	beqz	a3,5c10 <tcp_input+0x37c>
    5be8:	000aa803          	lw	a6,0(s5)
    5bec:	5514                	lw	a3,40(a0)
    5bee:	40d806b3          	sub	a3,a6,a3
    5bf2:	0206c663          	bltz	a3,5c1e <tcp_input+0x38a>
    5bf6:	02c55883          	lhu	a7,44(a0)
    5bfa:	411686b3          	sub	a3,a3,a7
    5bfe:	02d04063          	bgtz	a3,5c1e <tcp_input+0x38a>
    5c02:	00c60693          	addi	a3,a2,12
    5c06:	95c2                	add	a1,a1,a6
    5c08:	0641                	addi	a2,a2,16
    5c0a:	00092503          	lw	a0,0(s2)
    5c0e:	a8f1                	j	5cea <tcp_input+0x456>
    5c10:	00187813          	andi	a6,a6,1
    5c14:	00080563          	beqz	a6,5c1e <tcp_input+0x38a>
    5c18:	90c1a783          	lw	a5,-1780(gp) # 2000017c <tcp_ticks>
    5c1c:	dd1c                	sw	a5,56(a0)
    5c1e:	cc0588e3          	beqz	a1,58ee <tcp_input+0x5a>
    5c22:	02654783          	lbu	a5,38(a0)
    5c26:	0027e793          	ori	a5,a5,2
    5c2a:	02f50323          	sb	a5,38(a0)
    5c2e:	3df000ef          	jal	ra,680c <tcp_output>
    5c32:	b975                	j	58ee <tcp_input+0x5a>
    5c34:	4548                	lw	a0,12(a0)
    5c36:	f905                	bnez	a0,5b66 <tcp_input+0x2d2>
    5c38:	9081a303          	lw	t1,-1784(gp) # 20000178 <tcp_listen_pcbs>
    5c3c:	8e3e                	mv	t3,a5
    5c3e:	8a1a                	mv	s4,t1
    5c40:	040a1363          	bnez	s4,5c86 <tcp_input+0x3f2>
    5c44:	36dc                	lbu	a5,13(a3)
    5c46:	26c8                	lbu	a0,12(a3)
    5c48:	07a2                	slli	a5,a5,0x8
    5c4a:	8d5d                	or	a0,a0,a5
    5c4c:	848fd0ef          	jal	ra,2c94 <ntohs>
    5c50:	8911                	andi	a0,a0,4
    5c52:	c8051ee3          	bnez	a0,58ee <tcp_input+0x5a>
    5c56:	4094                	lw	a3,0(s1)
    5c58:	000b2603          	lw	a2,0(s6)
    5c5c:	000c5503          	lhu	a0,0(s8)
    5c60:	329c                	lbu	a5,1(a3)
    5c62:	32b8                	lbu	a4,3(a3)
    5c64:	0006c883          	lbu	a7,0(a3)
    5c68:	0026c803          	lbu	a6,2(a3)
    5c6c:	000aa583          	lw	a1,0(s5)
    5c70:	07a2                	slli	a5,a5,0x8
    5c72:	0722                	slli	a4,a4,0x8
    5c74:	00c60693          	addi	a3,a2,12
    5c78:	0117e7b3          	or	a5,a5,a7
    5c7c:	01076733          	or	a4,a4,a6
    5c80:	0641                	addi	a2,a2,16
    5c82:	95aa                	add	a1,a1,a0
    5c84:	b759                	j	5c0a <tcp_input+0x376>
    5c86:	000a2883          	lw	a7,0(s4)
    5c8a:	00088e63          	beqz	a7,5ca6 <tcp_input+0x412>
    5c8e:	3a18                	lbu	a4,17(a2)
    5c90:	2a1c                	lbu	a5,16(a2)
    5c92:	0722                	slli	a4,a4,0x8
    5c94:	8f5d                	or	a4,a4,a5
    5c96:	2a3c                	lbu	a5,18(a2)
    5c98:	07c2                	slli	a5,a5,0x10
    5c9a:	8f5d                	or	a4,a4,a5
    5c9c:	3a3c                	lbu	a5,19(a2)
    5c9e:	07e2                	slli	a5,a5,0x18
    5ca0:	8fd9                	or	a5,a5,a4
    5ca2:	12f89e63          	bne	a7,a5,5dde <tcp_input+0x54a>
    5ca6:	32b8                	lbu	a4,3(a3)
    5ca8:	22bc                	lbu	a5,2(a3)
    5caa:	0722                	slli	a4,a4,0x8
    5cac:	8f5d                	or	a4,a4,a5
    5cae:	01ca5783          	lhu	a5,28(s4)
    5cb2:	12e79663          	bne	a5,a4,5dde <tcp_input+0x54a>
    5cb6:	c901                	beqz	a0,5cc6 <tcp_input+0x432>
    5cb8:	00ca2783          	lw	a5,12(s4)
    5cbc:	9141a423          	sw	s4,-1784(gp) # 20000178 <tcp_listen_pcbs>
    5cc0:	c55c                	sw	a5,12(a0)
    5cc2:	006a2623          	sw	t1,12(s4)
    5cc6:	01087793          	andi	a5,a6,16
    5cca:	c39d                	beqz	a5,5cf0 <tcp_input+0x45c>
    5ccc:	329c                	lbu	a5,1(a3)
    5cce:	0006c883          	lbu	a7,0(a3)
    5cd2:	000aa803          	lw	a6,0(s5)
    5cd6:	00092503          	lw	a0,0(s2)
    5cda:	07a2                	slli	a5,a5,0x8
    5cdc:	00c60693          	addi	a3,a2,12
    5ce0:	0117e7b3          	or	a5,a5,a7
    5ce4:	0641                	addi	a2,a2,16
    5ce6:	95c2                	add	a1,a1,a6
    5ce8:	0505                	addi	a0,a0,1
    5cea:	68b000ef          	jal	ra,6b74 <tcp_rst>
    5cee:	b101                	j	58ee <tcp_input+0x5a>
    5cf0:	00287813          	andi	a6,a6,2
    5cf4:	be080de3          	beqz	a6,58ee <tcp_input+0x5a>
    5cf8:	014a4503          	lbu	a0,20(s4)
    5cfc:	f91fe0ef          	jal	ra,4c8c <tcp_alloc>
    5d00:	842a                	mv	s0,a0
    5d02:	be0506e3          	beqz	a0,58ee <tcp_input+0x5a>
    5d06:	000b2783          	lw	a5,0(s6)
    5d0a:	4701                	li	a4,0
    5d0c:	01078693          	addi	a3,a5,16
    5d10:	ca99                	beqz	a3,5d26 <tcp_input+0x492>
    5d12:	3b94                	lbu	a3,17(a5)
    5d14:	2b98                	lbu	a4,16(a5)
    5d16:	06a2                	slli	a3,a3,0x8
    5d18:	8ed9                	or	a3,a3,a4
    5d1a:	2bb8                	lbu	a4,18(a5)
    5d1c:	0742                	slli	a4,a4,0x10
    5d1e:	8ed9                	or	a3,a3,a4
    5d20:	3bb8                	lbu	a4,19(a5)
    5d22:	0762                	slli	a4,a4,0x18
    5d24:	8f55                	or	a4,a4,a3
    5d26:	c018                	sw	a4,0(s0)
    5d28:	01ca5703          	lhu	a4,28(s4)
    5d2c:	00c78693          	addi	a3,a5,12
    5d30:	ac5a                	sh	a4,28(s0)
    5d32:	4701                	li	a4,0
    5d34:	ca99                	beqz	a3,5d4a <tcp_input+0x4b6>
    5d36:	37d4                	lbu	a3,13(a5)
    5d38:	27d8                	lbu	a4,12(a5)
    5d3a:	06a2                	slli	a3,a3,0x8
    5d3c:	8ed9                	or	a3,a3,a4
    5d3e:	27f8                	lbu	a4,14(a5)
    5d40:	0742                	slli	a4,a4,0x10
    5d42:	8ed9                	or	a3,a3,a4
    5d44:	37f8                	lbu	a4,15(a5)
    5d46:	0762                	slli	a4,a4,0x18
    5d48:	8f55                	or	a4,a4,a3
    5d4a:	4094                	lw	a3,0(s1)
    5d4c:	c058                	sw	a4,4(s0)
    5d4e:	04040513          	addi	a0,s0,64
    5d52:	329c                	lbu	a5,1(a3)
    5d54:	2298                	lbu	a4,0(a3)
    5d56:	07a2                	slli	a5,a5,0x8
    5d58:	8fd9                	or	a5,a5,a4
    5d5a:	000aa703          	lw	a4,0(s5)
    5d5e:	b05e                	sh	a5,36(s0)
    5d60:	478d                	li	a5,3
    5d62:	c81c                	sw	a5,16(s0)
    5d64:	00170793          	addi	a5,a4,1
    5d68:	d41c                	sw	a5,40(s0)
    5d6a:	d81c                	sw	a5,48(s0)
    5d6c:	36fc                	lbu	a5,15(a3)
    5d6e:	26f0                	lbu	a2,14(a3)
    5d70:	177d                	addi	a4,a4,-1
    5d72:	07a2                	slli	a5,a5,0x8
    5d74:	8fd1                	or	a5,a5,a2
    5d76:	06f41223          	sh	a5,100(s0)
    5d7a:	04f41e23          	sh	a5,92(s0)
    5d7e:	018a2783          	lw	a5,24(s4)
    5d82:	d438                	sw	a4,104(s0)
    5d84:	cc1c                	sw	a5,24(s0)
    5d86:	200047b7          	lui	a5,0x20004
    5d8a:	2407d783          	lhu	a5,576(a5) # 20004240 <WCHCfg+0x4>
    5d8e:	b45e                	sh	a5,44(s0)
    5d90:	b47e                	sh	a5,46(s0)
    5d92:	020a2783          	lw	a5,32(s4)
    5d96:	d01c                	sw	a5,32(s0)
    5d98:	008a5783          	lhu	a5,8(s4)
    5d9c:	1997f793          	andi	a5,a5,409
    5da0:	a41e                	sh	a5,8(s0)
    5da2:	9001a783          	lw	a5,-1792(gp) # 20000170 <tcp_active_pcbs>
    5da6:	9081a023          	sw	s0,-1792(gp) # 20000170 <tcp_active_pcbs>
    5daa:	c45c                	sw	a5,12(s0)
    5dac:	a43ff0ef          	jal	ra,57ee <tcp_parseopt.isra.0>
    5db0:	04045503          	lhu	a0,64(s0)
    5db4:	00440593          	addi	a1,s0,4
    5db8:	818ff0ef          	jal	ra,4dd0 <tcp_eff_send_mss>
    5dbc:	04a41023          	sh	a0,64(s0)
    5dc0:	4785                	li	a5,1
    5dc2:	4701                	li	a4,0
    5dc4:	46c9                	li	a3,18
    5dc6:	4601                	li	a2,0
    5dc8:	4581                	li	a1,0
    5dca:	8522                	mv	a0,s0
    5dcc:	2b8d                	jal	633e <tcp_enqueue>
    5dce:	c511                	beqz	a0,5dda <tcp_input+0x546>
    5dd0:	4581                	li	a1,0
    5dd2:	8522                	mv	a0,s0
    5dd4:	e0ffe0ef          	jal	ra,4be2 <tcp_abandon>
    5dd8:	be19                	j	58ee <tcp_input+0x5a>
    5dda:	8522                	mv	a0,s0
    5ddc:	bd89                	j	5c2e <tcp_input+0x39a>
    5dde:	8552                	mv	a0,s4
    5de0:	00ca2a03          	lw	s4,12(s4)
    5de4:	bdb1                	j	5c40 <tcp_input+0x3ac>
    5de6:	4501                	li	a0,0
    5de8:	ccbfe0ef          	jal	ra,4ab2 <tcp_recv_null>
    5dec:	b33d                	j	5b1a <tcp_input+0x286>
    5dee:	000aa783          	lw	a5,0(s5)
    5df2:	5418                	lw	a4,40(s0)
    5df4:	8f99                	sub	a5,a5,a4
    5df6:	0007c663          	bltz	a5,5e02 <tcp_input+0x56e>
    5dfa:	345a                	lhu	a4,44(s0)
    5dfc:	8f99                	sub	a5,a5,a4
    5dfe:	d4f055e3          	blez	a5,5b48 <tcp_input+0x2b4>
    5e02:	000a4783          	lbu	a5,0(s4)
    5e06:	0087f713          	andi	a4,a5,8
    5e0a:	3e070063          	beqz	a4,61ea <tcp_input+0x956>
    5e0e:	00f10593          	addi	a1,sp,15
    5e12:	8522                	mv	a0,s0
    5e14:	f63fb0ef          	jal	ra,1d76 <WCHFindCorrectTCBPcb>
    5e18:	4785                	li	a5,1
    5e1a:	00f51663          	bne	a0,a5,5e26 <tcp_input+0x592>
    5e1e:	4818                	lw	a4,16(s0)
    5e20:	4789                	li	a5,2
    5e22:	1cf70163          	beq	a4,a5,5fe4 <tcp_input+0x750>
    5e26:	8522                	mv	a0,s0
    5e28:	bc6fc0ef          	jal	ra,21ee <LwipRemoveTcpPcb>
    5e2c:	09c42783          	lw	a5,156(s0)
    5e30:	c781                	beqz	a5,5e38 <tcp_input+0x5a4>
    5e32:	4c08                	lw	a0,24(s0)
    5e34:	55e9                	li	a1,-6
    5e36:	9782                	jalr	a5
    5e38:	85a2                	mv	a1,s0
    5e3a:	90018513          	addi	a0,gp,-1792 # 20000170 <tcp_active_pcbs>
    5e3e:	b51fe0ef          	jal	ra,498e <tcp_pcb_remove>
    5e42:	85a2                	mv	a1,s0
    5e44:	4509                	li	a0,2
    5e46:	856fe0ef          	jal	ra,3e9c <memp_free>
    5e4a:	aa69                	j	5fe4 <tcp_input+0x750>
    5e4c:	8b89                	andi	a5,a5,2
    5e4e:	c385                	beqz	a5,5e6e <tcp_input+0x5da>
    5e50:	481c                	lw	a5,16(s0)
    5e52:	4705                	li	a4,1
    5e54:	17f9                	addi	a5,a5,-2
    5e56:	00f77c63          	bgeu	a4,a5,5e6e <tcp_input+0x5da>
    5e5a:	02644783          	lbu	a5,38(s0)
    5e5e:	8522                	mv	a0,s0
    5e60:	0027e793          	ori	a5,a5,2
    5e64:	02f40323          	sb	a5,38(s0)
    5e68:	1a5000ef          	jal	ra,680c <tcp_output>
    5e6c:	bf59                	j	5e02 <tcp_input+0x56e>
    5e6e:	90c1a783          	lw	a5,-1780(gp) # 2000017c <tcp_ticks>
    5e72:	0a0408a3          	sb	zero,177(s0)
    5e76:	04040513          	addi	a0,s0,64
    5e7a:	dc1c                	sw	a5,56(s0)
    5e7c:	973ff0ef          	jal	ra,57ee <tcp_parseopt.isra.0>
    5e80:	481c                	lw	a5,16(s0)
    5e82:	471d                	li	a4,7
    5e84:	17f9                	addi	a5,a5,-2
    5e86:	f6f76ee3          	bltu	a4,a5,5e02 <tcp_input+0x56e>
    5e8a:	6725                	lui	a4,0x9
    5e8c:	078a                	slli	a5,a5,0x2
    5e8e:	db870713          	addi	a4,a4,-584 # 8db8 <tcp_backoff+0x10>
    5e92:	97ba                	add	a5,a5,a4
    5e94:	439c                	lw	a5,0(a5)
    5e96:	8782                	jr	a5
    5e98:	000cc783          	lbu	a5,0(s9)
    5e9c:	4749                	li	a4,18
    5e9e:	8bc9                	andi	a5,a5,18
    5ea0:	0ce79263          	bne	a5,a4,5f64 <tcp_input+0x6d0>
    5ea4:	08042783          	lw	a5,128(s0)
    5ea8:	4b98                	lw	a4,16(a5)
    5eaa:	3348                	lbu	a0,5(a4)
    5eac:	235c                	lbu	a5,4(a4)
    5eae:	0522                	slli	a0,a0,0x8
    5eb0:	8d5d                	or	a0,a0,a5
    5eb2:	237c                	lbu	a5,6(a4)
    5eb4:	07c2                	slli	a5,a5,0x10
    5eb6:	8fc9                	or	a5,a5,a0
    5eb8:	3368                	lbu	a0,7(a4)
    5eba:	0562                	slli	a0,a0,0x18
    5ebc:	8d5d                	or	a0,a0,a5
    5ebe:	e09fc0ef          	jal	ra,2cc6 <ntohl>
    5ec2:	00092783          	lw	a5,0(s2)
    5ec6:	0505                	addi	a0,a0,1
    5ec8:	08f51e63          	bne	a0,a5,5f64 <tcp_input+0x6d0>
    5ecc:	07645783          	lhu	a5,118(s0)
    5ed0:	000aa703          	lw	a4,0(s5)
    5ed4:	4094                	lw	a3,0(s1)
    5ed6:	0785                	addi	a5,a5,1
    5ed8:	06f41b23          	sh	a5,118(s0)
    5edc:	00170793          	addi	a5,a4,1
    5ee0:	c868                	sw	a0,84(s0)
    5ee2:	d41c                	sw	a5,40(s0)
    5ee4:	d81c                	sw	a5,48(s0)
    5ee6:	36fc                	lbu	a5,15(a3)
    5ee8:	26f0                	lbu	a2,14(a3)
    5eea:	04045503          	lhu	a0,64(s0)
    5eee:	07a2                	slli	a5,a5,0x8
    5ef0:	8fd1                	or	a5,a5,a2
    5ef2:	177d                	addi	a4,a4,-1
    5ef4:	06f41223          	sh	a5,100(s0)
    5ef8:	4791                	li	a5,4
    5efa:	d438                	sw	a4,104(s0)
    5efc:	c81c                	sw	a5,16(s0)
    5efe:	00440593          	addi	a1,s0,4
    5f02:	ecffe0ef          	jal	ra,4dd0 <tcp_eff_send_mss>
    5f06:	47a9                	li	a5,10
    5f08:	02f507b3          	mul	a5,a0,a5
    5f0c:	05a45703          	lhu	a4,90(s0)
    5f10:	04a41023          	sh	a0,64(s0)
    5f14:	04f41e23          	sh	a5,92(s0)
    5f18:	4785                	li	a5,1
    5f1a:	00f71563          	bne	a4,a5,5f24 <tcp_input+0x690>
    5f1e:	0506                	slli	a0,a0,0x1
    5f20:	0542                	slli	a0,a0,0x10
    5f22:	8141                	srli	a0,a0,0x10
    5f24:	07845783          	lhu	a5,120(s0)
    5f28:	04a41d23          	sh	a0,90(s0)
    5f2c:	08042503          	lw	a0,128(s0)
    5f30:	17fd                	addi	a5,a5,-1
    5f32:	06f41c23          	sh	a5,120(s0)
    5f36:	411c                	lw	a5,0(a0)
    5f38:	04040923          	sb	zero,82(s0)
    5f3c:	04042223          	sw	zero,68(s0)
    5f40:	08f42023          	sw	a5,128(s0)
    5f44:	0017b793          	seqz	a5,a5
    5f48:	40f007b3          	neg	a5,a5
    5f4c:	bc7e                	sh	a5,62(s0)
    5f4e:	ebefe0ef          	jal	ra,460c <tcp_seg_free>
    5f52:	09442783          	lw	a5,148(s0)
    5f56:	f00782e3          	beqz	a5,5e5a <tcp_input+0x5c6>
    5f5a:	4c08                	lw	a0,24(s0)
    5f5c:	4601                	li	a2,0
    5f5e:	85a2                	mv	a1,s0
    5f60:	9782                	jalr	a5
    5f62:	bde5                	j	5e5a <tcp_input+0x5c6>
    5f64:	000cc783          	lbu	a5,0(s9)
    5f68:	8bc1                	andi	a5,a5,16
    5f6a:	e8078ce3          	beqz	a5,5e02 <tcp_input+0x56e>
    5f6e:	4094                	lw	a3,0(s1)
    5f70:	000c5503          	lhu	a0,0(s8)
    5f74:	000aa583          	lw	a1,0(s5)
    5f78:	329c                	lbu	a5,1(a3)
    5f7a:	32b8                	lbu	a4,3(a3)
    5f7c:	000b2603          	lw	a2,0(s6)
    5f80:	0006c883          	lbu	a7,0(a3)
    5f84:	0026c803          	lbu	a6,2(a3)
    5f88:	95aa                	add	a1,a1,a0
    5f8a:	00092503          	lw	a0,0(s2)
    5f8e:	07a2                	slli	a5,a5,0x8
    5f90:	0722                	slli	a4,a4,0x8
    5f92:	00c60693          	addi	a3,a2,12
    5f96:	0117e7b3          	or	a5,a5,a7
    5f9a:	01076733          	or	a4,a4,a6
    5f9e:	0641                	addi	a2,a2,16
    5fa0:	3d5000ef          	jal	ra,6b74 <tcp_rst>
    5fa4:	bdb9                	j	5e02 <tcp_input+0x56e>
    5fa6:	000cc783          	lbu	a5,0(s9)
    5faa:	0107f713          	andi	a4,a5,16
    5fae:	c769                	beqz	a4,6078 <tcp_input+0x7e4>
    5fb0:	00092503          	lw	a0,0(s2)
    5fb4:	4878                	lw	a4,84(s0)
    5fb6:	fff50793          	addi	a5,a0,-1
    5fba:	8f99                	sub	a5,a5,a4
    5fbc:	0807c663          	bltz	a5,6048 <tcp_input+0x7b4>
    5fc0:	503c                	lw	a5,96(s0)
    5fc2:	40f507b3          	sub	a5,a0,a5
    5fc6:	08f04163          	bgtz	a5,6048 <tcp_input+0x7b4>
    5fca:	4791                	li	a5,4
    5fcc:	c81c                	sw	a5,16(s0)
    5fce:	501c                	lw	a5,32(s0)
    5fd0:	c78d                	beqz	a5,5ffa <tcp_input+0x766>
    5fd2:	4c08                	lw	a0,24(s0)
    5fd4:	4601                	li	a2,0
    5fd6:	85a2                	mv	a1,s0
    5fd8:	9782                	jalr	a5
    5fda:	c105                	beqz	a0,5ffa <tcp_input+0x766>
    5fdc:	4585                	li	a1,1
    5fde:	8522                	mv	a0,s0
    5fe0:	c03fe0ef          	jal	ra,4be2 <tcp_abandon>
    5fe4:	004da503          	lw	a0,4(s11)
    5fe8:	000ba023          	sw	zero,0(s7)
    5fec:	900504e3          	beqz	a0,58f4 <tcp_input+0x60>
    5ff0:	87efe0ef          	jal	ra,406e <pbuf_free>
    5ff4:	000da223          	sw	zero,4(s11)
    5ff8:	b8f5                	j	58f4 <tcp_input+0x60>
    5ffa:	8522                	mv	a0,s0
    5ffc:	05a45483          	lhu	s1,90(s0)
    6000:	efffe0ef          	jal	ra,4efe <tcp_receive>
    6004:	07445783          	lhu	a5,116(s0)
    6008:	c781                	beqz	a5,6010 <tcp_input+0x77c>
    600a:	17fd                	addi	a5,a5,-1
    600c:	06f41a23          	sh	a5,116(s0)
    6010:	4705                	li	a4,1
    6012:	04045783          	lhu	a5,64(s0)
    6016:	00e49563          	bne	s1,a4,6020 <tcp_input+0x78c>
    601a:	0786                	slli	a5,a5,0x1
    601c:	07c2                	slli	a5,a5,0x10
    601e:	83c1                	srli	a5,a5,0x10
    6020:	04f41d23          	sh	a5,90(s0)
    6024:	000a4783          	lbu	a5,0(s4)
    6028:	0207f793          	andi	a5,a5,32
    602c:	dc078be3          	beqz	a5,5e02 <tcp_input+0x56e>
    6030:	02644783          	lbu	a5,38(s0)
    6034:	8522                	mv	a0,s0
    6036:	0027e793          	ori	a5,a5,2
    603a:	02f40323          	sb	a5,38(s0)
    603e:	7ce000ef          	jal	ra,680c <tcp_output>
    6042:	479d                	li	a5,7
    6044:	c81c                	sw	a5,16(s0)
    6046:	bb75                	j	5e02 <tcp_input+0x56e>
    6048:	4094                	lw	a3,0(s1)
    604a:	000b2603          	lw	a2,0(s6)
    604e:	000c5803          	lhu	a6,0(s8)
    6052:	329c                	lbu	a5,1(a3)
    6054:	32b8                	lbu	a4,3(a3)
    6056:	0006c303          	lbu	t1,0(a3)
    605a:	0026c883          	lbu	a7,2(a3)
    605e:	000aa583          	lw	a1,0(s5)
    6062:	07a2                	slli	a5,a5,0x8
    6064:	0722                	slli	a4,a4,0x8
    6066:	00c60693          	addi	a3,a2,12
    606a:	0067e7b3          	or	a5,a5,t1
    606e:	01176733          	or	a4,a4,a7
    6072:	0641                	addi	a2,a2,16
    6074:	95c2                	add	a1,a1,a6
    6076:	b72d                	j	5fa0 <tcp_input+0x70c>
    6078:	8b89                	andi	a5,a5,2
    607a:	d80784e3          	beqz	a5,5e02 <tcp_input+0x56e>
    607e:	541c                	lw	a5,40(s0)
    6080:	000aa703          	lw	a4,0(s5)
    6084:	17fd                	addi	a5,a5,-1
    6086:	d6e79ee3          	bne	a5,a4,5e02 <tcp_input+0x56e>
    608a:	8522                	mv	a0,s0
    608c:	427000ef          	jal	ra,6cb2 <tcp_rexmit>
    6090:	bb8d                	j	5e02 <tcp_input+0x56e>
    6092:	8522                	mv	a0,s0
    6094:	e6bfe0ef          	jal	ra,4efe <tcp_receive>
    6098:	b771                	j	6024 <tcp_input+0x790>
    609a:	8522                	mv	a0,s0
    609c:	e63fe0ef          	jal	ra,4efe <tcp_receive>
    60a0:	000a4783          	lbu	a5,0(s4)
    60a4:	0207f793          	andi	a5,a5,32
    60a8:	c3c1                	beqz	a5,6128 <tcp_input+0x894>
    60aa:	000cc703          	lbu	a4,0(s9)
    60ae:	02644783          	lbu	a5,38(s0)
    60b2:	8b41                	andi	a4,a4,16
    60b4:	0027e793          	ori	a5,a5,2
    60b8:	c32d                	beqz	a4,611a <tcp_input+0x886>
    60ba:	5034                	lw	a3,96(s0)
    60bc:	00092703          	lw	a4,0(s2)
    60c0:	04e69d63          	bne	a3,a4,611a <tcp_input+0x886>
    60c4:	02f40323          	sb	a5,38(s0)
    60c8:	8522                	mv	a0,s0
    60ca:	742000ef          	jal	ra,680c <tcp_output>
    60ce:	8522                	mv	a0,s0
    60d0:	db6fe0ef          	jal	ra,4686 <tcp_pcb_purge>
    60d4:	9001a783          	lw	a5,-1792(gp) # 20000170 <tcp_active_pcbs>
    60d8:	00f41d63          	bne	s0,a5,60f2 <tcp_input+0x85e>
    60dc:	445c                	lw	a5,12(s0)
    60de:	90f1a023          	sw	a5,-1792(gp) # 20000170 <tcp_active_pcbs>
    60e2:	47a9                	li	a5,10
    60e4:	c81c                	sw	a5,16(s0)
    60e6:	9181a703          	lw	a4,-1768(gp) # 20000188 <tcp_tw_pcbs>
    60ea:	9081ac23          	sw	s0,-1768(gp) # 20000188 <tcp_tw_pcbs>
    60ee:	c458                	sw	a4,12(s0)
    60f0:	bb09                	j	5e02 <tcp_input+0x56e>
    60f2:	90f1aa23          	sw	a5,-1772(gp) # 20000184 <tcp_tmp_pcb>
    60f6:	4681                	li	a3,0
    60f8:	e789                	bnez	a5,6102 <tcp_input+0x86e>
    60fa:	d6e5                	beqz	a3,60e2 <tcp_input+0x84e>
    60fc:	9001aa23          	sw	zero,-1772(gp) # 20000184 <tcp_tmp_pcb>
    6100:	b7cd                	j	60e2 <tcp_input+0x84e>
    6102:	47d0                	lw	a2,12(a5)
    6104:	00c41863          	bne	s0,a2,6114 <tcp_input+0x880>
    6108:	c299                	beqz	a3,610e <tcp_input+0x87a>
    610a:	90f1aa23          	sw	a5,-1772(gp) # 20000184 <tcp_tmp_pcb>
    610e:	4458                	lw	a4,12(s0)
    6110:	c7d8                	sw	a4,12(a5)
    6112:	bfc1                	j	60e2 <tcp_input+0x84e>
    6114:	4685                	li	a3,1
    6116:	87b2                	mv	a5,a2
    6118:	b7c5                	j	60f8 <tcp_input+0x864>
    611a:	02f40323          	sb	a5,38(s0)
    611e:	8522                	mv	a0,s0
    6120:	6ec000ef          	jal	ra,680c <tcp_output>
    6124:	47a1                	li	a5,8
    6126:	bf39                	j	6044 <tcp_input+0x7b0>
    6128:	000cc783          	lbu	a5,0(s9)
    612c:	8bc1                	andi	a5,a5,16
    612e:	cc078ae3          	beqz	a5,5e02 <tcp_input+0x56e>
    6132:	5038                	lw	a4,96(s0)
    6134:	00092783          	lw	a5,0(s2)
    6138:	ccf715e3          	bne	a4,a5,5e02 <tcp_input+0x56e>
    613c:	4799                	li	a5,6
    613e:	b719                	j	6044 <tcp_input+0x7b0>
    6140:	8522                	mv	a0,s0
    6142:	dbdfe0ef          	jal	ra,4efe <tcp_receive>
    6146:	000a4783          	lbu	a5,0(s4)
    614a:	0207f793          	andi	a5,a5,32
    614e:	ca078ae3          	beqz	a5,5e02 <tcp_input+0x56e>
    6152:	02644783          	lbu	a5,38(s0)
    6156:	8522                	mv	a0,s0
    6158:	0027e793          	ori	a5,a5,2
    615c:	02f40323          	sb	a5,38(s0)
    6160:	6ac000ef          	jal	ra,680c <tcp_output>
    6164:	8522                	mv	a0,s0
    6166:	d20fe0ef          	jal	ra,4686 <tcp_pcb_purge>
    616a:	9001a783          	lw	a5,-1792(gp) # 20000170 <tcp_active_pcbs>
    616e:	f6f407e3          	beq	s0,a5,60dc <tcp_input+0x848>
    6172:	90f1aa23          	sw	a5,-1772(gp) # 20000184 <tcp_tmp_pcb>
    6176:	4681                	li	a3,0
    6178:	d3c9                	beqz	a5,60fa <tcp_input+0x866>
    617a:	47d0                	lw	a2,12(a5)
    617c:	f8c406e3          	beq	s0,a2,6108 <tcp_input+0x874>
    6180:	4685                	li	a3,1
    6182:	87b2                	mv	a5,a2
    6184:	bfd5                	j	6178 <tcp_input+0x8e4>
    6186:	8522                	mv	a0,s0
    6188:	d77fe0ef          	jal	ra,4efe <tcp_receive>
    618c:	000cc783          	lbu	a5,0(s9)
    6190:	8bc1                	andi	a5,a5,16
    6192:	c60788e3          	beqz	a5,5e02 <tcp_input+0x56e>
    6196:	5038                	lw	a4,96(s0)
    6198:	00092783          	lw	a5,0(s2)
    619c:	c6f713e3          	bne	a4,a5,5e02 <tcp_input+0x56e>
    61a0:	8522                	mv	a0,s0
    61a2:	ce4fe0ef          	jal	ra,4686 <tcp_pcb_purge>
    61a6:	9001a783          	lw	a5,-1792(gp) # 20000170 <tcp_active_pcbs>
    61aa:	f2f409e3          	beq	s0,a5,60dc <tcp_input+0x848>
    61ae:	90f1aa23          	sw	a5,-1772(gp) # 20000184 <tcp_tmp_pcb>
    61b2:	4681                	li	a3,0
    61b4:	d3b9                	beqz	a5,60fa <tcp_input+0x866>
    61b6:	47d0                	lw	a2,12(a5)
    61b8:	f4c408e3          	beq	s0,a2,6108 <tcp_input+0x874>
    61bc:	4685                	li	a3,1
    61be:	87b2                	mv	a5,a2
    61c0:	bfd5                	j	61b4 <tcp_input+0x920>
    61c2:	8522                	mv	a0,s0
    61c4:	d3bfe0ef          	jal	ra,4efe <tcp_receive>
    61c8:	000cc783          	lbu	a5,0(s9)
    61cc:	8bc1                	andi	a5,a5,16
    61ce:	c2078ae3          	beqz	a5,5e02 <tcp_input+0x56e>
    61d2:	5038                	lw	a4,96(s0)
    61d4:	00092783          	lw	a5,0(s2)
    61d8:	c2f715e3          	bne	a4,a5,5e02 <tcp_input+0x56e>
    61dc:	000a4783          	lbu	a5,0(s4)
    61e0:	0107e793          	ori	a5,a5,16
    61e4:	00fa0023          	sb	a5,0(s4)
    61e8:	b929                	j	5e02 <tcp_input+0x56e>
    61ea:	8bc1                	andi	a5,a5,16
    61ec:	c789                	beqz	a5,61f6 <tcp_input+0x962>
    61ee:	8522                	mv	a0,s0
    61f0:	ffffb0ef          	jal	ra,21ee <LwipRemoveTcpPcb>
    61f4:	b191                	j	5e38 <tcp_input+0x5a4>
    61f6:	07445603          	lhu	a2,116(s0)
    61fa:	c619                	beqz	a2,6208 <tcp_input+0x974>
    61fc:	08c42783          	lw	a5,140(s0)
    6200:	c781                	beqz	a5,6208 <tcp_input+0x974>
    6202:	4c08                	lw	a0,24(s0)
    6204:	85a2                	mv	a1,s0
    6206:	9782                	jalr	a5
    6208:	000d2603          	lw	a2,0(s10)
    620c:	c60d                	beqz	a2,6236 <tcp_input+0x9a2>
    620e:	000cc783          	lbu	a5,0(s9)
    6212:	8ba1                	andi	a5,a5,8
    6214:	c789                	beqz	a5,621e <tcp_input+0x98a>
    6216:	365c                	lbu	a5,13(a2)
    6218:	0017e793          	ori	a5,a5,1
    621c:	b65c                	sb	a5,13(a2)
    621e:	09042783          	lw	a5,144(s0)
    6222:	4681                	li	a3,0
    6224:	85a2                	mv	a1,s0
    6226:	cb95                	beqz	a5,625a <tcp_input+0x9c6>
    6228:	4c08                	lw	a0,24(s0)
    622a:	9782                	jalr	a5
    622c:	c509                	beqz	a0,6236 <tcp_input+0x9a2>
    622e:	000d2783          	lw	a5,0(s10)
    6232:	08f42423          	sw	a5,136(s0)
    6236:	000a4783          	lbu	a5,0(s4)
    623a:	0207f793          	andi	a5,a5,32
    623e:	cb89                	beqz	a5,6250 <tcp_input+0x9bc>
    6240:	09042783          	lw	a5,144(s0)
    6244:	4681                	li	a3,0
    6246:	4601                	li	a2,0
    6248:	85a2                	mv	a1,s0
    624a:	cf81                	beqz	a5,6262 <tcp_input+0x9ce>
    624c:	4c08                	lw	a0,24(s0)
    624e:	9782                	jalr	a5
    6250:	8522                	mv	a0,s0
    6252:	000ba023          	sw	zero,0(s7)
    6256:	2b5d                	jal	680c <tcp_output>
    6258:	b371                	j	5fe4 <tcp_input+0x750>
    625a:	4501                	li	a0,0
    625c:	857fe0ef          	jal	ra,4ab2 <tcp_recv_null>
    6260:	b7f1                	j	622c <tcp_input+0x998>
    6262:	4501                	li	a0,0
    6264:	84ffe0ef          	jal	ra,4ab2 <tcp_recv_null>
    6268:	b7e5                	j	6250 <tcp_input+0x9bc>

0000626a <tcp_output_set_header.isra.0.constprop.1>:
    626a:	f07f92ef          	jal	t0,170 <__riscv_save_0>
    626e:	892a                	mv	s2,a0
    6270:	2d4a                	lhu	a0,28(a0)
    6272:	1141                	addi	sp,sp,-16
    6274:	842e                	mv	s0,a1
    6276:	c632                	sw	a2,12(sp)
    6278:	a0ffc0ef          	jal	ra,2c86 <htons>
    627c:	a008                	sb	a0,0(s0)
    627e:	8121                	srli	a0,a0,0x8
    6280:	b008                	sb	a0,1(s0)
    6282:	02495503          	lhu	a0,36(s2)
    6286:	a01fc0ef          	jal	ra,2c86 <htons>
    628a:	4632                	lw	a2,12(sp)
    628c:	a028                	sb	a0,2(s0)
    628e:	8121                	srli	a0,a0,0x8
    6290:	b028                	sb	a0,3(s0)
    6292:	00865793          	srli	a5,a2,0x8
    6296:	02892503          	lw	a0,40(s2)
    629a:	a050                	sb	a2,4(s0)
    629c:	b05c                	sb	a5,5(s0)
    629e:	01065793          	srli	a5,a2,0x10
    62a2:	8261                	srli	a2,a2,0x18
    62a4:	b070                	sb	a2,7(s0)
    62a6:	a07c                	sb	a5,6(s0)
    62a8:	9fbfc0ef          	jal	ra,2ca2 <htonl>
    62ac:	00855793          	srli	a5,a0,0x8
    62b0:	a408                	sb	a0,8(s0)
    62b2:	b41c                	sb	a5,9(s0)
    62b4:	3444                	lbu	s1,13(s0)
    62b6:	01055793          	srli	a5,a0,0x10
    62ba:	8161                	srli	a0,a0,0x18
    62bc:	b428                	sb	a0,11(s0)
    62be:	2448                	lbu	a0,12(s0)
    62c0:	04a2                	slli	s1,s1,0x8
    62c2:	a43c                	sb	a5,10(s0)
    62c4:	8cc9                	or	s1,s1,a0
    62c6:	6541                	lui	a0,0x10
    62c8:	fc050513          	addi	a0,a0,-64 # ffc0 <_data_lma+0x714c>
    62cc:	9bbfc0ef          	jal	ra,2c86 <htons>
    62d0:	8ce9                	and	s1,s1,a0
    62d2:	4541                	li	a0,16
    62d4:	9b3fc0ef          	jal	ra,2c86 <htons>
    62d8:	8d45                	or	a0,a0,s1
    62da:	0542                	slli	a0,a0,0x10
    62dc:	8141                	srli	a0,a0,0x10
    62de:	a448                	sb	a0,12(s0)
    62e0:	8121                	srli	a0,a0,0x8
    62e2:	b448                	sb	a0,13(s0)
    62e4:	02e95503          	lhu	a0,46(s2)
    62e8:	99ffc0ef          	jal	ra,2c86 <htons>
    62ec:	02e95783          	lhu	a5,46(s2)
    62f0:	a468                	sb	a0,14(s0)
    62f2:	8121                	srli	a0,a0,0x8
    62f4:	b468                	sb	a0,15(s0)
    62f6:	02f91b23          	sh	a5,54(s2)
    62fa:	345c                	lbu	a5,13(s0)
    62fc:	2448                	lbu	a0,12(s0)
    62fe:	00040923          	sb	zero,18(s0)
    6302:	07a2                	slli	a5,a5,0x8
    6304:	000409a3          	sb	zero,19(s0)
    6308:	8d5d                	or	a0,a0,a5
    630a:	98bfc0ef          	jal	ra,2c94 <ntohs>
    630e:	6795                	lui	a5,0x5
    6310:	03f57513          	andi	a0,a0,63
    6314:	8d5d                	or	a0,a0,a5
    6316:	971fc0ef          	jal	ra,2c86 <htons>
    631a:	02e95703          	lhu	a4,46(s2)
    631e:	02892783          	lw	a5,40(s2)
    6322:	a448                	sb	a0,12(s0)
    6324:	8121                	srli	a0,a0,0x8
    6326:	b448                	sb	a0,13(s0)
    6328:	00040823          	sb	zero,16(s0)
    632c:	000408a3          	sb	zero,17(s0)
    6330:	97ba                	add	a5,a5,a4
    6332:	02f92823          	sw	a5,48(s2)
    6336:	8522                	mv	a0,s0
    6338:	0141                	addi	sp,sp,16
    633a:	e5bf906f          	j	194 <__riscv_restore_0>

0000633e <tcp_enqueue>:
    633e:	e03f92ef          	jal	t0,140 <__riscv_save_12>
    6342:	7179                	addi	sp,sp,-48
    6344:	c62e                	sw	a1,12(sp)
    6346:	ca3a                	sw	a4,20(sp)
    6348:	892a                	mv	s2,a0
    634a:	8ab2                	mv	s5,a2
    634c:	8b36                	mv	s6,a3
    634e:	8dbe                	mv	s11,a5
    6350:	ee01                	bnez	a2,6368 <tcp_enqueue+0x2a>
    6352:	0036f793          	andi	a5,a3,3
    6356:	00fde7b3          	or	a5,s11,a5
    635a:	5a59                	li	s4,-10
    635c:	c391                	beqz	a5,6360 <tcp_enqueue+0x22>
    635e:	c18d                	beqz	a1,6380 <tcp_enqueue+0x42>
    6360:	8552                	mv	a0,s4
    6362:	6145                	addi	sp,sp,48
    6364:	e19f906f          	j	17c <__riscv_restore_12>
    6368:	07655783          	lhu	a5,118(a0)
    636c:	00c7fa63          	bgeu	a5,a2,6380 <tcp_enqueue+0x42>
    6370:	02694783          	lbu	a5,38(s2)
    6374:	5a7d                	li	s4,-1
    6376:	f807e793          	ori	a5,a5,-128
    637a:	02f90323          	sb	a5,38(s2)
    637e:	b7cd                	j	6360 <tcp_enqueue+0x22>
    6380:	002d9793          	slli	a5,s11,0x2
    6384:	002df713          	andi	a4,s11,2
    6388:	8b91                	andi	a5,a5,4
    638a:	46b1                	li	a3,12
    638c:	e311                	bnez	a4,6390 <tcp_enqueue+0x52>
    638e:	4681                	li	a3,0
    6390:	97b6                	add	a5,a5,a3
    6392:	c23e                	sw	a5,4(sp)
    6394:	07092783          	lw	a5,112(s2)
    6398:	20004d37          	lui	s10,0x20004
    639c:	23cd0713          	addi	a4,s10,572 # 2000423c <WCHCfg>
    63a0:	c43e                	sw	a5,8(sp)
    63a2:	471c                	lw	a5,8(a4)
    63a4:	4358                	lw	a4,4(a4)
    63a6:	07895483          	lhu	s1,120(s2)
    63aa:	078a                	slli	a5,a5,0x2
    63ac:	02e7d7b3          	divu	a5,a5,a4
    63b0:	23cd0d13          	addi	s10,s10,572
    63b4:	faf4fee3          	bgeu	s1,a5,6370 <tcp_enqueue+0x32>
    63b8:	6741                	lui	a4,0x10
    63ba:	ffc70693          	addi	a3,a4,-4 # fffc <_data_lma+0x7188>
    63be:	fa96e9e3          	bltu	a3,s1,6370 <tcp_enqueue+0x32>
    63c2:	4792                	lw	a5,4(sp)
    63c4:	8230                	lhu	a2,4(sp)
    63c6:	fc070713          	addi	a4,a4,-64
    63ca:	8389                	srli	a5,a5,0x2
    63cc:	0ff7f793          	andi	a5,a5,255
    63d0:	0795                	addi	a5,a5,5
    63d2:	c832                	sw	a2,16(sp)
    63d4:	4652                	lw	a2,20(sp)
    63d6:	07b2                	slli	a5,a5,0xc
    63d8:	07c2                	slli	a5,a5,0x10
    63da:	d23a                	sw	a4,36(sp)
    63dc:	4cb2                	lw	s9,12(sp)
    63de:	010b1713          	slli	a4,s6,0x10
    63e2:	83c1                	srli	a5,a5,0x10
    63e4:	8a05                	andi	a2,a2,1
    63e6:	8341                	srli	a4,a4,0x10
    63e8:	cc3e                	sw	a5,24(sp)
    63ea:	8bd6                	mv	s7,s5
    63ec:	4981                	li	s3,0
    63ee:	4781                	li	a5,0
    63f0:	ce32                	sw	a2,28(sp)
    63f2:	d036                	sw	a3,32(sp)
    63f4:	d43a                	sw	a4,40(sp)
    63f6:	04095a03          	lhu	s4,64(s2)
    63fa:	4712                	lw	a4,4(sp)
    63fc:	40ea0a33          	sub	s4,s4,a4
    6400:	014bd363          	bge	s7,s4,6406 <tcp_enqueue+0xc8>
    6404:	8a5e                	mv	s4,s7
    6406:	4511                	li	a0,4
    6408:	d63e                	sw	a5,44(sp)
    640a:	010a1c13          	slli	s8,s4,0x10
    640e:	a6ffd0ef          	jal	ra,3e7c <memp_malloc>
    6412:	010c5c13          	srli	s8,s8,0x10
    6416:	842a                	mv	s0,a0
    6418:	18050663          	beqz	a0,65a4 <tcp_enqueue+0x266>
    641c:	00052023          	sw	zero,0(a0)
    6420:	00052223          	sw	zero,4(a0)
    6424:	14098463          	beqz	s3,656c <tcp_enqueue+0x22e>
    6428:	57b2                	lw	a5,44(sp)
    642a:	c388                	sw	a0,0(a5)
    642c:	47f2                	lw	a5,28(sp)
    642e:	14078163          	beqz	a5,6570 <tcp_enqueue+0x232>
    6432:	47c2                	lw	a5,16(sp)
    6434:	4601                	li	a2,0
    6436:	4501                	li	a0,0
    6438:	00fc05b3          	add	a1,s8,a5
    643c:	05c2                	slli	a1,a1,0x10
    643e:	81c1                	srli	a1,a1,0x10
    6440:	c7dfd0ef          	jal	ra,40bc <pbuf_alloc>
    6444:	c048                	sw	a0,4(s0)
    6446:	14050f63          	beqz	a0,65a4 <tcp_enqueue+0x266>
    644a:	e0bfd0ef          	jal	ra,4254 <pbuf_clen>
    644e:	47b2                	lw	a5,12(sp)
    6450:	94aa                	add	s1,s1,a0
    6452:	04c2                	slli	s1,s1,0x10
    6454:	80c1                	srli	s1,s1,0x10
    6456:	cf81                	beqz	a5,646e <tcp_enqueue+0x130>
    6458:	405c                	lw	a5,4(s0)
    645a:	85e6                	mv	a1,s9
    645c:	43c8                	lw	a0,4(a5)
    645e:	67c1                	lui	a5,0x10
    6460:	17fd                	addi	a5,a5,-1
    6462:	00fa7633          	and	a2,s4,a5
    6466:	4792                	lw	a5,4(sp)
    6468:	953e                	add	a0,a0,a5
    646a:	3c6010ef          	jal	ra,7830 <memcpy>
    646e:	405c                	lw	a5,4(s0)
    6470:	43dc                	lw	a5,4(a5)
    6472:	c41c                	sw	a5,8(s0)
    6474:	008d2783          	lw	a5,8(s10)
    6478:	004d2703          	lw	a4,4(s10)
    647c:	078a                	slli	a5,a5,0x2
    647e:	02e7d7b3          	divu	a5,a5,a4
    6482:	1297e163          	bltu	a5,s1,65a4 <tcp_enqueue+0x266>
    6486:	5782                	lw	a5,32(sp)
    6488:	1097ee63          	bltu	a5,s1,65a4 <tcp_enqueue+0x266>
    648c:	4048                	lw	a0,4(s0)
    648e:	01841623          	sh	s8,12(s0)
    6492:	45d1                	li	a1,20
    6494:	b6dfd0ef          	jal	ra,4000 <pbuf_header>
    6498:	10051663          	bnez	a0,65a4 <tcp_enqueue+0x266>
    649c:	405c                	lw	a5,4(s0)
    649e:	01c95503          	lhu	a0,28(s2)
    64a2:	418b8bb3          	sub	s7,s7,s8
    64a6:	43dc                	lw	a5,4(a5)
    64a8:	0bc2                	slli	s7,s7,0x10
    64aa:	010bdb93          	srli	s7,s7,0x10
    64ae:	c81c                	sw	a5,16(s0)
    64b0:	d63e                	sw	a5,44(sp)
    64b2:	fd4fc0ef          	jal	ra,2c86 <htons>
    64b6:	57b2                	lw	a5,44(sp)
    64b8:	a388                	sb	a0,0(a5)
    64ba:	8121                	srli	a0,a0,0x8
    64bc:	b388                	sb	a0,1(a5)
    64be:	481c                	lw	a5,16(s0)
    64c0:	02495503          	lhu	a0,36(s2)
    64c4:	d63e                	sw	a5,44(sp)
    64c6:	fc0fc0ef          	jal	ra,2c86 <htons>
    64ca:	57b2                	lw	a5,44(sp)
    64cc:	a3a8                	sb	a0,2(a5)
    64ce:	8121                	srli	a0,a0,0x8
    64d0:	b3a8                	sb	a0,3(a5)
    64d2:	481c                	lw	a5,16(s0)
    64d4:	4522                	lw	a0,8(sp)
    64d6:	d63e                	sw	a5,44(sp)
    64d8:	fcafc0ef          	jal	ra,2ca2 <htonl>
    64dc:	57b2                	lw	a5,44(sp)
    64de:	00855713          	srli	a4,a0,0x8
    64e2:	b3d8                	sb	a4,5(a5)
    64e4:	01055713          	srli	a4,a0,0x10
    64e8:	a3f8                	sb	a4,6(a5)
    64ea:	4818                	lw	a4,16(s0)
    64ec:	a3c8                	sb	a0,4(a5)
    64ee:	8161                	srli	a0,a0,0x18
    64f0:	b3e8                	sb	a0,7(a5)
    64f2:	375c                	lbu	a5,13(a4)
    64f4:	2748                	lbu	a0,12(a4)
    64f6:	00070923          	sb	zero,18(a4)
    64fa:	07a2                	slli	a5,a5,0x8
    64fc:	8fc9                	or	a5,a5,a0
    64fe:	5512                	lw	a0,36(sp)
    6500:	000709a3          	sb	zero,19(a4)
    6504:	d63e                	sw	a5,44(sp)
    6506:	f80fc0ef          	jal	ra,2c86 <htons>
    650a:	57b2                	lw	a5,44(sp)
    650c:	8fe9                	and	a5,a5,a0
    650e:	5522                	lw	a0,40(sp)
    6510:	d63e                	sw	a5,44(sp)
    6512:	f74fc0ef          	jal	ra,2c86 <htons>
    6516:	57b2                	lw	a5,44(sp)
    6518:	8d5d                	or	a0,a0,a5
    651a:	0542                	slli	a0,a0,0x10
    651c:	481c                	lw	a5,16(s0)
    651e:	8141                	srli	a0,a0,0x10
    6520:	00855713          	srli	a4,a0,0x8
    6524:	b7d8                	sb	a4,13(a5)
    6526:	a7c8                	sb	a0,12(a5)
    6528:	01b40723          	sb	s11,14(s0)
    652c:	f68fc0ef          	jal	ra,2c94 <ntohs>
    6530:	481c                	lw	a5,16(s0)
    6532:	03f57513          	andi	a0,a0,63
    6536:	d63e                	sw	a5,44(sp)
    6538:	47e2                	lw	a5,24(sp)
    653a:	8d5d                	or	a0,a0,a5
    653c:	f4afc0ef          	jal	ra,2c86 <htons>
    6540:	57b2                	lw	a5,44(sp)
    6542:	a7c8                	sb	a0,12(a5)
    6544:	8121                	srli	a0,a0,0x8
    6546:	b7c8                	sb	a0,13(a5)
    6548:	67c1                	lui	a5,0x10
    654a:	17fd                	addi	a5,a5,-1
    654c:	00fa7a33          	and	s4,s4,a5
    6550:	47a2                	lw	a5,8(sp)
    6552:	9cd2                	add	s9,s9,s4
    6554:	97d2                	add	a5,a5,s4
    6556:	c43e                	sw	a5,8(sp)
    6558:	87a2                	mv	a5,s0
    655a:	e80b9ee3          	bnez	s7,63f6 <tcp_enqueue+0xb8>
    655e:	07c92a03          	lw	s4,124(s2)
    6562:	060a1963          	bnez	s4,65d4 <tcp_enqueue+0x296>
    6566:	07392e23          	sw	s3,124(s2)
    656a:	a251                	j	66ee <tcp_enqueue+0x3b0>
    656c:	89aa                	mv	s3,a0
    656e:	bd7d                	j	642c <tcp_enqueue+0xee>
    6570:	45c2                	lw	a1,16(sp)
    6572:	4601                	li	a2,0
    6574:	4501                	li	a0,0
    6576:	b47fd0ef          	jal	ra,40bc <pbuf_alloc>
    657a:	c048                	sw	a0,4(s0)
    657c:	c505                	beqz	a0,65a4 <tcp_enqueue+0x266>
    657e:	cd7fd0ef          	jal	ra,4254 <pbuf_clen>
    6582:	94aa                	add	s1,s1,a0
    6584:	04c2                	slli	s1,s1,0x10
    6586:	80c1                	srli	s1,s1,0x10
    6588:	ee0b86e3          	beqz	s7,6474 <tcp_enqueue+0x136>
    658c:	85e2                	mv	a1,s8
    658e:	4605                	li	a2,1
    6590:	450d                	li	a0,3
    6592:	b2bfd0ef          	jal	ra,40bc <pbuf_alloc>
    6596:	85aa                	mv	a1,a0
    6598:	4048                	lw	a0,4(s0)
    659a:	e195                	bnez	a1,65be <tcp_enqueue+0x280>
    659c:	ad3fd0ef          	jal	ra,406e <pbuf_free>
    65a0:	00042223          	sw	zero,4(s0)
    65a4:	02694783          	lbu	a5,38(s2)
    65a8:	5a7d                	li	s4,-1
    65aa:	f807e793          	ori	a5,a5,-128
    65ae:	02f90323          	sb	a5,38(s2)
    65b2:	da0987e3          	beqz	s3,6360 <tcp_enqueue+0x22>
    65b6:	854e                	mv	a0,s3
    65b8:	87efe0ef          	jal	ra,4636 <tcp_segs_free>
    65bc:	b355                	j	6360 <tcp_enqueue+0x22>
    65be:	0195a223          	sw	s9,4(a1)
    65c2:	0485                	addi	s1,s1,1
    65c4:	04c2                	slli	s1,s1,0x10
    65c6:	01942423          	sw	s9,8(s0)
    65ca:	80c1                	srli	s1,s1,0x10
    65cc:	ca5fd0ef          	jal	ra,4270 <pbuf_cat>
    65d0:	b555                	j	6474 <tcp_enqueue+0x136>
    65d2:	8a3e                	mv	s4,a5
    65d4:	000a2783          	lw	a5,0(s4)
    65d8:	ffed                	bnez	a5,65d2 <tcp_enqueue+0x294>
    65da:	010a2783          	lw	a5,16(s4)
    65de:	00ca5b83          	lhu	s7,12(s4)
    65e2:	27c8                	lbu	a0,12(a5)
    65e4:	37dc                	lbu	a5,13(a5)
    65e6:	07a2                	slli	a5,a5,0x8
    65e8:	8d5d                	or	a0,a0,a5
    65ea:	eaafc0ef          	jal	ra,2c94 <ntohs>
    65ee:	890d                	andi	a0,a0,3
    65f0:	00a03533          	snez	a0,a0
    65f4:	955e                	add	a0,a0,s7
    65f6:	18050563          	beqz	a0,6780 <tcp_enqueue+0x442>
    65fa:	010a2783          	lw	a5,16(s4)
    65fe:	27c8                	lbu	a0,12(a5)
    6600:	37dc                	lbu	a5,13(a5)
    6602:	07a2                	slli	a5,a5,0x8
    6604:	8d5d                	or	a0,a0,a5
    6606:	e8efc0ef          	jal	ra,2c94 <ntohs>
    660a:	890d                	andi	a0,a0,3
    660c:	16051a63          	bnez	a0,6780 <tcp_enqueue+0x442>
    6610:	003b7793          	andi	a5,s6,3
    6614:	c781                	beqz	a5,661c <tcp_enqueue+0x2de>
    6616:	4785                	li	a5,1
    6618:	16fb1463          	bne	s6,a5,6780 <tcp_enqueue+0x442>
    661c:	00c9d703          	lhu	a4,12(s3)
    6620:	00ca5783          	lhu	a5,12(s4)
    6624:	97ba                	add	a5,a5,a4
    6626:	04095703          	lhu	a4,64(s2)
    662a:	14f74b63          	blt	a4,a5,6780 <tcp_enqueue+0x442>
    662e:	00ea4703          	lbu	a4,14(s4)
    6632:	00e9c783          	lbu	a5,14(s3)
    6636:	14f71563          	bne	a4,a5,6780 <tcp_enqueue+0x442>
    663a:	010a2703          	lw	a4,16(s4)
    663e:	3348                	lbu	a0,5(a4)
    6640:	235c                	lbu	a5,4(a4)
    6642:	0522                	slli	a0,a0,0x8
    6644:	8d5d                	or	a0,a0,a5
    6646:	237c                	lbu	a5,6(a4)
    6648:	07c2                	slli	a5,a5,0x10
    664a:	8fc9                	or	a5,a5,a0
    664c:	3368                	lbu	a0,7(a4)
    664e:	0562                	slli	a0,a0,0x18
    6650:	8d5d                	or	a0,a0,a5
    6652:	e74fc0ef          	jal	ra,2cc6 <ntohl>
    6656:	0109a703          	lw	a4,16(s3)
    665a:	00ca5b83          	lhu	s7,12(s4)
    665e:	235c                	lbu	a5,4(a4)
    6660:	9baa                	add	s7,s7,a0
    6662:	3348                	lbu	a0,5(a4)
    6664:	0522                	slli	a0,a0,0x8
    6666:	8d5d                	or	a0,a0,a5
    6668:	237c                	lbu	a5,6(a4)
    666a:	07c2                	slli	a5,a5,0x10
    666c:	8fc9                	or	a5,a5,a0
    666e:	3368                	lbu	a0,7(a4)
    6670:	0562                	slli	a0,a0,0x18
    6672:	8d5d                	or	a0,a0,a5
    6674:	e52fc0ef          	jal	ra,2cc6 <ntohl>
    6678:	10ab9463          	bne	s7,a0,6780 <tcp_enqueue+0x442>
    667c:	47c2                	lw	a5,16(sp)
    667e:	55b1                	li	a1,-20
    6680:	0049a503          	lw	a0,4(s3)
    6684:	8d9d                	sub	a1,a1,a5
    6686:	05c2                	slli	a1,a1,0x10
    6688:	85c1                	srai	a1,a1,0x10
    668a:	977fd0ef          	jal	ra,4000 <pbuf_header>
    668e:	f0051be3          	bnez	a0,65a4 <tcp_enqueue+0x266>
    6692:	0049a503          	lw	a0,4(s3)
    6696:	253e                	lhu	a5,10(a0)
    6698:	eb99                	bnez	a5,66ae <tcp_enqueue+0x370>
    669a:	411c                	lw	a5,0(a0)
    669c:	14fd                	addi	s1,s1,-1
    669e:	04c2                	slli	s1,s1,0x10
    66a0:	00f9a223          	sw	a5,4(s3)
    66a4:	00052023          	sw	zero,0(a0)
    66a8:	80c1                	srli	s1,s1,0x10
    66aa:	9c5fd0ef          	jal	ra,406e <pbuf_free>
    66ae:	001b7793          	andi	a5,s6,1
    66b2:	c7cd                	beqz	a5,675c <tcp_enqueue+0x41e>
    66b4:	010a2783          	lw	a5,16(s4)
    66b8:	00d7cb83          	lbu	s7,13(a5) # 1000d <_data_lma+0x7199>
    66bc:	27c8                	lbu	a0,12(a5)
    66be:	0ba2                	slli	s7,s7,0x8
    66c0:	00abebb3          	or	s7,s7,a0
    66c4:	4505                	li	a0,1
    66c6:	dc0fc0ef          	jal	ra,2c86 <htons>
    66ca:	010a2783          	lw	a5,16(s4)
    66ce:	00abe533          	or	a0,s7,a0
    66d2:	0542                	slli	a0,a0,0x10
    66d4:	8141                	srli	a0,a0,0x10
    66d6:	a7c8                	sb	a0,12(a5)
    66d8:	8121                	srli	a0,a0,0x8
    66da:	b7c8                	sb	a0,13(a5)
    66dc:	00899563          	bne	s3,s0,66e6 <tcp_enqueue+0x3a8>
    66e0:	00ca5c03          	lhu	s8,12(s4)
    66e4:	8452                	mv	s0,s4
    66e6:	85ce                	mv	a1,s3
    66e8:	4511                	li	a0,4
    66ea:	fb2fd0ef          	jal	ra,3e9c <memp_free>
    66ee:	003b7793          	andi	a5,s6,3
    66f2:	c789                	beqz	a5,66fc <tcp_enqueue+0x3be>
    66f4:	0a85                	addi	s5,s5,1
    66f6:	0ac2                	slli	s5,s5,0x10
    66f8:	010ada93          	srli	s5,s5,0x10
    66fc:	001b7b13          	andi	s6,s6,1
    6700:	000b0863          	beqz	s6,6710 <tcp_enqueue+0x3d2>
    6704:	02694783          	lbu	a5,38(s2)
    6708:	0207e793          	ori	a5,a5,32
    670c:	02f90323          	sb	a5,38(s2)
    6710:	07092783          	lw	a5,112(s2)
    6714:	06991c23          	sh	s1,120(s2)
    6718:	4a01                	li	s4,0
    671a:	97d6                	add	a5,a5,s5
    671c:	06f92823          	sw	a5,112(s2)
    6720:	07695783          	lhu	a5,118(s2)
    6724:	41578ab3          	sub	s5,a5,s5
    6728:	07591b23          	sh	s5,118(s2)
    672c:	c20c0ae3          	beqz	s8,6360 <tcp_enqueue+0x22>
    6730:	481c                	lw	a5,16(s0)
    6732:	c20787e3          	beqz	a5,6360 <tcp_enqueue+0x22>
    6736:	4752                	lw	a4,20(sp)
    6738:	8b09                	andi	a4,a4,2
    673a:	c20713e3          	bnez	a4,6360 <tcp_enqueue+0x22>
    673e:	37c4                	lbu	s1,13(a5)
    6740:	27c8                	lbu	a0,12(a5)
    6742:	04a2                	slli	s1,s1,0x8
    6744:	8cc9                	or	s1,s1,a0
    6746:	4521                	li	a0,8
    6748:	d3efc0ef          	jal	ra,2c86 <htons>
    674c:	481c                	lw	a5,16(s0)
    674e:	8d45                	or	a0,a0,s1
    6750:	0542                	slli	a0,a0,0x10
    6752:	8141                	srli	a0,a0,0x10
    6754:	a7c8                	sb	a0,12(a5)
    6756:	8121                	srli	a0,a0,0x8
    6758:	b7c8                	sb	a0,13(a5)
    675a:	b119                	j	6360 <tcp_enqueue+0x22>
    675c:	0049a583          	lw	a1,4(s3)
    6760:	004a2503          	lw	a0,4(s4)
    6764:	b0dfd0ef          	jal	ra,4270 <pbuf_cat>
    6768:	00c9d703          	lhu	a4,12(s3)
    676c:	00ca5783          	lhu	a5,12(s4)
    6770:	97ba                	add	a5,a5,a4
    6772:	00fa1623          	sh	a5,12(s4)
    6776:	0009a783          	lw	a5,0(s3)
    677a:	00fa2023          	sw	a5,0(s4)
    677e:	bfb9                	j	66dc <tcp_enqueue+0x39e>
    6780:	013a2023          	sw	s3,0(s4)
    6784:	b7ad                	j	66ee <tcp_enqueue+0x3b0>

00006786 <tcp_send_ctrl>:
    6786:	9ebf92ef          	jal	t0,170 <__riscv_save_0>
    678a:	86ae                	mv	a3,a1
    678c:	4781                	li	a5,0
    678e:	4705                	li	a4,1
    6790:	4601                	li	a2,0
    6792:	4581                	li	a1,0
    6794:	babff0ef          	jal	ra,633e <tcp_enqueue>
    6798:	9fdf906f          	j	194 <__riscv_restore_0>

0000679c <tcp_send_empty_ack>:
    679c:	9bbf92ef          	jal	t0,156 <__riscv_save_4>
    67a0:	842a                	mv	s0,a0
    67a2:	4601                	li	a2,0
    67a4:	45d1                	li	a1,20
    67a6:	4505                	li	a0,1
    67a8:	915fd0ef          	jal	ra,40bc <pbuf_alloc>
    67ac:	cd31                	beqz	a0,6808 <tcp_send_empty_ack+0x6c>
    67ae:	02644783          	lbu	a5,38(s0)
    67b2:	84aa                	mv	s1,a0
    67b4:	5028                	lw	a0,96(s0)
    67b6:	9bf1                	andi	a5,a5,-4
    67b8:	02f40323          	sb	a5,38(s0)
    67bc:	ce6fc0ef          	jal	ra,2ca2 <htonl>
    67c0:	40cc                	lw	a1,4(s1)
    67c2:	862a                	mv	a2,a0
    67c4:	8522                	mv	a0,s0
    67c6:	aa5ff0ef          	jal	ra,626a <tcp_output_set_header.isra.0.constprop.1>
    67ca:	249a                	lhu	a4,8(s1)
    67cc:	00440913          	addi	s2,s0,4
    67d0:	89aa                	mv	s3,a0
    67d2:	4699                	li	a3,6
    67d4:	864a                	mv	a2,s2
    67d6:	85a2                	mv	a1,s0
    67d8:	8526                	mv	a0,s1
    67da:	6cf000ef          	jal	ra,76a8 <inet_chksum_pseudo>
    67de:	00a98823          	sb	a0,16(s3)
    67e2:	8121                	srli	a0,a0,0x8
    67e4:	00a988a3          	sb	a0,17(s3)
    67e8:	2438                	lbu	a4,10(s0)
    67ea:	3434                	lbu	a3,11(s0)
    67ec:	4799                	li	a5,6
    67ee:	864a                	mv	a2,s2
    67f0:	85a2                	mv	a1,s0
    67f2:	8526                	mv	a0,s1
    67f4:	91ffc0ef          	jal	ra,3112 <ip_output>
    67f8:	8526                	mv	a0,s1
    67fa:	875fd0ef          	jal	ra,406e <pbuf_free>
    67fe:	4501                	li	a0,0
    6800:	020403a3          	sb	zero,39(s0)
    6804:	987f906f          	j	18a <__riscv_restore_4>
    6808:	5579                	li	a0,-2
    680a:	bfed                	j	6804 <tcp_send_empty_ack+0x68>

0000680c <tcp_output>:
    680c:	9341a783          	lw	a5,-1740(gp) # 200001a4 <tcp_input_pcb>
    6810:	36a78063          	beq	a5,a0,6b70 <tcp_output+0x364>
    6814:	92df92ef          	jal	t0,140 <__riscv_save_12>
    6818:	06455783          	lhu	a5,100(a0)
    681c:	05a55a03          	lhu	s4,90(a0)
    6820:	0147f363          	bgeu	a5,s4,6826 <tcp_output+0x1a>
    6824:	8a3e                	mv	s4,a5
    6826:	02654783          	lbu	a5,38(a0)
    682a:	0a42                	slli	s4,s4,0x10
    682c:	842a                	mv	s0,a0
    682e:	8b89                	andi	a5,a5,2
    6830:	010a5a13          	srli	s4,s4,0x10
    6834:	5d64                	lw	s1,124(a0)
    6836:	cb95                	beqz	a5,686a <tcp_output+0x5e>
    6838:	e491                	bnez	s1,6844 <tcp_output+0x38>
    683a:	8522                	mv	a0,s0
    683c:	f61ff0ef          	jal	ra,679c <tcp_send_empty_ack>
    6840:	93df906f          	j	17c <__riscv_restore_12>
    6844:	4898                	lw	a4,16(s1)
    6846:	3348                	lbu	a0,5(a4)
    6848:	235c                	lbu	a5,4(a4)
    684a:	0522                	slli	a0,a0,0x8
    684c:	8d5d                	or	a0,a0,a5
    684e:	237c                	lbu	a5,6(a4)
    6850:	07c2                	slli	a5,a5,0x10
    6852:	8fc9                	or	a5,a5,a0
    6854:	3368                	lbu	a0,7(a4)
    6856:	0562                	slli	a0,a0,0x18
    6858:	8d5d                	or	a0,a0,a5
    685a:	c6cfc0ef          	jal	ra,2cc6 <ntohl>
    685e:	24de                	lhu	a5,12(s1)
    6860:	4878                	lw	a4,84(s0)
    6862:	8f99                	sub	a5,a5,a4
    6864:	953e                	add	a0,a0,a5
    6866:	fcaa6ae3          	bltu	s4,a0,683a <tcp_output+0x2e>
    686a:	08042983          	lw	s3,128(s0)
    686e:	08099663          	bnez	s3,68fa <tcp_output+0xee>
    6872:	20004ab7          	lui	s5,0x20004
    6876:	4b89                	li	s7,2
    6878:	23ca8a93          	addi	s5,s5,572 # 2000423c <WCHCfg>
    687c:	02040c37          	lui	s8,0x2040
    6880:	00440b13          	addi	s6,s0,4
    6884:	5cfd                	li	s9,-1
    6886:	c0ad                	beqz	s1,68e8 <tcp_output+0xdc>
    6888:	4898                	lw	a4,16(s1)
    688a:	3348                	lbu	a0,5(a4)
    688c:	235c                	lbu	a5,4(a4)
    688e:	0522                	slli	a0,a0,0x8
    6890:	8d5d                	or	a0,a0,a5
    6892:	237c                	lbu	a5,6(a4)
    6894:	07c2                	slli	a5,a5,0x10
    6896:	8fc9                	or	a5,a5,a0
    6898:	3368                	lbu	a0,7(a4)
    689a:	0562                	slli	a0,a0,0x18
    689c:	8d5d                	or	a0,a0,a5
    689e:	c28fc0ef          	jal	ra,2cc6 <ntohl>
    68a2:	24de                	lhu	a5,12(s1)
    68a4:	4878                	lw	a4,84(s0)
    68a6:	8f99                	sub	a5,a5,a4
    68a8:	953e                	add	a0,a0,a5
    68aa:	04aa7c63          	bgeu	s4,a0,6902 <tcp_output+0xf6>
    68ae:	0b044783          	lbu	a5,176(s0)
    68b2:	eb9d                	bnez	a5,68e8 <tcp_output+0xdc>
    68b4:	4898                	lw	a4,16(s1)
    68b6:	3348                	lbu	a0,5(a4)
    68b8:	235c                	lbu	a5,4(a4)
    68ba:	0522                	slli	a0,a0,0x8
    68bc:	8d5d                	or	a0,a0,a5
    68be:	237c                	lbu	a5,6(a4)
    68c0:	07c2                	slli	a5,a5,0x10
    68c2:	8fc9                	or	a5,a5,a0
    68c4:	3368                	lbu	a0,7(a4)
    68c6:	0562                	slli	a0,a0,0x18
    68c8:	8d5d                	or	a0,a0,a5
    68ca:	bfcfc0ef          	jal	ra,2cc6 <ntohl>
    68ce:	24de                	lhu	a5,12(s1)
    68d0:	4878                	lw	a4,84(s0)
    68d2:	8f99                	sub	a5,a5,a4
    68d4:	953e                	add	a0,a0,a5
    68d6:	06445783          	lhu	a5,100(s0)
    68da:	00a7f763          	bgeu	a5,a0,68e8 <tcp_output+0xdc>
    68de:	4785                	li	a5,1
    68e0:	0a042623          	sw	zero,172(s0)
    68e4:	0af40823          	sb	a5,176(s0)
    68e8:	02644783          	lbu	a5,38(s0)
    68ec:	4501                	li	a0,0
    68ee:	07f7f793          	andi	a5,a5,127
    68f2:	02f40323          	sb	a5,38(s0)
    68f6:	b7a9                	j	6840 <tcp_output+0x34>
    68f8:	89be                	mv	s3,a5
    68fa:	0009a783          	lw	a5,0(s3)
    68fe:	ffed                	bnez	a5,68f8 <tcp_output+0xec>
    6900:	bf8d                	j	6872 <tcp_output+0x66>
    6902:	08042783          	lw	a5,128(s0)
    6906:	c395                	beqz	a5,692a <tcp_output+0x11e>
    6908:	02644783          	lbu	a5,38(s0)
    690c:	0447f713          	andi	a4,a5,68
    6910:	ef09                	bnez	a4,692a <tcp_output+0x11e>
    6912:	5c78                	lw	a4,124(s0)
    6914:	cb01                	beqz	a4,6924 <tcp_output+0x118>
    6916:	4314                	lw	a3,0(a4)
    6918:	ea89                	bnez	a3,692a <tcp_output+0x11e>
    691a:	2756                	lhu	a3,12(a4)
    691c:	04045703          	lhu	a4,64(s0)
    6920:	00e6f563          	bgeu	a3,a4,692a <tcp_output+0x11e>
    6924:	0a07f793          	andi	a5,a5,160
    6928:	d3d9                	beqz	a5,68ae <tcp_output+0xa2>
    692a:	409c                	lw	a5,0(s1)
    692c:	dc7c                	sw	a5,124(s0)
    692e:	481c                	lw	a5,16(s0)
    6930:	03778963          	beq	a5,s7,6962 <tcp_output+0x156>
    6934:	489c                	lw	a5,16(s1)
    6936:	00d7c903          	lbu	s2,13(a5)
    693a:	27c8                	lbu	a0,12(a5)
    693c:	0922                	slli	s2,s2,0x8
    693e:	00a96933          	or	s2,s2,a0
    6942:	4541                	li	a0,16
    6944:	b42fc0ef          	jal	ra,2c86 <htons>
    6948:	489c                	lw	a5,16(s1)
    694a:	00a96533          	or	a0,s2,a0
    694e:	0542                	slli	a0,a0,0x10
    6950:	8141                	srli	a0,a0,0x10
    6952:	a7c8                	sb	a0,12(a5)
    6954:	8121                	srli	a0,a0,0x8
    6956:	b7c8                	sb	a0,13(a5)
    6958:	02644783          	lbu	a5,38(s0)
    695c:	9bf1                	andi	a5,a5,-4
    695e:	02f40323          	sb	a5,38(s0)
    6962:	5408                	lw	a0,40(s0)
    6964:	0104a903          	lw	s2,16(s1)
    6968:	b3afc0ef          	jal	ra,2ca2 <htonl>
    696c:	00855793          	srli	a5,a0,0x8
    6970:	00a90423          	sb	a0,8(s2)
    6974:	00f904a3          	sb	a5,9(s2)
    6978:	01055793          	srli	a5,a0,0x10
    697c:	8161                	srli	a0,a0,0x18
    697e:	00a905a3          	sb	a0,11(s2)
    6982:	346a                	lhu	a0,46(s0)
    6984:	00f90523          	sb	a5,10(s2)
    6988:	0104a903          	lw	s2,16(s1)
    698c:	afafc0ef          	jal	ra,2c86 <htons>
    6990:	347a                	lhu	a4,46(s0)
    6992:	541c                	lw	a5,40(s0)
    6994:	00a90723          	sb	a0,14(s2)
    6998:	8121                	srli	a0,a0,0x8
    699a:	00a907a3          	sb	a0,15(s2)
    699e:	97ba                	add	a5,a5,a4
    69a0:	b87a                	sh	a4,54(s0)
    69a2:	d81c                	sw	a5,48(s0)
    69a4:	24fc                	lbu	a5,14(s1)
    69a6:	8b85                	andi	a5,a5,1
    69a8:	cb99                	beqz	a5,69be <tcp_output+0x1b2>
    69aa:	004aa503          	lw	a0,4(s5)
    69ae:	0104a903          	lw	s2,16(s1)
    69b2:	00ac6533          	or	a0,s8,a0
    69b6:	aecfc0ef          	jal	ra,2ca2 <htonl>
    69ba:	00a92a23          	sw	a0,20(s2)
    69be:	401c                	lw	a5,0(s0)
    69c0:	e799                	bnez	a5,69ce <tcp_output+0x1c2>
    69c2:	855a                	mv	a0,s6
    69c4:	b0efc0ef          	jal	ra,2cd2 <ip_route>
    69c8:	c559                	beqz	a0,6a56 <tcp_output+0x24a>
    69ca:	415c                	lw	a5,4(a0)
    69cc:	c01c                	sw	a5,0(s0)
    69ce:	03e41783          	lh	a5,62(s0)
    69d2:	01979463          	bne	a5,s9,69da <tcp_output+0x1ce>
    69d6:	02041f23          	sh	zero,62(s0)
    69da:	407c                	lw	a5,68(s0)
    69dc:	e395                	bnez	a5,6a00 <tcp_output+0x1f4>
    69de:	90c1a783          	lw	a5,-1780(gp) # 2000017c <tcp_ticks>
    69e2:	4898                	lw	a4,16(s1)
    69e4:	c07c                	sw	a5,68(s0)
    69e6:	3348                	lbu	a0,5(a4)
    69e8:	235c                	lbu	a5,4(a4)
    69ea:	0522                	slli	a0,a0,0x8
    69ec:	8d5d                	or	a0,a0,a5
    69ee:	237c                	lbu	a5,6(a4)
    69f0:	07c2                	slli	a5,a5,0x10
    69f2:	8fc9                	or	a5,a5,a0
    69f4:	3368                	lbu	a0,7(a4)
    69f6:	0562                	slli	a0,a0,0x18
    69f8:	8d5d                	or	a0,a0,a5
    69fa:	accfc0ef          	jal	ra,2cc6 <ntohl>
    69fe:	c428                	sw	a0,72(s0)
    6a00:	40c8                	lw	a0,4(s1)
    6a02:	0104a903          	lw	s2,16(s1)
    6a06:	4699                	li	a3,6
    6a08:	4158                	lw	a4,4(a0)
    6a0a:	01252223          	sw	s2,4(a0)
    6a0e:	865a                	mv	a2,s6
    6a10:	40e90733          	sub	a4,s2,a4
    6a14:	01071793          	slli	a5,a4,0x10
    6a18:	253a                	lhu	a4,10(a0)
    6a1a:	83c1                	srli	a5,a5,0x10
    6a1c:	85a2                	mv	a1,s0
    6a1e:	8f1d                	sub	a4,a4,a5
    6a20:	a53a                	sh	a4,10(a0)
    6a22:	251a                	lhu	a4,8(a0)
    6a24:	8f1d                	sub	a4,a4,a5
    6a26:	0742                	slli	a4,a4,0x10
    6a28:	8341                	srli	a4,a4,0x10
    6a2a:	a51a                	sh	a4,8(a0)
    6a2c:	00090823          	sb	zero,16(s2)
    6a30:	000908a3          	sb	zero,17(s2)
    6a34:	475000ef          	jal	ra,76a8 <inet_chksum_pseudo>
    6a38:	00a90823          	sb	a0,16(s2)
    6a3c:	8121                	srli	a0,a0,0x8
    6a3e:	00a908a3          	sb	a0,17(s2)
    6a42:	2438                	lbu	a4,10(s0)
    6a44:	3434                	lbu	a3,11(s0)
    6a46:	40c8                	lw	a0,4(s1)
    6a48:	4799                	li	a5,6
    6a4a:	865a                	mv	a2,s6
    6a4c:	85a2                	mv	a1,s0
    6a4e:	ec4fc0ef          	jal	ra,3112 <ip_output>
    6a52:	020403a3          	sb	zero,39(s0)
    6a56:	4898                	lw	a4,16(s1)
    6a58:	3348                	lbu	a0,5(a4)
    6a5a:	235c                	lbu	a5,4(a4)
    6a5c:	0522                	slli	a0,a0,0x8
    6a5e:	8d5d                	or	a0,a0,a5
    6a60:	237c                	lbu	a5,6(a4)
    6a62:	07c2                	slli	a5,a5,0x10
    6a64:	8fc9                	or	a5,a5,a0
    6a66:	3368                	lbu	a0,7(a4)
    6a68:	0562                	slli	a0,a0,0x18
    6a6a:	8d5d                	or	a0,a0,a5
    6a6c:	a5afc0ef          	jal	ra,2cc6 <ntohl>
    6a70:	489c                	lw	a5,16(s1)
    6a72:	892a                	mv	s2,a0
    6a74:	00c4dd83          	lhu	s11,12(s1)
    6a78:	27c8                	lbu	a0,12(a5)
    6a7a:	37dc                	lbu	a5,13(a5)
    6a7c:	07a2                	slli	a5,a5,0x8
    6a7e:	8d5d                	or	a0,a0,a5
    6a80:	a14fc0ef          	jal	ra,2c94 <ntohs>
    6a84:	890d                	andi	a0,a0,3
    6a86:	00a03533          	snez	a0,a0
    6a8a:	503c                	lw	a5,96(s0)
    6a8c:	956e                	add	a0,a0,s11
    6a8e:	954a                	add	a0,a0,s2
    6a90:	8f89                	sub	a5,a5,a0
    6a92:	0007d363          	bgez	a5,6a98 <tcp_output+0x28c>
    6a96:	d028                	sw	a0,96(s0)
    6a98:	489c                	lw	a5,16(s1)
    6a9a:	00c4d903          	lhu	s2,12(s1)
    6a9e:	27c8                	lbu	a0,12(a5)
    6aa0:	37dc                	lbu	a5,13(a5)
    6aa2:	07a2                	slli	a5,a5,0x8
    6aa4:	8d5d                	or	a0,a0,a5
    6aa6:	9eefc0ef          	jal	ra,2c94 <ntohs>
    6aaa:	890d                	andi	a0,a0,3
    6aac:	00a03533          	snez	a0,a0
    6ab0:	954a                	add	a0,a0,s2
    6ab2:	c95d                	beqz	a0,6b68 <tcp_output+0x35c>
    6ab4:	08042783          	lw	a5,128(s0)
    6ab8:	0004a023          	sw	zero,0(s1)
    6abc:	e789                	bnez	a5,6ac6 <tcp_output+0x2ba>
    6abe:	08942023          	sw	s1,128(s0)
    6ac2:	89a6                	mv	s3,s1
    6ac4:	a899                	j	6b1a <tcp_output+0x30e>
    6ac6:	4898                	lw	a4,16(s1)
    6ac8:	3348                	lbu	a0,5(a4)
    6aca:	235c                	lbu	a5,4(a4)
    6acc:	0522                	slli	a0,a0,0x8
    6ace:	8d5d                	or	a0,a0,a5
    6ad0:	237c                	lbu	a5,6(a4)
    6ad2:	07c2                	slli	a5,a5,0x10
    6ad4:	8fc9                	or	a5,a5,a0
    6ad6:	3368                	lbu	a0,7(a4)
    6ad8:	0562                	slli	a0,a0,0x18
    6ada:	8d5d                	or	a0,a0,a5
    6adc:	9eafc0ef          	jal	ra,2cc6 <ntohl>
    6ae0:	0109a703          	lw	a4,16(s3)
    6ae4:	892a                	mv	s2,a0
    6ae6:	3348                	lbu	a0,5(a4)
    6ae8:	235c                	lbu	a5,4(a4)
    6aea:	0522                	slli	a0,a0,0x8
    6aec:	8d5d                	or	a0,a0,a5
    6aee:	237c                	lbu	a5,6(a4)
    6af0:	07c2                	slli	a5,a5,0x10
    6af2:	8fc9                	or	a5,a5,a0
    6af4:	3368                	lbu	a0,7(a4)
    6af6:	0562                	slli	a0,a0,0x18
    6af8:	8d5d                	or	a0,a0,a5
    6afa:	9ccfc0ef          	jal	ra,2cc6 <ntohl>
    6afe:	40a90533          	sub	a0,s2,a0
    6b02:	06055063          	bgez	a0,6b62 <tcp_output+0x356>
    6b06:	08040913          	addi	s2,s0,128
    6b0a:	00092783          	lw	a5,0(s2)
    6b0e:	eb81                	bnez	a5,6b1e <tcp_output+0x312>
    6b10:	00092783          	lw	a5,0(s2)
    6b14:	c09c                	sw	a5,0(s1)
    6b16:	00992023          	sw	s1,0(s2)
    6b1a:	5c64                	lw	s1,124(s0)
    6b1c:	b3ad                	j	6886 <tcp_output+0x7a>
    6b1e:	4b98                	lw	a4,16(a5)
    6b20:	3348                	lbu	a0,5(a4)
    6b22:	235c                	lbu	a5,4(a4)
    6b24:	0522                	slli	a0,a0,0x8
    6b26:	8d5d                	or	a0,a0,a5
    6b28:	237c                	lbu	a5,6(a4)
    6b2a:	07c2                	slli	a5,a5,0x10
    6b2c:	8fc9                	or	a5,a5,a0
    6b2e:	3368                	lbu	a0,7(a4)
    6b30:	0562                	slli	a0,a0,0x18
    6b32:	8d5d                	or	a0,a0,a5
    6b34:	992fc0ef          	jal	ra,2cc6 <ntohl>
    6b38:	4898                	lw	a4,16(s1)
    6b3a:	8daa                	mv	s11,a0
    6b3c:	3348                	lbu	a0,5(a4)
    6b3e:	235c                	lbu	a5,4(a4)
    6b40:	0522                	slli	a0,a0,0x8
    6b42:	8d5d                	or	a0,a0,a5
    6b44:	237c                	lbu	a5,6(a4)
    6b46:	07c2                	slli	a5,a5,0x10
    6b48:	8fc9                	or	a5,a5,a0
    6b4a:	3368                	lbu	a0,7(a4)
    6b4c:	0562                	slli	a0,a0,0x18
    6b4e:	8d5d                	or	a0,a0,a5
    6b50:	976fc0ef          	jal	ra,2cc6 <ntohl>
    6b54:	40ad8533          	sub	a0,s11,a0
    6b58:	fa055ce3          	bgez	a0,6b10 <tcp_output+0x304>
    6b5c:	00092903          	lw	s2,0(s2)
    6b60:	b76d                	j	6b0a <tcp_output+0x2fe>
    6b62:	0099a023          	sw	s1,0(s3)
    6b66:	bfb1                	j	6ac2 <tcp_output+0x2b6>
    6b68:	8526                	mv	a0,s1
    6b6a:	aa3fd0ef          	jal	ra,460c <tcp_seg_free>
    6b6e:	b775                	j	6b1a <tcp_output+0x30e>
    6b70:	4501                	li	a0,0
    6b72:	8082                	ret

00006b74 <tcp_rst>:
    6b74:	de2f92ef          	jal	t0,156 <__riscv_save_4>
    6b78:	1141                	addi	sp,sp,-16
    6b7a:	8aaa                	mv	s5,a0
    6b7c:	84ae                	mv	s1,a1
    6b7e:	89b2                	mv	s3,a2
    6b80:	45d1                	li	a1,20
    6b82:	4601                	li	a2,0
    6b84:	4505                	li	a0,1
    6b86:	8a36                	mv	s4,a3
    6b88:	c63a                	sw	a4,12(sp)
    6b8a:	8b3e                	mv	s6,a5
    6b8c:	d30fd0ef          	jal	ra,40bc <pbuf_alloc>
    6b90:	0e050363          	beqz	a0,6c76 <tcp_rst+0x102>
    6b94:	4732                	lw	a4,12(sp)
    6b96:	4140                	lw	s0,4(a0)
    6b98:	892a                	mv	s2,a0
    6b9a:	853a                	mv	a0,a4
    6b9c:	8eafc0ef          	jal	ra,2c86 <htons>
    6ba0:	a008                	sb	a0,0(s0)
    6ba2:	8121                	srli	a0,a0,0x8
    6ba4:	b008                	sb	a0,1(s0)
    6ba6:	855a                	mv	a0,s6
    6ba8:	8defc0ef          	jal	ra,2c86 <htons>
    6bac:	a028                	sb	a0,2(s0)
    6bae:	8121                	srli	a0,a0,0x8
    6bb0:	b028                	sb	a0,3(s0)
    6bb2:	8556                	mv	a0,s5
    6bb4:	8eefc0ef          	jal	ra,2ca2 <htonl>
    6bb8:	00855793          	srli	a5,a0,0x8
    6bbc:	a048                	sb	a0,4(s0)
    6bbe:	b05c                	sb	a5,5(s0)
    6bc0:	01055793          	srli	a5,a0,0x10
    6bc4:	8161                	srli	a0,a0,0x18
    6bc6:	a07c                	sb	a5,6(s0)
    6bc8:	b068                	sb	a0,7(s0)
    6bca:	8526                	mv	a0,s1
    6bcc:	8d6fc0ef          	jal	ra,2ca2 <htonl>
    6bd0:	00855793          	srli	a5,a0,0x8
    6bd4:	a408                	sb	a0,8(s0)
    6bd6:	b41c                	sb	a5,9(s0)
    6bd8:	3444                	lbu	s1,13(s0)
    6bda:	01055793          	srli	a5,a0,0x10
    6bde:	8161                	srli	a0,a0,0x18
    6be0:	b428                	sb	a0,11(s0)
    6be2:	2448                	lbu	a0,12(s0)
    6be4:	04a2                	slli	s1,s1,0x8
    6be6:	a43c                	sb	a5,10(s0)
    6be8:	8cc9                	or	s1,s1,a0
    6bea:	6541                	lui	a0,0x10
    6bec:	fc050513          	addi	a0,a0,-64 # ffc0 <_data_lma+0x714c>
    6bf0:	896fc0ef          	jal	ra,2c86 <htons>
    6bf4:	8ce9                	and	s1,s1,a0
    6bf6:	4551                	li	a0,20
    6bf8:	88efc0ef          	jal	ra,2c86 <htons>
    6bfc:	8d45                	or	a0,a0,s1
    6bfe:	0542                	slli	a0,a0,0x10
    6c00:	8141                	srli	a0,a0,0x10
    6c02:	200047b7          	lui	a5,0x20004
    6c06:	a448                	sb	a0,12(s0)
    6c08:	8121                	srli	a0,a0,0x8
    6c0a:	b448                	sb	a0,13(s0)
    6c0c:	2407d503          	lhu	a0,576(a5) # 20004240 <WCHCfg+0x4>
    6c10:	876fc0ef          	jal	ra,2c86 <htons>
    6c14:	a468                	sb	a0,14(s0)
    6c16:	345c                	lbu	a5,13(s0)
    6c18:	8121                	srli	a0,a0,0x8
    6c1a:	b468                	sb	a0,15(s0)
    6c1c:	2448                	lbu	a0,12(s0)
    6c1e:	07a2                	slli	a5,a5,0x8
    6c20:	00040923          	sb	zero,18(s0)
    6c24:	8d5d                	or	a0,a0,a5
    6c26:	000409a3          	sb	zero,19(s0)
    6c2a:	86afc0ef          	jal	ra,2c94 <ntohs>
    6c2e:	6795                	lui	a5,0x5
    6c30:	03f57513          	andi	a0,a0,63
    6c34:	8d5d                	or	a0,a0,a5
    6c36:	850fc0ef          	jal	ra,2c86 <htons>
    6c3a:	00895703          	lhu	a4,8(s2)
    6c3e:	a448                	sb	a0,12(s0)
    6c40:	8121                	srli	a0,a0,0x8
    6c42:	b448                	sb	a0,13(s0)
    6c44:	4699                	li	a3,6
    6c46:	8652                	mv	a2,s4
    6c48:	85ce                	mv	a1,s3
    6c4a:	00040823          	sb	zero,16(s0)
    6c4e:	000408a3          	sb	zero,17(s0)
    6c52:	854a                	mv	a0,s2
    6c54:	255000ef          	jal	ra,76a8 <inet_chksum_pseudo>
    6c58:	a808                	sb	a0,16(s0)
    6c5a:	8121                	srli	a0,a0,0x8
    6c5c:	b808                	sb	a0,17(s0)
    6c5e:	4799                	li	a5,6
    6c60:	4701                	li	a4,0
    6c62:	08000693          	li	a3,128
    6c66:	8652                	mv	a2,s4
    6c68:	85ce                	mv	a1,s3
    6c6a:	854a                	mv	a0,s2
    6c6c:	ca6fc0ef          	jal	ra,3112 <ip_output>
    6c70:	854a                	mv	a0,s2
    6c72:	bfcfd0ef          	jal	ra,406e <pbuf_free>
    6c76:	0141                	addi	sp,sp,16
    6c78:	d12f906f          	j	18a <__riscv_restore_4>

00006c7c <tcp_rexmit_rto>:
    6c7c:	08052783          	lw	a5,128(a0)
    6c80:	cb85                	beqz	a5,6cb0 <tcp_rexmit_rto+0x34>
    6c82:	ceef92ef          	jal	t0,170 <__riscv_save_0>
    6c86:	873e                	mv	a4,a5
    6c88:	4314                	lw	a3,0(a4)
    6c8a:	e28d                	bnez	a3,6cac <tcp_rexmit_rto+0x30>
    6c8c:	5d74                	lw	a3,124(a0)
    6c8e:	c314                	sw	a3,0(a4)
    6c90:	dd7c                	sw	a5,124(a0)
    6c92:	05254783          	lbu	a5,82(a0)
    6c96:	08052023          	sw	zero,128(a0)
    6c9a:	04052223          	sw	zero,68(a0)
    6c9e:	0785                	addi	a5,a5,1
    6ca0:	04f50923          	sb	a5,82(a0)
    6ca4:	b69ff0ef          	jal	ra,680c <tcp_output>
    6ca8:	cecf906f          	j	194 <__riscv_restore_0>
    6cac:	8736                	mv	a4,a3
    6cae:	bfe9                	j	6c88 <tcp_rexmit_rto+0xc>
    6cb0:	8082                	ret

00006cb2 <tcp_rexmit>:
    6cb2:	ca4f92ef          	jal	t0,156 <__riscv_save_4>
    6cb6:	08052483          	lw	s1,128(a0)
    6cba:	c495                	beqz	s1,6ce6 <tcp_rexmit+0x34>
    6cbc:	409c                	lw	a5,0(s1)
    6cbe:	842a                	mv	s0,a0
    6cc0:	07c50913          	addi	s2,a0,124
    6cc4:	08f52023          	sw	a5,128(a0)
    6cc8:	00092783          	lw	a5,0(s2)
    6ccc:	ef99                	bnez	a5,6cea <tcp_rexmit+0x38>
    6cce:	00092783          	lw	a5,0(s2)
    6cd2:	c09c                	sw	a5,0(s1)
    6cd4:	00992023          	sw	s1,0(s2)
    6cd8:	05244783          	lbu	a5,82(s0)
    6cdc:	04042223          	sw	zero,68(s0)
    6ce0:	0785                	addi	a5,a5,1
    6ce2:	04f40923          	sb	a5,82(s0)
    6ce6:	ca4f906f          	j	18a <__riscv_restore_4>
    6cea:	4b98                	lw	a4,16(a5)
    6cec:	3348                	lbu	a0,5(a4)
    6cee:	235c                	lbu	a5,4(a4)
    6cf0:	0522                	slli	a0,a0,0x8
    6cf2:	8d5d                	or	a0,a0,a5
    6cf4:	237c                	lbu	a5,6(a4)
    6cf6:	07c2                	slli	a5,a5,0x10
    6cf8:	8fc9                	or	a5,a5,a0
    6cfa:	3368                	lbu	a0,7(a4)
    6cfc:	0562                	slli	a0,a0,0x18
    6cfe:	8d5d                	or	a0,a0,a5
    6d00:	fc7fb0ef          	jal	ra,2cc6 <ntohl>
    6d04:	4898                	lw	a4,16(s1)
    6d06:	89aa                	mv	s3,a0
    6d08:	3348                	lbu	a0,5(a4)
    6d0a:	235c                	lbu	a5,4(a4)
    6d0c:	0522                	slli	a0,a0,0x8
    6d0e:	8d5d                	or	a0,a0,a5
    6d10:	237c                	lbu	a5,6(a4)
    6d12:	07c2                	slli	a5,a5,0x10
    6d14:	8fc9                	or	a5,a5,a0
    6d16:	3368                	lbu	a0,7(a4)
    6d18:	0562                	slli	a0,a0,0x18
    6d1a:	8d5d                	or	a0,a0,a5
    6d1c:	fabfb0ef          	jal	ra,2cc6 <ntohl>
    6d20:	40a98533          	sub	a0,s3,a0
    6d24:	fa0555e3          	bgez	a0,6cce <tcp_rexmit+0x1c>
    6d28:	00092903          	lw	s2,0(s2)
    6d2c:	bf71                	j	6cc8 <tcp_rexmit+0x16>

00006d2e <tcp_rexmit_fast>:
    6d2e:	08052783          	lw	a5,128(a0)
    6d32:	cfb1                	beqz	a5,6d8e <tcp_rexmit_fast+0x60>
    6d34:	c3cf92ef          	jal	t0,170 <__riscv_save_0>
    6d38:	02654783          	lbu	a5,38(a0)
    6d3c:	842a                	mv	s0,a0
    6d3e:	8b91                	andi	a5,a5,4
    6d40:	e7a9                	bnez	a5,6d8a <tcp_rexmit_fast+0x5c>
    6d42:	f71ff0ef          	jal	ra,6cb2 <tcp_rexmit>
    6d46:	05a45683          	lhu	a3,90(s0)
    6d4a:	06445783          	lhu	a5,100(s0)
    6d4e:	0016d713          	srli	a4,a3,0x1
    6d52:	00d7f463          	bgeu	a5,a3,6d5a <tcp_rexmit_fast+0x2c>
    6d56:	0017d713          	srli	a4,a5,0x1
    6d5a:	04045783          	lhu	a5,64(s0)
    6d5e:	04e41e23          	sh	a4,92(s0)
    6d62:	00179693          	slli	a3,a5,0x1
    6d66:	00d75463          	bge	a4,a3,6d6e <tcp_rexmit_fast+0x40>
    6d6a:	04d41e23          	sh	a3,92(s0)
    6d6e:	470d                	li	a4,3
    6d70:	02e787b3          	mul	a5,a5,a4
    6d74:	05c45703          	lhu	a4,92(s0)
    6d78:	97ba                	add	a5,a5,a4
    6d7a:	04f41d23          	sh	a5,90(s0)
    6d7e:	02644783          	lbu	a5,38(s0)
    6d82:	0047e793          	ori	a5,a5,4
    6d86:	02f40323          	sb	a5,38(s0)
    6d8a:	c0af906f          	j	194 <__riscv_restore_0>
    6d8e:	8082                	ret

00006d90 <tcp_keepalive>:
    6d90:	bc6f92ef          	jal	t0,156 <__riscv_save_4>
    6d94:	84aa                	mv	s1,a0
    6d96:	4601                	li	a2,0
    6d98:	45d1                	li	a1,20
    6d9a:	4505                	li	a0,1
    6d9c:	b20fd0ef          	jal	ra,40bc <pbuf_alloc>
    6da0:	c529                	beqz	a0,6dea <tcp_keepalive+0x5a>
    6da2:	842a                	mv	s0,a0
    6da4:	50a8                	lw	a0,96(s1)
    6da6:	00448913          	addi	s2,s1,4
    6daa:	157d                	addi	a0,a0,-1
    6dac:	ef7fb0ef          	jal	ra,2ca2 <htonl>
    6db0:	404c                	lw	a1,4(s0)
    6db2:	862a                	mv	a2,a0
    6db4:	8526                	mv	a0,s1
    6db6:	cb4ff0ef          	jal	ra,626a <tcp_output_set_header.isra.0.constprop.1>
    6dba:	241a                	lhu	a4,8(s0)
    6dbc:	89aa                	mv	s3,a0
    6dbe:	4699                	li	a3,6
    6dc0:	864a                	mv	a2,s2
    6dc2:	85a6                	mv	a1,s1
    6dc4:	8522                	mv	a0,s0
    6dc6:	0e3000ef          	jal	ra,76a8 <inet_chksum_pseudo>
    6dca:	00a98823          	sb	a0,16(s3)
    6dce:	8121                	srli	a0,a0,0x8
    6dd0:	00a988a3          	sb	a0,17(s3)
    6dd4:	34b4                	lbu	a3,11(s1)
    6dd6:	4799                	li	a5,6
    6dd8:	4701                	li	a4,0
    6dda:	864a                	mv	a2,s2
    6ddc:	85a6                	mv	a1,s1
    6dde:	8522                	mv	a0,s0
    6de0:	b32fc0ef          	jal	ra,3112 <ip_output>
    6de4:	8522                	mv	a0,s0
    6de6:	a88fd0ef          	jal	ra,406e <pbuf_free>
    6dea:	ba0f906f          	j	18a <__riscv_restore_4>

00006dee <tcp_zero_window_probe>:
    6dee:	b68f92ef          	jal	t0,156 <__riscv_save_4>
    6df2:	08052403          	lw	s0,128(a0)
    6df6:	e019                	bnez	s0,6dfc <tcp_zero_window_probe+0xe>
    6df8:	5d60                	lw	s0,124(a0)
    6dfa:	c45d                	beqz	s0,6ea8 <tcp_zero_window_probe+0xba>
    6dfc:	481c                	lw	a5,16(s0)
    6dfe:	84aa                	mv	s1,a0
    6e00:	27c8                	lbu	a0,12(a5)
    6e02:	37dc                	lbu	a5,13(a5)
    6e04:	07a2                	slli	a5,a5,0x8
    6e06:	8d5d                	or	a0,a0,a5
    6e08:	e8dfb0ef          	jal	ra,2c94 <ntohs>
    6e0c:	8905                	andi	a0,a0,1
    6e0e:	cd59                	beqz	a0,6eac <tcp_zero_window_probe+0xbe>
    6e10:	245e                	lhu	a5,12(s0)
    6e12:	efc9                	bnez	a5,6eac <tcp_zero_window_probe+0xbe>
    6e14:	4a05                	li	s4,1
    6e16:	45d1                	li	a1,20
    6e18:	4601                	li	a2,0
    6e1a:	4505                	li	a0,1
    6e1c:	aa0fd0ef          	jal	ra,40bc <pbuf_alloc>
    6e20:	892a                	mv	s2,a0
    6e22:	c159                	beqz	a0,6ea8 <tcp_zero_window_probe+0xba>
    6e24:	4818                	lw	a4,16(s0)
    6e26:	414c                	lw	a1,4(a0)
    6e28:	8526                	mv	a0,s1
    6e2a:	3350                	lbu	a2,5(a4)
    6e2c:	235c                	lbu	a5,4(a4)
    6e2e:	0622                	slli	a2,a2,0x8
    6e30:	8e5d                	or	a2,a2,a5
    6e32:	237c                	lbu	a5,6(a4)
    6e34:	07c2                	slli	a5,a5,0x10
    6e36:	8fd1                	or	a5,a5,a2
    6e38:	3370                	lbu	a2,7(a4)
    6e3a:	0662                	slli	a2,a2,0x18
    6e3c:	8e5d                	or	a2,a2,a5
    6e3e:	c2cff0ef          	jal	ra,626a <tcp_output_set_header.isra.0.constprop.1>
    6e42:	89aa                	mv	s3,a0
    6e44:	060a0763          	beqz	s4,6eb2 <tcp_zero_window_probe+0xc4>
    6e48:	3540                	lbu	s0,13(a0)
    6e4a:	255c                	lbu	a5,12(a0)
    6e4c:	6541                	lui	a0,0x10
    6e4e:	0422                	slli	s0,s0,0x8
    6e50:	fc050513          	addi	a0,a0,-64 # ffc0 <_data_lma+0x714c>
    6e54:	8c5d                	or	s0,s0,a5
    6e56:	e31fb0ef          	jal	ra,2c86 <htons>
    6e5a:	8c69                	and	s0,s0,a0
    6e5c:	4545                	li	a0,17
    6e5e:	e29fb0ef          	jal	ra,2c86 <htons>
    6e62:	8c49                	or	s0,s0,a0
    6e64:	01041793          	slli	a5,s0,0x10
    6e68:	83c1                	srli	a5,a5,0x10
    6e6a:	00f98623          	sb	a5,12(s3)
    6e6e:	83a1                	srli	a5,a5,0x8
    6e70:	00f986a3          	sb	a5,13(s3)
    6e74:	00895703          	lhu	a4,8(s2)
    6e78:	00448413          	addi	s0,s1,4
    6e7c:	4699                	li	a3,6
    6e7e:	8622                	mv	a2,s0
    6e80:	85a6                	mv	a1,s1
    6e82:	854a                	mv	a0,s2
    6e84:	025000ef          	jal	ra,76a8 <inet_chksum_pseudo>
    6e88:	00a98823          	sb	a0,16(s3)
    6e8c:	8121                	srli	a0,a0,0x8
    6e8e:	00a988a3          	sb	a0,17(s3)
    6e92:	34b4                	lbu	a3,11(s1)
    6e94:	4799                	li	a5,6
    6e96:	4701                	li	a4,0
    6e98:	8622                	mv	a2,s0
    6e9a:	85a6                	mv	a1,s1
    6e9c:	854a                	mv	a0,s2
    6e9e:	a74fc0ef          	jal	ra,3112 <ip_output>
    6ea2:	854a                	mv	a0,s2
    6ea4:	9cafd0ef          	jal	ra,406e <pbuf_free>
    6ea8:	ae2f906f          	j	18a <__riscv_restore_4>
    6eac:	4a01                	li	s4,0
    6eae:	45d5                	li	a1,21
    6eb0:	b7a5                	j	6e18 <tcp_zero_window_probe+0x2a>
    6eb2:	4418                	lw	a4,8(s0)
    6eb4:	00492783          	lw	a5,4(s2)
    6eb8:	00070703          	lb	a4,0(a4)
    6ebc:	abd8                	sb	a4,20(a5)
    6ebe:	bf5d                	j	6e74 <tcp_zero_window_probe+0x86>

00006ec0 <udp_input>:
    6ec0:	a80f92ef          	jal	t0,140 <__riscv_save_12>
    6ec4:	4140                	lw	s0,4(a0)
    6ec6:	2506                	lhu	s1,8(a0)
    6ec8:	892a                	mv	s2,a0
    6eca:	301c                	lbu	a5,1(s0)
    6ecc:	2008                	lbu	a0,0(s0)
    6ece:	1141                	addi	sp,sp,-16
    6ed0:	07a2                	slli	a5,a5,0x8
    6ed2:	8d5d                	or	a0,a0,a5
    6ed4:	8a2e                	mv	s4,a1
    6ed6:	dbffb0ef          	jal	ra,2c94 <ntohs>
    6eda:	8121                	srli	a0,a0,0x8
    6edc:	893d                	andi	a0,a0,15
    6ede:	0509                	addi	a0,a0,2
    6ee0:	050a                	slli	a0,a0,0x2
    6ee2:	02a4c263          	blt	s1,a0,6f06 <udp_input+0x46>
    6ee6:	301c                	lbu	a5,1(s0)
    6ee8:	2008                	lbu	a0,0(s0)
    6eea:	07a2                	slli	a5,a5,0x8
    6eec:	8d5d                	or	a0,a0,a5
    6eee:	da7fb0ef          	jal	ra,2c94 <ntohs>
    6ef2:	00655593          	srli	a1,a0,0x6
    6ef6:	03c5f593          	andi	a1,a1,60
    6efa:	40b005b3          	neg	a1,a1
    6efe:	854a                	mv	a0,s2
    6f00:	900fd0ef          	jal	ra,4000 <pbuf_header>
    6f04:	c519                	beqz	a0,6f12 <udp_input+0x52>
    6f06:	854a                	mv	a0,s2
    6f08:	966fd0ef          	jal	ra,406e <pbuf_free>
    6f0c:	0141                	addi	sp,sp,16
    6f0e:	a6ef906f          	j	17c <__riscv_restore_12>
    6f12:	00492a83          	lw	s5,4(s2)
    6f16:	01040c13          	addi	s8,s0,16
    6f1a:	85d2                	mv	a1,s4
    6f1c:	8562                	mv	a0,s8
    6f1e:	a2afc0ef          	jal	ra,3148 <ip_addr_isbroadcast>
    6f22:	001ac783          	lbu	a5,1(s5)
    6f26:	8b2a                	mv	s6,a0
    6f28:	000ac503          	lbu	a0,0(s5)
    6f2c:	07a2                	slli	a5,a5,0x8
    6f2e:	8d5d                	or	a0,a0,a5
    6f30:	d65fb0ef          	jal	ra,2c94 <ntohs>
    6f34:	003ac783          	lbu	a5,3(s5)
    6f38:	8baa                	mv	s7,a0
    6f3a:	002ac503          	lbu	a0,2(s5)
    6f3e:	07a2                	slli	a5,a5,0x8
    6f40:	8d5d                	or	a0,a0,a5
    6f42:	d53fb0ef          	jal	ra,2c94 <ntohs>
    6f46:	04400793          	li	a5,68
    6f4a:	86aa                	mv	a3,a0
    6f4c:	06f51d63          	bne	a0,a5,6fc6 <udp_input+0x106>
    6f50:	04300793          	li	a5,67
    6f54:	12fb9963          	bne	s7,a5,7086 <udp_input+0x1c6>
    6f58:	020a2783          	lw	a5,32(s4)
    6f5c:	12078563          	beqz	a5,7086 <udp_input+0x1c6>
    6f60:	43c4                	lw	s1,4(a5)
    6f62:	12048263          	beqz	s1,7086 <udp_input+0x1c6>
    6f66:	40d4                	lw	a3,4(s1)
    6f68:	ce89                	beqz	a3,6f82 <udp_input+0xc2>
    6f6a:	3458                	lbu	a4,13(s0)
    6f6c:	245c                	lbu	a5,12(s0)
    6f6e:	0722                	slli	a4,a4,0x8
    6f70:	8f5d                	or	a4,a4,a5
    6f72:	247c                	lbu	a5,14(s0)
    6f74:	07c2                	slli	a5,a5,0x10
    6f76:	8f5d                	or	a4,a4,a5
    6f78:	347c                	lbu	a5,15(s0)
    6f7a:	07e2                	slli	a5,a5,0x18
    6f7c:	8fd9                	or	a5,a5,a4
    6f7e:	10f69463          	bne	a3,a5,7086 <udp_input+0x1c6>
    6f82:	007ac783          	lbu	a5,7(s5)
    6f86:	006ac703          	lbu	a4,6(s5)
    6f8a:	07a2                	slli	a5,a5,0x8
    6f8c:	8fd9                	or	a5,a5,a4
    6f8e:	cb99                	beqz	a5,6fa4 <udp_input+0xe4>
    6f90:	00895703          	lhu	a4,8(s2)
    6f94:	46c5                	li	a3,17
    6f96:	8662                	mv	a2,s8
    6f98:	00c40593          	addi	a1,s0,12
    6f9c:	854a                	mv	a0,s2
    6f9e:	70a000ef          	jal	ra,76a8 <inet_chksum_pseudo>
    6fa2:	f135                	bnez	a0,6f06 <udp_input+0x46>
    6fa4:	55e1                	li	a1,-8
    6fa6:	854a                	mv	a0,s2
    6fa8:	858fd0ef          	jal	ra,4000 <pbuf_header>
    6fac:	fd29                	bnez	a0,6f06 <udp_input+0x46>
    6fae:	0e048c63          	beqz	s1,70a6 <udp_input+0x1e6>
    6fb2:	4c9c                	lw	a5,24(s1)
    6fb4:	dba9                	beqz	a5,6f06 <udp_input+0x46>
    6fb6:	4cc8                	lw	a0,28(s1)
    6fb8:	875e                	mv	a4,s7
    6fba:	00c40693          	addi	a3,s0,12
    6fbe:	864a                	mv	a2,s2
    6fc0:	85a6                	mv	a1,s1
    6fc2:	9782                	jalr	a5
    6fc4:	b7a1                	j	6f0c <udp_input+0x4c>
    6fc6:	9401a483          	lw	s1,-1728(gp) # 200001b0 <udp_pcbs>
    6fca:	4d01                	li	s10,0
    6fcc:	4d81                	li	s11,0
    6fce:	94018c93          	addi	s9,gp,-1728 # 200001b0 <udp_pcbs>
    6fd2:	76c00613          	li	a2,1900
    6fd6:	e489                	bnez	s1,6fe0 <udp_input+0x120>
    6fd8:	0a0d0763          	beqz	s10,7086 <udp_input+0x1c6>
    6fdc:	84ea                	mv	s1,s10
    6fde:	b755                	j	6f82 <udp_input+0xc2>
    6fe0:	28be                	lhu	a5,18(s1)
    6fe2:	08d79c63          	bne	a5,a3,707a <udp_input+0x1ba>
    6fe6:	4098                	lw	a4,0(s1)
    6fe8:	040b1563          	bnez	s6,7032 <udp_input+0x172>
    6fec:	e339                	bnez	a4,7032 <udp_input+0x172>
    6fee:	000d1663          	bnez	s10,6ffa <udp_input+0x13a>
    6ff2:	289c                	lbu	a5,16(s1)
    6ff4:	8b91                	andi	a5,a5,4
    6ff6:	e391                	bnez	a5,6ffa <udp_input+0x13a>
    6ff8:	8d26                	mv	s10,s1
    6ffa:	28de                	lhu	a5,20(s1)
    6ffc:	09779263          	bne	a5,s7,7080 <udp_input+0x1c0>
    7000:	40cc                	lw	a1,4(s1)
    7002:	cd89                	beqz	a1,701c <udp_input+0x15c>
    7004:	3458                	lbu	a4,13(s0)
    7006:	245c                	lbu	a5,12(s0)
    7008:	0722                	slli	a4,a4,0x8
    700a:	8f5d                	or	a4,a4,a5
    700c:	247c                	lbu	a5,14(s0)
    700e:	07c2                	slli	a5,a5,0x10
    7010:	8f5d                	or	a4,a4,a5
    7012:	347c                	lbu	a5,15(s0)
    7014:	07e2                	slli	a5,a5,0x18
    7016:	8fd9                	or	a5,a5,a4
    7018:	06f59463          	bne	a1,a5,7080 <udp_input+0x1c0>
    701c:	f60d83e3          	beqz	s11,6f82 <udp_input+0xc2>
    7020:	44dc                	lw	a5,12(s1)
    7022:	00fda623          	sw	a5,12(s11)
    7026:	000ca783          	lw	a5,0(s9)
    702a:	009ca023          	sw	s1,0(s9)
    702e:	c4dc                	sw	a5,12(s1)
    7030:	bf89                	j	6f82 <udp_input+0xc2>
    7032:	381c                	lbu	a5,17(s0)
    7034:	01044983          	lbu	s3,16(s0)
    7038:	07a2                	slli	a5,a5,0x8
    703a:	0137e7b3          	or	a5,a5,s3
    703e:	01244983          	lbu	s3,18(s0)
    7042:	09c2                	slli	s3,s3,0x10
    7044:	00f9e7b3          	or	a5,s3,a5
    7048:	01344983          	lbu	s3,19(s0)
    704c:	09e2                	slli	s3,s3,0x18
    704e:	00f9e9b3          	or	s3,s3,a5
    7052:	f8e98ee3          	beq	s3,a4,6fee <udp_input+0x12e>
    7056:	f0000537          	lui	a0,0xf0000
    705a:	c636                	sw	a3,12(sp)
    705c:	c6bfb0ef          	jal	ra,2cc6 <ntohl>
    7060:	00a9f9b3          	and	s3,s3,a0
    7064:	e0000537          	lui	a0,0xe0000
    7068:	c5ffb0ef          	jal	ra,2cc6 <ntohl>
    706c:	46b2                	lw	a3,12(sp)
    706e:	76c00613          	li	a2,1900
    7072:	f6a98ee3          	beq	s3,a0,6fee <udp_input+0x12e>
    7076:	f60b1ce3          	bnez	s6,6fee <udp_input+0x12e>
    707a:	8da6                	mv	s11,s1
    707c:	44c4                	lw	s1,12(s1)
    707e:	bfa1                	j	6fd6 <udp_input+0x116>
    7080:	fec69de3          	bne	a3,a2,707a <udp_input+0x1ba>
    7084:	bdfd                	j	6f82 <udp_input+0xc2>
    7086:	3818                	lbu	a4,17(s0)
    7088:	281c                	lbu	a5,16(s0)
    708a:	0722                	slli	a4,a4,0x8
    708c:	8f5d                	or	a4,a4,a5
    708e:	283c                	lbu	a5,18(s0)
    7090:	07c2                	slli	a5,a5,0x10
    7092:	8f5d                	or	a4,a4,a5
    7094:	383c                	lbu	a5,19(s0)
    7096:	07e2                	slli	a5,a5,0x18
    7098:	8fd9                	or	a5,a5,a4
    709a:	004a2703          	lw	a4,4(s4)
    709e:	e6f714e3          	bne	a4,a5,6f06 <udp_input+0x46>
    70a2:	4481                	li	s1,0
    70a4:	bdf9                	j	6f82 <udp_input+0xc2>
    70a6:	e60b10e3          	bnez	s6,6f06 <udp_input+0x46>
    70aa:	381c                	lbu	a5,17(s0)
    70ac:	2804                	lbu	s1,16(s0)
    70ae:	f0000537          	lui	a0,0xf0000
    70b2:	07a2                	slli	a5,a5,0x8
    70b4:	8fc5                	or	a5,a5,s1
    70b6:	2824                	lbu	s1,18(s0)
    70b8:	04c2                	slli	s1,s1,0x10
    70ba:	8fc5                	or	a5,a5,s1
    70bc:	3824                	lbu	s1,19(s0)
    70be:	04e2                	slli	s1,s1,0x18
    70c0:	8cdd                	or	s1,s1,a5
    70c2:	c05fb0ef          	jal	ra,2cc6 <ntohl>
    70c6:	8ce9                	and	s1,s1,a0
    70c8:	e0000537          	lui	a0,0xe0000
    70cc:	bfbfb0ef          	jal	ra,2cc6 <ntohl>
    70d0:	e2a48be3          	beq	s1,a0,6f06 <udp_input+0x46>
    70d4:	301c                	lbu	a5,1(s0)
    70d6:	2008                	lbu	a0,0(s0)
    70d8:	07a2                	slli	a5,a5,0x8
    70da:	8d5d                	or	a0,a0,a5
    70dc:	bb9fb0ef          	jal	ra,2c94 <ntohs>
    70e0:	00855593          	srli	a1,a0,0x8
    70e4:	89bd                	andi	a1,a1,15
    70e6:	0589                	addi	a1,a1,2
    70e8:	058a                	slli	a1,a1,0x2
    70ea:	854a                	mv	a0,s2
    70ec:	f15fc0ef          	jal	ra,4000 <pbuf_header>
    70f0:	458d                	li	a1,3
    70f2:	854a                	mv	a0,s2
    70f4:	2339                	jal	7602 <icmp_dest_unreach>
    70f6:	bd01                	j	6f06 <udp_input+0x46>

000070f8 <udp_bind>:
    70f8:	9401a883          	lw	a7,-1728(gp) # 200001b0 <udp_pcbs>
    70fc:	86aa                	mv	a3,a0
    70fe:	4301                	li	t1,0
    7100:	87c6                	mv	a5,a7
    7102:	94018813          	addi	a6,gp,-1728 # 200001b0 <udp_pcbs>
    7106:	e79d                	bnez	a5,7134 <udp_bind+0x3c>
    7108:	c999                	beqz	a1,711e <udp_bind+0x26>
    710a:	3198                	lbu	a4,1(a1)
    710c:	219c                	lbu	a5,0(a1)
    710e:	0722                	slli	a4,a4,0x8
    7110:	8f5d                	or	a4,a4,a5
    7112:	21bc                	lbu	a5,2(a1)
    7114:	07c2                	slli	a5,a5,0x10
    7116:	8f5d                	or	a4,a4,a5
    7118:	31bc                	lbu	a5,3(a1)
    711a:	07e2                	slli	a5,a5,0x18
    711c:	8fd9                	or	a5,a5,a4
    711e:	c29c                	sw	a5,0(a3)
    7120:	c625                	beqz	a2,7188 <udp_bind+0x90>
    7122:	aab2                	sh	a2,18(a3)
    7124:	4501                	li	a0,0
    7126:	00031663          	bnez	t1,7132 <udp_bind+0x3a>
    712a:	0116a623          	sw	a7,12(a3)
    712e:	00d82023          	sw	a3,0(a6)
    7132:	8082                	ret
    7134:	02d78b63          	beq	a5,a3,716a <udp_bind+0x72>
    7138:	2bba                	lhu	a4,18(a5)
    713a:	02c71663          	bne	a4,a2,7166 <udp_bind+0x6e>
    713e:	0007ae03          	lw	t3,0(a5) # 5000 <tcp_receive+0x102>
    7142:	000e1463          	bnez	t3,714a <udp_bind+0x52>
    7146:	5555                	li	a0,-11
    7148:	8082                	ret
    714a:	ddf5                	beqz	a1,7146 <udp_bind+0x4e>
    714c:	3188                	lbu	a0,1(a1)
    714e:	2198                	lbu	a4,0(a1)
    7150:	0522                	slli	a0,a0,0x8
    7152:	8d59                	or	a0,a0,a4
    7154:	21b8                	lbu	a4,2(a1)
    7156:	0742                	slli	a4,a4,0x10
    7158:	8d59                	or	a0,a0,a4
    715a:	31b8                	lbu	a4,3(a1)
    715c:	0762                	slli	a4,a4,0x18
    715e:	8f49                	or	a4,a4,a0
    7160:	d37d                	beqz	a4,7146 <udp_bind+0x4e>
    7162:	feee02e3          	beq	t3,a4,7146 <udp_bind+0x4e>
    7166:	47dc                	lw	a5,12(a5)
    7168:	bf79                	j	7106 <udp_bind+0xe>
    716a:	4305                	li	t1,1
    716c:	bfed                	j	7166 <udp_bind+0x6e>
    716e:	2bae                	lhu	a1,18(a5)
    7170:	00c59a63          	bne	a1,a2,7184 <udp_bind+0x8c>
    7174:	0605                	addi	a2,a2,1
    7176:	0642                	slli	a2,a2,0x10
    7178:	8241                	srli	a2,a2,0x10
    717a:	87c6                	mv	a5,a7
    717c:	d3dd                	beqz	a5,7122 <udp_bind+0x2a>
    717e:	fee618e3          	bne	a2,a4,716e <udp_bind+0x76>
    7182:	b7d1                	j	7146 <udp_bind+0x4e>
    7184:	47dc                	lw	a5,12(a5)
    7186:	bfdd                	j	717c <udp_bind+0x84>
    7188:	6721                	lui	a4,0x8
    718a:	87c6                	mv	a5,a7
    718c:	6605                	lui	a2,0x1
    718e:	177d                	addi	a4,a4,-1
    7190:	b7f5                	j	717c <udp_bind+0x84>

00007192 <udp_sendto_if>:
    7192:	fc5f82ef          	jal	t0,156 <__riscv_save_4>
    7196:	293e                	lhu	a5,18(a0)
    7198:	892a                	mv	s2,a0
    719a:	89ae                	mv	s3,a1
    719c:	8ab2                	mv	s5,a2
    719e:	8b36                	mv	s6,a3
    71a0:	8a3a                	mv	s4,a4
    71a2:	c7ad                	beqz	a5,720c <udp_sendto_if+0x7a>
    71a4:	45a1                	li	a1,8
    71a6:	854e                	mv	a0,s3
    71a8:	e59fc0ef          	jal	ra,4000 <pbuf_header>
    71ac:	84ce                	mv	s1,s3
    71ae:	cd01                	beqz	a0,71c6 <udp_sendto_if+0x34>
    71b0:	4601                	li	a2,0
    71b2:	45a1                	li	a1,8
    71b4:	4505                	li	a0,1
    71b6:	f07fc0ef          	jal	ra,40bc <pbuf_alloc>
    71ba:	84aa                	mv	s1,a0
    71bc:	547d                	li	s0,-1
    71be:	cd29                	beqz	a0,7218 <udp_sendto_if+0x86>
    71c0:	85ce                	mv	a1,s3
    71c2:	8cafd0ef          	jal	ra,428c <pbuf_chain>
    71c6:	01295503          	lhu	a0,18(s2)
    71ca:	40c0                	lw	s0,4(s1)
    71cc:	abbfb0ef          	jal	ra,2c86 <htons>
    71d0:	a008                	sb	a0,0(s0)
    71d2:	8121                	srli	a0,a0,0x8
    71d4:	b008                	sb	a0,1(s0)
    71d6:	855a                	mv	a0,s6
    71d8:	aaffb0ef          	jal	ra,2c86 <htons>
    71dc:	00092783          	lw	a5,0(s2)
    71e0:	a028                	sb	a0,2(s0)
    71e2:	8121                	srli	a0,a0,0x8
    71e4:	b028                	sb	a0,3(s0)
    71e6:	00040323          	sb	zero,6(s0)
    71ea:	000403a3          	sb	zero,7(s0)
    71ee:	004a0b13          	addi	s6,s4,4
    71f2:	c795                	beqz	a5,721e <udp_sendto_if+0x8c>
    71f4:	004a2703          	lw	a4,4(s4)
    71f8:	8b4a                	mv	s6,s2
    71fa:	02e78263          	beq	a5,a4,721e <udp_sendto_if+0x8c>
    71fe:	545d                	li	s0,-9
    7200:	01348c63          	beq	s1,s3,7218 <udp_sendto_if+0x86>
    7204:	8526                	mv	a0,s1
    7206:	e69fc0ef          	jal	ra,406e <pbuf_free>
    720a:	a039                	j	7218 <udp_sendto_if+0x86>
    720c:	4601                	li	a2,0
    720e:	85aa                	mv	a1,a0
    7210:	ee9ff0ef          	jal	ra,70f8 <udp_bind>
    7214:	842a                	mv	s0,a0
    7216:	d559                	beqz	a0,71a4 <udp_sendto_if+0x12>
    7218:	8522                	mv	a0,s0
    721a:	f71f806f          	j	18a <__riscv_restore_4>
    721e:	248a                	lhu	a0,8(s1)
    7220:	a67fb0ef          	jal	ra,2c86 <htons>
    7224:	a048                	sb	a0,4(s0)
    7226:	8121                	srli	a0,a0,0x8
    7228:	b048                	sb	a0,5(s0)
    722a:	01094783          	lbu	a5,16(s2)
    722e:	8b85                	andi	a5,a5,1
    7230:	eb99                	bnez	a5,7246 <udp_sendto_if+0xb4>
    7232:	249a                	lhu	a4,8(s1)
    7234:	46c5                	li	a3,17
    7236:	8656                	mv	a2,s5
    7238:	85da                	mv	a1,s6
    723a:	8526                	mv	a0,s1
    723c:	21b5                	jal	76a8 <inet_chksum_pseudo>
    723e:	c10d                	beqz	a0,7260 <udp_sendto_if+0xce>
    7240:	a068                	sb	a0,6(s0)
    7242:	8121                	srli	a0,a0,0x8
    7244:	b068                	sb	a0,7(s0)
    7246:	00a94703          	lbu	a4,10(s2)
    724a:	00b94683          	lbu	a3,11(s2)
    724e:	8852                	mv	a6,s4
    7250:	47c5                	li	a5,17
    7252:	8656                	mv	a2,s5
    7254:	85da                	mv	a1,s6
    7256:	8526                	mv	a0,s1
    7258:	d61fb0ef          	jal	ra,2fb8 <ip_output_if>
    725c:	842a                	mv	s0,a0
    725e:	b74d                	j	7200 <udp_sendto_if+0x6e>
    7260:	57fd                	li	a5,-1
    7262:	a07c                	sb	a5,6(s0)
    7264:	b07c                	sb	a5,7(s0)
    7266:	b7c5                	j	7246 <udp_sendto_if+0xb4>

00007268 <udp_sendto>:
    7268:	f09f82ef          	jal	t0,170 <__riscv_save_0>
    726c:	1141                	addi	sp,sp,-16
    726e:	842a                	mv	s0,a0
    7270:	8532                	mv	a0,a2
    7272:	c62e                	sw	a1,12(sp)
    7274:	c436                	sw	a3,8(sp)
    7276:	c232                	sw	a2,4(sp)
    7278:	a5bfb0ef          	jal	ra,2cd2 <ip_route>
    727c:	c919                	beqz	a0,7292 <udp_sendto+0x2a>
    727e:	46a2                	lw	a3,8(sp)
    7280:	4612                	lw	a2,4(sp)
    7282:	45b2                	lw	a1,12(sp)
    7284:	872a                	mv	a4,a0
    7286:	8522                	mv	a0,s0
    7288:	f0bff0ef          	jal	ra,7192 <udp_sendto_if>
    728c:	0141                	addi	sp,sp,16
    728e:	f07f806f          	j	194 <__riscv_restore_0>
    7292:	5571                	li	a0,-4
    7294:	bfe5                	j	728c <udp_sendto+0x24>

00007296 <udp_connect>:
    7296:	edbf82ef          	jal	t0,170 <__riscv_save_0>
    729a:	293e                	lhu	a5,18(a0)
    729c:	842a                	mv	s0,a0
    729e:	84ae                	mv	s1,a1
    72a0:	8932                	mv	s2,a2
    72a2:	cbb1                	beqz	a5,72f6 <udp_connect+0x60>
    72a4:	4781                	li	a5,0
    72a6:	c899                	beqz	s1,72bc <udp_connect+0x26>
    72a8:	3098                	lbu	a4,1(s1)
    72aa:	209c                	lbu	a5,0(s1)
    72ac:	0722                	slli	a4,a4,0x8
    72ae:	8f5d                	or	a4,a4,a5
    72b0:	20bc                	lbu	a5,2(s1)
    72b2:	07c2                	slli	a5,a5,0x10
    72b4:	8f5d                	or	a4,a4,a5
    72b6:	30bc                	lbu	a5,3(s1)
    72b8:	07e2                	slli	a5,a5,0x18
    72ba:	8fd9                	or	a5,a5,a4
    72bc:	2818                	lbu	a4,16(s0)
    72be:	c05c                	sw	a5,4(s0)
    72c0:	01241a23          	sh	s2,20(s0)
    72c4:	00476713          	ori	a4,a4,4
    72c8:	a818                	sb	a4,16(s0)
    72ca:	4018                	lw	a4,0(s0)
    72cc:	ef05                	bnez	a4,7304 <udp_connect+0x6e>
    72ce:	cf85                	beqz	a5,7306 <udp_connect+0x70>
    72d0:	00440513          	addi	a0,s0,4
    72d4:	9fffb0ef          	jal	ra,2cd2 <ip_route>
    72d8:	87aa                	mv	a5,a0
    72da:	5571                	li	a0,-4
    72dc:	c395                	beqz	a5,7300 <udp_connect+0x6a>
    72de:	43dc                	lw	a5,4(a5)
    72e0:	c01c                	sw	a5,0(s0)
    72e2:	9401a683          	lw	a3,-1728(gp) # 200001b0 <udp_pcbs>
    72e6:	94018793          	addi	a5,gp,-1728 # 200001b0 <udp_pcbs>
    72ea:	8736                	mv	a4,a3
    72ec:	e305                	bnez	a4,730c <udp_connect+0x76>
    72ee:	c454                	sw	a3,12(s0)
    72f0:	c380                	sw	s0,0(a5)
    72f2:	4501                	li	a0,0
    72f4:	a031                	j	7300 <udp_connect+0x6a>
    72f6:	4601                	li	a2,0
    72f8:	85aa                	mv	a1,a0
    72fa:	dffff0ef          	jal	ra,70f8 <udp_bind>
    72fe:	d15d                	beqz	a0,72a4 <udp_connect+0xe>
    7300:	e95f806f          	j	194 <__riscv_restore_0>
    7304:	fff9                	bnez	a5,72e2 <udp_connect+0x4c>
    7306:	00042023          	sw	zero,0(s0)
    730a:	bfe1                	j	72e2 <udp_connect+0x4c>
    730c:	fe8703e3          	beq	a4,s0,72f2 <udp_connect+0x5c>
    7310:	4758                	lw	a4,12(a4)
    7312:	bfe9                	j	72ec <udp_connect+0x56>

00007314 <udp_recv>:
    7314:	cd0c                	sw	a1,24(a0)
    7316:	cd50                	sw	a2,28(a0)
    7318:	8082                	ret

0000731a <udp_new>:
    731a:	e57f82ef          	jal	t0,170 <__riscv_save_0>
    731e:	4505                	li	a0,1
    7320:	b5dfc0ef          	jal	ra,3e7c <memp_malloc>
    7324:	842a                	mv	s0,a0
    7326:	c909                	beqz	a0,7338 <udp_new+0x1e>
    7328:	02000613          	li	a2,32
    732c:	4581                	li	a1,0
    732e:	e73f80ef          	jal	ra,1a0 <memset>
    7332:	f8000793          	li	a5,-128
    7336:	b43c                	sb	a5,11(s0)
    7338:	8522                	mv	a0,s0
    733a:	e5bf806f          	j	194 <__riscv_restore_0>

0000733e <icmp_send_response.isra.0>:
    733e:	e19f82ef          	jal	t0,156 <__riscv_save_4>
    7342:	842a                	mv	s0,a0
    7344:	8a2e                	mv	s4,a1
    7346:	89b2                	mv	s3,a2
    7348:	02400593          	li	a1,36
    734c:	4601                	li	a2,0
    734e:	4505                	li	a0,1
    7350:	d6dfc0ef          	jal	ra,40bc <pbuf_alloc>
    7354:	cd29                	beqz	a0,73ae <icmp_send_response.isra.0+0x70>
    7356:	00042903          	lw	s2,0(s0)
    735a:	4140                	lw	s0,4(a0)
    735c:	84aa                	mv	s1,a0
    735e:	4671                	li	a2,28
    7360:	85ca                	mv	a1,s2
    7362:	01440023          	sb	s4,0(s0)
    7366:	013400a3          	sb	s3,1(s0)
    736a:	00040223          	sb	zero,4(s0)
    736e:	000402a3          	sb	zero,5(s0)
    7372:	00040323          	sb	zero,6(s0)
    7376:	000403a3          	sb	zero,7(s0)
    737a:	00840513          	addi	a0,s0,8
    737e:	294d                	jal	7830 <memcpy>
    7380:	24ae                	lhu	a1,10(s1)
    7382:	00040123          	sb	zero,2(s0)
    7386:	000401a3          	sb	zero,3(s0)
    738a:	8522                	mv	a0,s0
    738c:	211d                	jal	77b2 <inet_chksum>
    738e:	a028                	sb	a0,2(s0)
    7390:	8121                	srli	a0,a0,0x8
    7392:	b028                	sb	a0,3(s0)
    7394:	4785                	li	a5,1
    7396:	4701                	li	a4,0
    7398:	08000693          	li	a3,128
    739c:	00c90613          	addi	a2,s2,12
    73a0:	4581                	li	a1,0
    73a2:	8526                	mv	a0,s1
    73a4:	d6ffb0ef          	jal	ra,3112 <ip_output>
    73a8:	8526                	mv	a0,s1
    73aa:	cc5fc0ef          	jal	ra,406e <pbuf_free>
    73ae:	dddf806f          	j	18a <__riscv_restore_4>

000073b2 <icmp_input>:
    73b2:	d97f82ef          	jal	t0,148 <__riscv_save_10>
    73b6:	4140                	lw	s0,4(a0)
    73b8:	84aa                	mv	s1,a0
    73ba:	1141                	addi	sp,sp,-16
    73bc:	301c                	lbu	a5,1(s0)
    73be:	2008                	lbu	a0,0(s0)
    73c0:	89ae                	mv	s3,a1
    73c2:	07a2                	slli	a5,a5,0x8
    73c4:	8d5d                	or	a0,a0,a5
    73c6:	8cffb0ef          	jal	ra,2c94 <ntohs>
    73ca:	00655913          	srli	s2,a0,0x6
    73ce:	03c97913          	andi	s2,s2,60
    73d2:	41200ab3          	neg	s5,s2
    73d6:	0ac2                	slli	s5,s5,0x10
    73d8:	410ada93          	srai	s5,s5,0x10
    73dc:	85d6                	mv	a1,s5
    73de:	8526                	mv	a0,s1
    73e0:	c21fc0ef          	jal	ra,4000 <pbuf_header>
    73e4:	e139                	bnez	a0,742a <icmp_input+0x78>
    73e6:	249e                	lhu	a5,8(s1)
    73e8:	468d                	li	a3,3
    73ea:	04f6f063          	bgeu	a3,a5,742a <icmp_input+0x78>
    73ee:	40dc                	lw	a5,4(s1)
    73f0:	2398                	lbu	a4,0(a5)
    73f2:	04d71263          	bne	a4,a3,7436 <icmp_input+0x84>
    73f6:	2798                	lbu	a4,8(a5)
    73f8:	00878693          	addi	a3,a5,8
    73fc:	3f88                	lbu	a0,25(a5)
    73fe:	8b3d                	andi	a4,a4,15
    7400:	070a                	slli	a4,a4,0x2
    7402:	9736                	add	a4,a4,a3
    7404:	232c                	lbu	a1,2(a4)
    7406:	00374803          	lbu	a6,3(a4) # 8003 <__smakebuf_r+0x5>
    740a:	2f98                	lbu	a4,24(a5)
    740c:	0522                	slli	a0,a0,0x8
    740e:	3394                	lbu	a3,1(a5)
    7410:	8d59                	or	a0,a0,a4
    7412:	2fb8                	lbu	a4,26(a5)
    7414:	3b90                	lbu	a2,17(a5)
    7416:	05a2                	slli	a1,a1,0x8
    7418:	0742                	slli	a4,a4,0x10
    741a:	8f49                	or	a4,a4,a0
    741c:	3fa8                	lbu	a0,27(a5)
    741e:	0105e5b3          	or	a1,a1,a6
    7422:	0562                	slli	a0,a0,0x18
    7424:	8d59                	or	a0,a0,a4
    7426:	ef5fa0ef          	jal	ra,231a <LwipUnreachPort>
    742a:	8526                	mv	a0,s1
    742c:	c43fc0ef          	jal	ra,406e <pbuf_free>
    7430:	0141                	addi	sp,sp,16
    7432:	d4ff806f          	j	180 <__riscv_restore_10>
    7436:	47a1                	li	a5,8
    7438:	fef719e3          	bne	a4,a5,742a <icmp_input+0x78>
    743c:	381c                	lbu	a5,17(s0)
    743e:	01044a03          	lbu	s4,16(s0)
    7442:	f0000537          	lui	a0,0xf0000
    7446:	07a2                	slli	a5,a5,0x8
    7448:	0147e7b3          	or	a5,a5,s4
    744c:	01244a03          	lbu	s4,18(s0)
    7450:	4b01                	li	s6,0
    7452:	0a42                	slli	s4,s4,0x10
    7454:	00fa67b3          	or	a5,s4,a5
    7458:	01344a03          	lbu	s4,19(s0)
    745c:	0a62                	slli	s4,s4,0x18
    745e:	00fa6a33          	or	s4,s4,a5
    7462:	865fb0ef          	jal	ra,2cc6 <ntohl>
    7466:	8c2a                	mv	s8,a0
    7468:	e0000537          	lui	a0,0xe0000
    746c:	85bfb0ef          	jal	ra,2cc6 <ntohl>
    7470:	8baa                	mv	s7,a0
    7472:	85ce                	mv	a1,s3
    7474:	01040513          	addi	a0,s0,16
    7478:	cd1fb0ef          	jal	ra,3148 <ip_addr_isbroadcast>
    747c:	e519                	bnez	a0,748a <icmp_input+0xd8>
    747e:	018a7533          	and	a0,s4,s8
    7482:	41750533          	sub	a0,a0,s7
    7486:	00a03b33          	snez	s6,a0
    748a:	e83fa0ef          	jal	ra,230c <QueryPingEnable>
    748e:	dd51                	beqz	a0,742a <icmp_input+0x78>
    7490:	f80b0de3          	beqz	s6,742a <icmp_input+0x78>
    7494:	249a                	lhu	a4,8(s1)
    7496:	479d                	li	a5,7
    7498:	f8e7f9e3          	bgeu	a5,a4,742a <icmp_input+0x78>
    749c:	8526                	mv	a0,s1
    749e:	2625                	jal	77c6 <inet_chksum_pbuf>
    74a0:	f549                	bnez	a0,742a <icmp_input+0x78>
    74a2:	0942                	slli	s2,s2,0x10
    74a4:	02200593          	li	a1,34
    74a8:	8526                	mv	a0,s1
    74aa:	41095913          	srai	s2,s2,0x10
    74ae:	b53fc0ef          	jal	ra,4000 <pbuf_header>
    74b2:	12050463          	beqz	a0,75da <icmp_input+0x228>
    74b6:	85ca                	mv	a1,s2
    74b8:	8526                	mv	a0,s1
    74ba:	b47fc0ef          	jal	ra,4000 <pbuf_header>
    74be:	f535                	bnez	a0,742a <icmp_input+0x78>
    74c0:	248e                	lhu	a1,8(s1)
    74c2:	4601                	li	a2,0
    74c4:	4509                	li	a0,2
    74c6:	bf7fc0ef          	jal	ra,40bc <pbuf_alloc>
    74ca:	8a2a                	mv	s4,a0
    74cc:	dd39                	beqz	a0,742a <icmp_input+0x78>
    74ce:	85a6                	mv	a1,s1
    74d0:	dd1fc0ef          	jal	ra,42a0 <pbuf_copy>
    74d4:	f939                	bnez	a0,742a <icmp_input+0x78>
    74d6:	85d6                	mv	a1,s5
    74d8:	8552                	mv	a0,s4
    74da:	004a2403          	lw	s0,4(s4)
    74de:	b23fc0ef          	jal	ra,4000 <pbuf_header>
    74e2:	f521                	bnez	a0,742a <icmp_input+0x78>
    74e4:	8526                	mv	a0,s1
    74e6:	b89fc0ef          	jal	ra,406e <pbuf_free>
    74ea:	84d2                	mv	s1,s4
    74ec:	3458                	lbu	a4,13(s0)
    74ee:	245c                	lbu	a5,12(s0)
    74f0:	3814                	lbu	a3,17(s0)
    74f2:	0722                	slli	a4,a4,0x8
    74f4:	8f5d                	or	a4,a4,a5
    74f6:	247c                	lbu	a5,14(s0)
    74f8:	06a2                	slli	a3,a3,0x8
    74fa:	0044aa03          	lw	s4,4(s1)
    74fe:	07c2                	slli	a5,a5,0x10
    7500:	8f5d                	or	a4,a4,a5
    7502:	347c                	lbu	a5,15(s0)
    7504:	653d                	lui	a0,0xf
    7506:	7ff50513          	addi	a0,a0,2047 # f7ff <_data_lma+0x698b>
    750a:	07e2                	slli	a5,a5,0x18
    750c:	8fd9                	or	a5,a5,a4
    750e:	2818                	lbu	a4,16(s0)
    7510:	a81c                	sb	a5,16(s0)
    7512:	8ed9                	or	a3,a3,a4
    7514:	2838                	lbu	a4,18(s0)
    7516:	0742                	slli	a4,a4,0x10
    7518:	8ed9                	or	a3,a3,a4
    751a:	3838                	lbu	a4,19(s0)
    751c:	0762                	slli	a4,a4,0x18
    751e:	8f55                	or	a4,a4,a3
    7520:	00875693          	srli	a3,a4,0x8
    7524:	a458                	sb	a4,12(s0)
    7526:	b454                	sb	a3,13(s0)
    7528:	01075693          	srli	a3,a4,0x10
    752c:	8361                	srli	a4,a4,0x18
    752e:	b478                	sb	a4,15(s0)
    7530:	0087d713          	srli	a4,a5,0x8
    7534:	b818                	sb	a4,17(s0)
    7536:	0107d713          	srli	a4,a5,0x10
    753a:	83e1                	srli	a5,a5,0x18
    753c:	a474                	sb	a3,14(s0)
    753e:	a838                	sb	a4,18(s0)
    7540:	b83c                	sb	a5,19(s0)
    7542:	003a4a83          	lbu	s5,3(s4)
    7546:	002a4783          	lbu	a5,2(s4)
    754a:	000a0023          	sb	zero,0(s4)
    754e:	0aa2                	slli	s5,s5,0x8
    7550:	00faeab3          	or	s5,s5,a5
    7554:	f32fb0ef          	jal	ra,2c86 <htons>
    7558:	08aae963          	bltu	s5,a0,75ea <icmp_input+0x238>
    755c:	6505                	lui	a0,0x1
    755e:	80050513          	addi	a0,a0,-2048 # 800 <__stack_size>
    7562:	f24fb0ef          	jal	ra,2c86 <htons>
    7566:	003a4783          	lbu	a5,3(s4)
    756a:	002a4703          	lbu	a4,2(s4)
    756e:	07a2                	slli	a5,a5,0x8
    7570:	8fd9                	or	a5,a5,a4
    7572:	0785                	addi	a5,a5,1
    7574:	953e                	add	a0,a0,a5
    7576:	0542                	slli	a0,a0,0x10
    7578:	8141                	srli	a0,a0,0x10
    757a:	00aa0123          	sb	a0,2(s4)
    757e:	8121                	srli	a0,a0,0x8
    7580:	00aa01a3          	sb	a0,3(s4)
    7584:	341c                	lbu	a5,9(s0)
    7586:	2408                	lbu	a0,8(s0)
    7588:	07a2                	slli	a5,a5,0x8
    758a:	8d5d                	or	a0,a0,a5
    758c:	f08fb0ef          	jal	ra,2c94 <ntohs>
    7590:	67a1                	lui	a5,0x8
    7592:	0ff57513          	andi	a0,a0,255
    7596:	8d5d                	or	a0,a0,a5
    7598:	eeefb0ef          	jal	ra,2c86 <htons>
    759c:	a408                	sb	a0,8(s0)
    759e:	8121                	srli	a0,a0,0x8
    75a0:	b408                	sb	a0,9(s0)
    75a2:	45d1                	li	a1,20
    75a4:	00040523          	sb	zero,10(s0)
    75a8:	000405a3          	sb	zero,11(s0)
    75ac:	8522                	mv	a0,s0
    75ae:	2411                	jal	77b2 <inet_chksum>
    75b0:	a428                	sb	a0,10(s0)
    75b2:	8121                	srli	a0,a0,0x8
    75b4:	b428                	sb	a0,11(s0)
    75b6:	85ca                	mv	a1,s2
    75b8:	8526                	mv	a0,s1
    75ba:	a47fc0ef          	jal	ra,4000 <pbuf_header>
    75be:	e60516e3          	bnez	a0,742a <icmp_input+0x78>
    75c2:	884e                	mv	a6,s3
    75c4:	4785                	li	a5,1
    75c6:	4701                	li	a4,0
    75c8:	08000693          	li	a3,128
    75cc:	4601                	li	a2,0
    75ce:	00c40593          	addi	a1,s0,12
    75d2:	8526                	mv	a0,s1
    75d4:	9e5fb0ef          	jal	ra,2fb8 <ip_output_if>
    75d8:	bd89                	j	742a <icmp_input+0x78>
    75da:	fde00593          	li	a1,-34
    75de:	8526                	mv	a0,s1
    75e0:	a21fc0ef          	jal	ra,4000 <pbuf_header>
    75e4:	f00504e3          	beqz	a0,74ec <icmp_input+0x13a>
    75e8:	b589                	j	742a <icmp_input+0x78>
    75ea:	6505                	lui	a0,0x1
    75ec:	80050513          	addi	a0,a0,-2048 # 800 <__stack_size>
    75f0:	e96fb0ef          	jal	ra,2c86 <htons>
    75f4:	003a4783          	lbu	a5,3(s4)
    75f8:	002a4703          	lbu	a4,2(s4)
    75fc:	07a2                	slli	a5,a5,0x8
    75fe:	8fd9                	or	a5,a5,a4
    7600:	bf95                	j	7574 <icmp_input+0x1c2>

00007602 <icmp_dest_unreach>:
    7602:	b6ff82ef          	jal	t0,170 <__riscv_save_0>
    7606:	0ff5f613          	andi	a2,a1,255
    760a:	0511                	addi	a0,a0,4
    760c:	458d                	li	a1,3
    760e:	d31ff0ef          	jal	ra,733e <icmp_send_response.isra.0>
    7612:	b83f806f          	j	194 <__riscv_restore_0>

00007616 <icmp_time_exceeded>:
    7616:	b5bf82ef          	jal	t0,170 <__riscv_save_0>
    761a:	0ff5f613          	andi	a2,a1,255
    761e:	0511                	addi	a0,a0,4
    7620:	45ad                	li	a1,11
    7622:	d1dff0ef          	jal	ra,733e <icmp_send_response.isra.0>
    7626:	b6ff806f          	j	194 <__riscv_restore_0>

0000762a <lwip_standard_chksum>:
    762a:	b47f82ef          	jal	t0,170 <__riscv_save_0>
    762e:	00b50833          	add	a6,a0,a1
    7632:	0842                	slli	a6,a6,0x10
    7634:	86aa                	mv	a3,a0
    7636:	4701                	li	a4,0
    7638:	01085813          	srli	a6,a6,0x10
    763c:	4885                	li	a7,1
    763e:	40d807b3          	sub	a5,a6,a3
    7642:	07c2                	slli	a5,a5,0x10
    7644:	83c1                	srli	a5,a5,0x10
    7646:	04f8e463          	bltu	a7,a5,768e <lwip_standard_chksum+0x64>
    764a:	0015d793          	srli	a5,a1,0x1
    764e:	00179693          	slli	a3,a5,0x1
    7652:	9536                	add	a0,a0,a3
    7654:	56f9                	li	a3,-2
    7656:	02d787b3          	mul	a5,a5,a3
    765a:	95be                	add	a1,a1,a5
    765c:	05c2                	slli	a1,a1,0x10
    765e:	81c1                	srli	a1,a1,0x10
    7660:	c581                	beqz	a1,7668 <lwip_standard_chksum+0x3e>
    7662:	211c                	lbu	a5,0(a0)
    7664:	07a2                	slli	a5,a5,0x8
    7666:	973e                	add	a4,a4,a5
    7668:	6541                	lui	a0,0x10
    766a:	fff50693          	addi	a3,a0,-1 # ffff <_data_lma+0x718b>
    766e:	01075793          	srli	a5,a4,0x10
    7672:	8f75                	and	a4,a4,a3
    7674:	00e78533          	add	a0,a5,a4
    7678:	77c1                	lui	a5,0xffff0
    767a:	8fe9                	and	a5,a5,a0
    767c:	c399                	beqz	a5,7682 <lwip_standard_chksum+0x58>
    767e:	8d75                	and	a0,a0,a3
    7680:	0505                	addi	a0,a0,1
    7682:	0542                	slli	a0,a0,0x10
    7684:	8141                	srli	a0,a0,0x10
    7686:	e00fb0ef          	jal	ra,2c86 <htons>
    768a:	b0bf806f          	j	194 <__riscv_restore_0>
    768e:	329c                	lbu	a5,1(a3)
    7690:	2290                	lbu	a2,0(a3)
    7692:	0689                	addi	a3,a3,2
    7694:	07a2                	slli	a5,a5,0x8
    7696:	8fd1                	or	a5,a5,a2
    7698:	00879613          	slli	a2,a5,0x8
    769c:	83a1                	srli	a5,a5,0x8
    769e:	8fd1                	or	a5,a5,a2
    76a0:	07c2                	slli	a5,a5,0x10
    76a2:	83c1                	srli	a5,a5,0x10
    76a4:	973e                	add	a4,a4,a5
    76a6:	bf61                	j	763e <lwip_standard_chksum+0x14>

000076a8 <inet_chksum_pseudo>:
    76a8:	aa1f82ef          	jal	t0,148 <__riscv_save_10>
    76ac:	200047b7          	lui	a5,0x20004
    76b0:	2507a783          	lw	a5,592(a5) # 20004250 <WCHCfg+0x14>
    76b4:	84ba                	mv	s1,a4
    76b6:	1141                	addi	sp,sp,-16
    76b8:	00579713          	slli	a4,a5,0x5
    76bc:	0e074963          	bltz	a4,77ae <inet_chksum_pseudo+0x106>
    76c0:	6b41                	lui	s6,0x10
    76c2:	892a                	mv	s2,a0
    76c4:	8aae                	mv	s5,a1
    76c6:	8a32                	mv	s4,a2
    76c8:	4981                	li	s3,0
    76ca:	4401                	li	s0,0
    76cc:	1b7d                	addi	s6,s6,-1
    76ce:	4b85                	li	s7,1
    76d0:	08091e63          	bnez	s2,776c <inet_chksum_pseudo+0xc4>
    76d4:	00098b63          	beqz	s3,76ea <inet_chksum_pseudo+0x42>
    76d8:	6741                	lui	a4,0x10
    76da:	00841793          	slli	a5,s0,0x8
    76de:	177d                	addi	a4,a4,-1
    76e0:	8021                	srli	s0,s0,0x8
    76e2:	8ff9                	and	a5,a5,a4
    76e4:	0ff47413          	andi	s0,s0,255
    76e8:	8c5d                	or	s0,s0,a5
    76ea:	001ac503          	lbu	a0,1(s5)
    76ee:	000ac783          	lbu	a5,0(s5)
    76f2:	000a4703          	lbu	a4,0(s4)
    76f6:	0522                	slli	a0,a0,0x8
    76f8:	8d5d                	or	a0,a0,a5
    76fa:	002ac783          	lbu	a5,2(s5)
    76fe:	003a4603          	lbu	a2,3(s4)
    7702:	6941                	lui	s2,0x10
    7704:	07c2                	slli	a5,a5,0x10
    7706:	8d5d                	or	a0,a0,a5
    7708:	003ac783          	lbu	a5,3(s5)
    770c:	0662                	slli	a2,a2,0x18
    770e:	197d                	addi	s2,s2,-1
    7710:	07e2                	slli	a5,a5,0x18
    7712:	8fc9                	or	a5,a5,a0
    7714:	001a4503          	lbu	a0,1(s4)
    7718:	0522                	slli	a0,a0,0x8
    771a:	8f49                	or	a4,a4,a0
    771c:	002a4503          	lbu	a0,2(s4)
    7720:	0542                	slli	a0,a0,0x10
    7722:	8d59                	or	a0,a0,a4
    7724:	8e49                	or	a2,a2,a0
    7726:	01267533          	and	a0,a2,s2
    772a:	8241                	srli	a2,a2,0x10
    772c:	0127f733          	and	a4,a5,s2
    7730:	9532                	add	a0,a0,a2
    7732:	953a                	add	a0,a0,a4
    7734:	83c1                	srli	a5,a5,0x10
    7736:	953e                	add	a0,a0,a5
    7738:	942a                	add	s0,s0,a0
    773a:	8536                	mv	a0,a3
    773c:	d4afb0ef          	jal	ra,2c86 <htons>
    7740:	942a                	add	s0,s0,a0
    7742:	8526                	mv	a0,s1
    7744:	d42fb0ef          	jal	ra,2c86 <htons>
    7748:	9522                	add	a0,a0,s0
    774a:	01055413          	srli	s0,a0,0x10
    774e:	01257533          	and	a0,a0,s2
    7752:	942a                	add	s0,s0,a0
    7754:	01045513          	srli	a0,s0,0x10
    7758:	01247433          	and	s0,s0,s2
    775c:	9522                	add	a0,a0,s0
    775e:	fff54513          	not	a0,a0
    7762:	0542                	slli	a0,a0,0x10
    7764:	8141                	srli	a0,a0,0x10
    7766:	0141                	addi	sp,sp,16
    7768:	a19f806f          	j	180 <__riscv_restore_10>
    776c:	00a95583          	lhu	a1,10(s2) # 1000a <_data_lma+0x7196>
    7770:	00492503          	lw	a0,4(s2)
    7774:	c636                	sw	a3,12(sp)
    7776:	eb5ff0ef          	jal	ra,762a <lwip_standard_chksum>
    777a:	942a                	add	s0,s0,a0
    777c:	01045793          	srli	a5,s0,0x10
    7780:	01647433          	and	s0,s0,s6
    7784:	943e                	add	s0,s0,a5
    7786:	00a95783          	lhu	a5,10(s2)
    778a:	46b2                	lw	a3,12(sp)
    778c:	8b85                	andi	a5,a5,1
    778e:	cf89                	beqz	a5,77a8 <inet_chksum_pseudo+0x100>
    7790:	00841793          	slli	a5,s0,0x8
    7794:	8021                	srli	s0,s0,0x8
    7796:	413b89b3          	sub	s3,s7,s3
    779a:	0167f7b3          	and	a5,a5,s6
    779e:	0ff47413          	andi	s0,s0,255
    77a2:	0ff9f993          	andi	s3,s3,255
    77a6:	8c5d                	or	s0,s0,a5
    77a8:	00092903          	lw	s2,0(s2)
    77ac:	b715                	j	76d0 <inet_chksum_pseudo+0x28>
    77ae:	4501                	li	a0,0
    77b0:	bf5d                	j	7766 <inet_chksum_pseudo+0xbe>

000077b2 <inet_chksum>:
    77b2:	9bff82ef          	jal	t0,170 <__riscv_save_0>
    77b6:	e75ff0ef          	jal	ra,762a <lwip_standard_chksum>
    77ba:	fff54513          	not	a0,a0
    77be:	0542                	slli	a0,a0,0x10
    77c0:	8141                	srli	a0,a0,0x10
    77c2:	9d3f806f          	j	194 <__riscv_restore_0>

000077c6 <inet_chksum_pbuf>:
    77c6:	991f82ef          	jal	t0,156 <__riscv_save_4>
    77ca:	69c1                	lui	s3,0x10
    77cc:	84aa                	mv	s1,a0
    77ce:	4901                	li	s2,0
    77d0:	4401                	li	s0,0
    77d2:	19fd                	addi	s3,s3,-1
    77d4:	4a05                	li	s4,1
    77d6:	e095                	bnez	s1,77fa <inet_chksum_pbuf+0x34>
    77d8:	00090b63          	beqz	s2,77ee <inet_chksum_pbuf+0x28>
    77dc:	6741                	lui	a4,0x10
    77de:	00841793          	slli	a5,s0,0x8
    77e2:	177d                	addi	a4,a4,-1
    77e4:	8021                	srli	s0,s0,0x8
    77e6:	8ff9                	and	a5,a5,a4
    77e8:	0ff47413          	andi	s0,s0,255
    77ec:	8c5d                	or	s0,s0,a5
    77ee:	fff44513          	not	a0,s0
    77f2:	0542                	slli	a0,a0,0x10
    77f4:	8141                	srli	a0,a0,0x10
    77f6:	995f806f          	j	18a <__riscv_restore_4>
    77fa:	24ae                	lhu	a1,10(s1)
    77fc:	40c8                	lw	a0,4(s1)
    77fe:	e2dff0ef          	jal	ra,762a <lwip_standard_chksum>
    7802:	942a                	add	s0,s0,a0
    7804:	01045793          	srli	a5,s0,0x10
    7808:	01347433          	and	s0,s0,s3
    780c:	943e                	add	s0,s0,a5
    780e:	24be                	lhu	a5,10(s1)
    7810:	8b85                	andi	a5,a5,1
    7812:	cf89                	beqz	a5,782c <inet_chksum_pbuf+0x66>
    7814:	00841793          	slli	a5,s0,0x8
    7818:	8021                	srli	s0,s0,0x8
    781a:	412a0933          	sub	s2,s4,s2
    781e:	0137f7b3          	and	a5,a5,s3
    7822:	0ff47413          	andi	s0,s0,255
    7826:	0ff97913          	andi	s2,s2,255
    782a:	8c5d                	or	s0,s0,a5
    782c:	4084                	lw	s1,0(s1)
    782e:	b765                	j	77d6 <inet_chksum_pbuf+0x10>

00007830 <memcpy>:
    7830:	00a5c7b3          	xor	a5,a1,a0
    7834:	8b8d                	andi	a5,a5,3
    7836:	00c50733          	add	a4,a0,a2
    783a:	e781                	bnez	a5,7842 <memcpy+0x12>
    783c:	478d                	li	a5,3
    783e:	00c7ed63          	bltu	a5,a2,7858 <memcpy+0x28>
    7842:	87aa                	mv	a5,a0
    7844:	08e57e63          	bgeu	a0,a4,78e0 <memcpy+0xb0>
    7848:	2194                	lbu	a3,0(a1)
    784a:	0785                	addi	a5,a5,1
    784c:	0585                	addi	a1,a1,1
    784e:	fed78fa3          	sb	a3,-1(a5)
    7852:	fee7ebe3          	bltu	a5,a4,7848 <memcpy+0x18>
    7856:	8082                	ret
    7858:	00357693          	andi	a3,a0,3
    785c:	87aa                	mv	a5,a0
    785e:	ca89                	beqz	a3,7870 <memcpy+0x40>
    7860:	2194                	lbu	a3,0(a1)
    7862:	0785                	addi	a5,a5,1
    7864:	0585                	addi	a1,a1,1
    7866:	fed78fa3          	sb	a3,-1(a5)
    786a:	0037f693          	andi	a3,a5,3
    786e:	bfc5                	j	785e <memcpy+0x2e>
    7870:	ffc77693          	andi	a3,a4,-4
    7874:	fe068613          	addi	a2,a3,-32
    7878:	06c7f063          	bgeu	a5,a2,78d8 <memcpy+0xa8>
    787c:	0005a383          	lw	t2,0(a1)
    7880:	0045a283          	lw	t0,4(a1)
    7884:	0085af83          	lw	t6,8(a1)
    7888:	00c5af03          	lw	t5,12(a1)
    788c:	0105ae83          	lw	t4,16(a1)
    7890:	0145ae03          	lw	t3,20(a1)
    7894:	0185a303          	lw	t1,24(a1)
    7898:	01c5a883          	lw	a7,28(a1)
    789c:	02458593          	addi	a1,a1,36
    78a0:	0077a023          	sw	t2,0(a5)
    78a4:	ffc5a803          	lw	a6,-4(a1)
    78a8:	0057a223          	sw	t0,4(a5)
    78ac:	01f7a423          	sw	t6,8(a5)
    78b0:	01e7a623          	sw	t5,12(a5)
    78b4:	01d7a823          	sw	t4,16(a5)
    78b8:	01c7aa23          	sw	t3,20(a5)
    78bc:	0067ac23          	sw	t1,24(a5)
    78c0:	0117ae23          	sw	a7,28(a5)
    78c4:	02478793          	addi	a5,a5,36
    78c8:	ff07ae23          	sw	a6,-4(a5)
    78cc:	b775                	j	7878 <memcpy+0x48>
    78ce:	4190                	lw	a2,0(a1)
    78d0:	0791                	addi	a5,a5,4
    78d2:	0591                	addi	a1,a1,4
    78d4:	fec7ae23          	sw	a2,-4(a5)
    78d8:	fed7ebe3          	bltu	a5,a3,78ce <memcpy+0x9e>
    78dc:	f6e7e6e3          	bltu	a5,a4,7848 <memcpy+0x18>
    78e0:	8082                	ret

000078e2 <iprintf>:
    78e2:	7139                	addi	sp,sp,-64
    78e4:	da3e                	sw	a5,52(sp)
    78e6:	d22e                	sw	a1,36(sp)
    78e8:	d432                	sw	a2,40(sp)
    78ea:	d636                	sw	a3,44(sp)
    78ec:	d83a                	sw	a4,48(sp)
    78ee:	dc42                	sw	a6,56(sp)
    78f0:	de46                	sw	a7,60(sp)
    78f2:	83c18793          	addi	a5,gp,-1988 # 200000ac <_impure_ptr>
    78f6:	cc22                	sw	s0,24(sp)
    78f8:	4380                	lw	s0,0(a5)
    78fa:	ca26                	sw	s1,20(sp)
    78fc:	ce06                	sw	ra,28(sp)
    78fe:	84aa                	mv	s1,a0
    7900:	c409                	beqz	s0,790a <iprintf+0x28>
    7902:	4c1c                	lw	a5,24(s0)
    7904:	e399                	bnez	a5,790a <iprintf+0x28>
    7906:	8522                	mv	a0,s0
    7908:	2325                	jal	7e30 <__sinit>
    790a:	440c                	lw	a1,8(s0)
    790c:	1054                	addi	a3,sp,36
    790e:	8626                	mv	a2,s1
    7910:	8522                	mv	a0,s0
    7912:	c636                	sw	a3,12(sp)
    7914:	167000ef          	jal	ra,827a <_vfiprintf_r>
    7918:	40f2                	lw	ra,28(sp)
    791a:	4462                	lw	s0,24(sp)
    791c:	44d2                	lw	s1,20(sp)
    791e:	6121                	addi	sp,sp,64
    7920:	8082                	ret

00007922 <putchar>:
    7922:	1101                	addi	sp,sp,-32
    7924:	83c18793          	addi	a5,gp,-1988 # 200000ac <_impure_ptr>
    7928:	cc22                	sw	s0,24(sp)
    792a:	4380                	lw	s0,0(a5)
    792c:	ce06                	sw	ra,28(sp)
    792e:	85aa                	mv	a1,a0
    7930:	c419                	beqz	s0,793e <putchar+0x1c>
    7932:	4c1c                	lw	a5,24(s0)
    7934:	e789                	bnez	a5,793e <putchar+0x1c>
    7936:	c62a                	sw	a0,12(sp)
    7938:	8522                	mv	a0,s0
    793a:	29dd                	jal	7e30 <__sinit>
    793c:	45b2                	lw	a1,12(sp)
    793e:	4410                	lw	a2,8(s0)
    7940:	8522                	mv	a0,s0
    7942:	4462                	lw	s0,24(sp)
    7944:	40f2                	lw	ra,28(sp)
    7946:	6105                	addi	sp,sp,32
    7948:	76b0006f          	j	88b2 <_putc_r>

0000794c <_puts_r>:
    794c:	1101                	addi	sp,sp,-32
    794e:	ca26                	sw	s1,20(sp)
    7950:	c84a                	sw	s2,16(sp)
    7952:	ce06                	sw	ra,28(sp)
    7954:	cc22                	sw	s0,24(sp)
    7956:	c64e                	sw	s3,12(sp)
    7958:	c452                	sw	s4,8(sp)
    795a:	84aa                	mv	s1,a0
    795c:	892e                	mv	s2,a1
    795e:	c501                	beqz	a0,7966 <_puts_r+0x1a>
    7960:	4d1c                	lw	a5,24(a0)
    7962:	e391                	bnez	a5,7966 <_puts_r+0x1a>
    7964:	21f1                	jal	7e30 <__sinit>
    7966:	4c9c                	lw	a5,24(s1)
    7968:	4480                	lw	s0,8(s1)
    796a:	e399                	bnez	a5,7970 <_puts_r+0x24>
    796c:	8526                	mv	a0,s1
    796e:	21c9                	jal	7e30 <__sinit>
    7970:	00001797          	auipc	a5,0x1
    7974:	48878793          	addi	a5,a5,1160 # 8df8 <__sf_fake_stdin>
    7978:	02f41b63          	bne	s0,a5,79ae <_puts_r+0x62>
    797c:	40c0                	lw	s0,4(s1)
    797e:	245e                	lhu	a5,12(s0)
    7980:	8ba1                	andi	a5,a5,8
    7982:	c7b1                	beqz	a5,79ce <_puts_r+0x82>
    7984:	481c                	lw	a5,16(s0)
    7986:	c7a1                	beqz	a5,79ce <_puts_r+0x82>
    7988:	59fd                	li	s3,-1
    798a:	4a29                	li	s4,10
    798c:	441c                	lw	a5,8(s0)
    798e:	00094583          	lbu	a1,0(s2)
    7992:	17fd                	addi	a5,a5,-1
    7994:	e9b1                	bnez	a1,79e8 <_puts_r+0x9c>
    7996:	c41c                	sw	a5,8(s0)
    7998:	0607dd63          	bgez	a5,7a12 <_puts_r+0xc6>
    799c:	8622                	mv	a2,s0
    799e:	45a9                	li	a1,10
    79a0:	8526                	mv	a0,s1
    79a2:	2069                	jal	7a2c <__swbuf_r>
    79a4:	57fd                	li	a5,-1
    79a6:	02f50863          	beq	a0,a5,79d6 <_puts_r+0x8a>
    79aa:	4529                	li	a0,10
    79ac:	a035                	j	79d8 <_puts_r+0x8c>
    79ae:	00001797          	auipc	a5,0x1
    79b2:	46a78793          	addi	a5,a5,1130 # 8e18 <__sf_fake_stdout>
    79b6:	00f41463          	bne	s0,a5,79be <_puts_r+0x72>
    79ba:	4480                	lw	s0,8(s1)
    79bc:	b7c9                	j	797e <_puts_r+0x32>
    79be:	00001797          	auipc	a5,0x1
    79c2:	41a78793          	addi	a5,a5,1050 # 8dd8 <__sf_fake_stderr>
    79c6:	faf41ce3          	bne	s0,a5,797e <_puts_r+0x32>
    79ca:	44c0                	lw	s0,12(s1)
    79cc:	bf4d                	j	797e <_puts_r+0x32>
    79ce:	85a2                	mv	a1,s0
    79d0:	8526                	mv	a0,s1
    79d2:	2a19                	jal	7ae8 <__swsetup_r>
    79d4:	d955                	beqz	a0,7988 <_puts_r+0x3c>
    79d6:	557d                	li	a0,-1
    79d8:	40f2                	lw	ra,28(sp)
    79da:	4462                	lw	s0,24(sp)
    79dc:	44d2                	lw	s1,20(sp)
    79de:	4942                	lw	s2,16(sp)
    79e0:	49b2                	lw	s3,12(sp)
    79e2:	4a22                	lw	s4,8(sp)
    79e4:	6105                	addi	sp,sp,32
    79e6:	8082                	ret
    79e8:	c41c                	sw	a5,8(s0)
    79ea:	0905                	addi	s2,s2,1
    79ec:	0007d763          	bgez	a5,79fa <_puts_r+0xae>
    79f0:	4c18                	lw	a4,24(s0)
    79f2:	00e7ca63          	blt	a5,a4,7a06 <_puts_r+0xba>
    79f6:	01458863          	beq	a1,s4,7a06 <_puts_r+0xba>
    79fa:	401c                	lw	a5,0(s0)
    79fc:	00178713          	addi	a4,a5,1
    7a00:	c018                	sw	a4,0(s0)
    7a02:	a38c                	sb	a1,0(a5)
    7a04:	b761                	j	798c <_puts_r+0x40>
    7a06:	8622                	mv	a2,s0
    7a08:	8526                	mv	a0,s1
    7a0a:	200d                	jal	7a2c <__swbuf_r>
    7a0c:	f93510e3          	bne	a0,s3,798c <_puts_r+0x40>
    7a10:	b7d9                	j	79d6 <_puts_r+0x8a>
    7a12:	401c                	lw	a5,0(s0)
    7a14:	00178713          	addi	a4,a5,1
    7a18:	c018                	sw	a4,0(s0)
    7a1a:	4729                	li	a4,10
    7a1c:	a398                	sb	a4,0(a5)
    7a1e:	b771                	j	79aa <_puts_r+0x5e>

00007a20 <puts>:
    7a20:	83c18793          	addi	a5,gp,-1988 # 200000ac <_impure_ptr>
    7a24:	85aa                	mv	a1,a0
    7a26:	4388                	lw	a0,0(a5)
    7a28:	f25ff06f          	j	794c <_puts_r>

00007a2c <__swbuf_r>:
    7a2c:	1101                	addi	sp,sp,-32
    7a2e:	cc22                	sw	s0,24(sp)
    7a30:	ca26                	sw	s1,20(sp)
    7a32:	c84a                	sw	s2,16(sp)
    7a34:	ce06                	sw	ra,28(sp)
    7a36:	c64e                	sw	s3,12(sp)
    7a38:	84aa                	mv	s1,a0
    7a3a:	892e                	mv	s2,a1
    7a3c:	8432                	mv	s0,a2
    7a3e:	c501                	beqz	a0,7a46 <__swbuf_r+0x1a>
    7a40:	4d1c                	lw	a5,24(a0)
    7a42:	e391                	bnez	a5,7a46 <__swbuf_r+0x1a>
    7a44:	26f5                	jal	7e30 <__sinit>
    7a46:	00001797          	auipc	a5,0x1
    7a4a:	3b278793          	addi	a5,a5,946 # 8df8 <__sf_fake_stdin>
    7a4e:	06f41763          	bne	s0,a5,7abc <__swbuf_r+0x90>
    7a52:	40c0                	lw	s0,4(s1)
    7a54:	4c1c                	lw	a5,24(s0)
    7a56:	c41c                	sw	a5,8(s0)
    7a58:	245e                	lhu	a5,12(s0)
    7a5a:	8ba1                	andi	a5,a5,8
    7a5c:	c3c1                	beqz	a5,7adc <__swbuf_r+0xb0>
    7a5e:	481c                	lw	a5,16(s0)
    7a60:	cfb5                	beqz	a5,7adc <__swbuf_r+0xb0>
    7a62:	481c                	lw	a5,16(s0)
    7a64:	4008                	lw	a0,0(s0)
    7a66:	0ff97993          	andi	s3,s2,255
    7a6a:	0ff97913          	andi	s2,s2,255
    7a6e:	8d1d                	sub	a0,a0,a5
    7a70:	485c                	lw	a5,20(s0)
    7a72:	00f54663          	blt	a0,a5,7a7e <__swbuf_r+0x52>
    7a76:	85a2                	mv	a1,s0
    7a78:	8526                	mv	a0,s1
    7a7a:	2c69                	jal	7d14 <_fflush_r>
    7a7c:	e525                	bnez	a0,7ae4 <__swbuf_r+0xb8>
    7a7e:	441c                	lw	a5,8(s0)
    7a80:	0505                	addi	a0,a0,1
    7a82:	17fd                	addi	a5,a5,-1
    7a84:	c41c                	sw	a5,8(s0)
    7a86:	401c                	lw	a5,0(s0)
    7a88:	00178713          	addi	a4,a5,1
    7a8c:	c018                	sw	a4,0(s0)
    7a8e:	01378023          	sb	s3,0(a5)
    7a92:	485c                	lw	a5,20(s0)
    7a94:	00a78863          	beq	a5,a0,7aa4 <__swbuf_r+0x78>
    7a98:	245e                	lhu	a5,12(s0)
    7a9a:	8b85                	andi	a5,a5,1
    7a9c:	cb81                	beqz	a5,7aac <__swbuf_r+0x80>
    7a9e:	47a9                	li	a5,10
    7aa0:	00f91663          	bne	s2,a5,7aac <__swbuf_r+0x80>
    7aa4:	85a2                	mv	a1,s0
    7aa6:	8526                	mv	a0,s1
    7aa8:	24b5                	jal	7d14 <_fflush_r>
    7aaa:	ed0d                	bnez	a0,7ae4 <__swbuf_r+0xb8>
    7aac:	40f2                	lw	ra,28(sp)
    7aae:	4462                	lw	s0,24(sp)
    7ab0:	854a                	mv	a0,s2
    7ab2:	44d2                	lw	s1,20(sp)
    7ab4:	4942                	lw	s2,16(sp)
    7ab6:	49b2                	lw	s3,12(sp)
    7ab8:	6105                	addi	sp,sp,32
    7aba:	8082                	ret
    7abc:	00001797          	auipc	a5,0x1
    7ac0:	35c78793          	addi	a5,a5,860 # 8e18 <__sf_fake_stdout>
    7ac4:	00f41463          	bne	s0,a5,7acc <__swbuf_r+0xa0>
    7ac8:	4480                	lw	s0,8(s1)
    7aca:	b769                	j	7a54 <__swbuf_r+0x28>
    7acc:	00001797          	auipc	a5,0x1
    7ad0:	30c78793          	addi	a5,a5,780 # 8dd8 <__sf_fake_stderr>
    7ad4:	f8f410e3          	bne	s0,a5,7a54 <__swbuf_r+0x28>
    7ad8:	44c0                	lw	s0,12(s1)
    7ada:	bfad                	j	7a54 <__swbuf_r+0x28>
    7adc:	85a2                	mv	a1,s0
    7ade:	8526                	mv	a0,s1
    7ae0:	2021                	jal	7ae8 <__swsetup_r>
    7ae2:	d141                	beqz	a0,7a62 <__swbuf_r+0x36>
    7ae4:	597d                	li	s2,-1
    7ae6:	b7d9                	j	7aac <__swbuf_r+0x80>

00007ae8 <__swsetup_r>:
    7ae8:	1141                	addi	sp,sp,-16
    7aea:	83c18793          	addi	a5,gp,-1988 # 200000ac <_impure_ptr>
    7aee:	c226                	sw	s1,4(sp)
    7af0:	4384                	lw	s1,0(a5)
    7af2:	c422                	sw	s0,8(sp)
    7af4:	c04a                	sw	s2,0(sp)
    7af6:	c606                	sw	ra,12(sp)
    7af8:	892a                	mv	s2,a0
    7afa:	842e                	mv	s0,a1
    7afc:	c489                	beqz	s1,7b06 <__swsetup_r+0x1e>
    7afe:	4c9c                	lw	a5,24(s1)
    7b00:	e399                	bnez	a5,7b06 <__swsetup_r+0x1e>
    7b02:	8526                	mv	a0,s1
    7b04:	2635                	jal	7e30 <__sinit>
    7b06:	00001797          	auipc	a5,0x1
    7b0a:	2f278793          	addi	a5,a5,754 # 8df8 <__sf_fake_stdin>
    7b0e:	02f41b63          	bne	s0,a5,7b44 <__swsetup_r+0x5c>
    7b12:	40c0                	lw	s0,4(s1)
    7b14:	00c41703          	lh	a4,12(s0)
    7b18:	01071793          	slli	a5,a4,0x10
    7b1c:	83c1                	srli	a5,a5,0x10
    7b1e:	0087f693          	andi	a3,a5,8
    7b22:	eaad                	bnez	a3,7b94 <__swsetup_r+0xac>
    7b24:	0107f693          	andi	a3,a5,16
    7b28:	ee95                	bnez	a3,7b64 <__swsetup_r+0x7c>
    7b2a:	47a5                	li	a5,9
    7b2c:	00f92023          	sw	a5,0(s2)
    7b30:	04076713          	ori	a4,a4,64
    7b34:	a45a                	sh	a4,12(s0)
    7b36:	557d                	li	a0,-1
    7b38:	40b2                	lw	ra,12(sp)
    7b3a:	4422                	lw	s0,8(sp)
    7b3c:	4492                	lw	s1,4(sp)
    7b3e:	4902                	lw	s2,0(sp)
    7b40:	0141                	addi	sp,sp,16
    7b42:	8082                	ret
    7b44:	00001797          	auipc	a5,0x1
    7b48:	2d478793          	addi	a5,a5,724 # 8e18 <__sf_fake_stdout>
    7b4c:	00f41463          	bne	s0,a5,7b54 <__swsetup_r+0x6c>
    7b50:	4480                	lw	s0,8(s1)
    7b52:	b7c9                	j	7b14 <__swsetup_r+0x2c>
    7b54:	00001797          	auipc	a5,0x1
    7b58:	28478793          	addi	a5,a5,644 # 8dd8 <__sf_fake_stderr>
    7b5c:	faf41ce3          	bne	s0,a5,7b14 <__swsetup_r+0x2c>
    7b60:	44c0                	lw	s0,12(s1)
    7b62:	bf4d                	j	7b14 <__swsetup_r+0x2c>
    7b64:	8b91                	andi	a5,a5,4
    7b66:	c39d                	beqz	a5,7b8c <__swsetup_r+0xa4>
    7b68:	584c                	lw	a1,52(s0)
    7b6a:	c989                	beqz	a1,7b7c <__swsetup_r+0x94>
    7b6c:	04440793          	addi	a5,s0,68
    7b70:	00f58463          	beq	a1,a5,7b78 <__swsetup_r+0x90>
    7b74:	854a                	mv	a0,s2
    7b76:	2b29                	jal	8090 <_free_r>
    7b78:	02042a23          	sw	zero,52(s0)
    7b7c:	245e                	lhu	a5,12(s0)
    7b7e:	00042223          	sw	zero,4(s0)
    7b82:	fdb7f793          	andi	a5,a5,-37
    7b86:	a45e                	sh	a5,12(s0)
    7b88:	481c                	lw	a5,16(s0)
    7b8a:	c01c                	sw	a5,0(s0)
    7b8c:	245e                	lhu	a5,12(s0)
    7b8e:	0087e793          	ori	a5,a5,8
    7b92:	a45e                	sh	a5,12(s0)
    7b94:	481c                	lw	a5,16(s0)
    7b96:	eb99                	bnez	a5,7bac <__swsetup_r+0xc4>
    7b98:	245e                	lhu	a5,12(s0)
    7b9a:	20000713          	li	a4,512
    7b9e:	2807f793          	andi	a5,a5,640
    7ba2:	00e78563          	beq	a5,a4,7bac <__swsetup_r+0xc4>
    7ba6:	85a2                	mv	a1,s0
    7ba8:	854a                	mv	a0,s2
    7baa:	2991                	jal	7ffe <__smakebuf_r>
    7bac:	245e                	lhu	a5,12(s0)
    7bae:	0017f713          	andi	a4,a5,1
    7bb2:	c31d                	beqz	a4,7bd8 <__swsetup_r+0xf0>
    7bb4:	485c                	lw	a5,20(s0)
    7bb6:	00042423          	sw	zero,8(s0)
    7bba:	40f007b3          	neg	a5,a5
    7bbe:	cc1c                	sw	a5,24(s0)
    7bc0:	481c                	lw	a5,16(s0)
    7bc2:	4501                	li	a0,0
    7bc4:	fbb5                	bnez	a5,7b38 <__swsetup_r+0x50>
    7bc6:	00c41783          	lh	a5,12(s0)
    7bca:	0807f713          	andi	a4,a5,128
    7bce:	d72d                	beqz	a4,7b38 <__swsetup_r+0x50>
    7bd0:	0407e793          	ori	a5,a5,64
    7bd4:	a45e                	sh	a5,12(s0)
    7bd6:	b785                	j	7b36 <__swsetup_r+0x4e>
    7bd8:	8b89                	andi	a5,a5,2
    7bda:	4701                	li	a4,0
    7bdc:	e391                	bnez	a5,7be0 <__swsetup_r+0xf8>
    7bde:	4858                	lw	a4,20(s0)
    7be0:	c418                	sw	a4,8(s0)
    7be2:	bff9                	j	7bc0 <__swsetup_r+0xd8>

00007be4 <__sflush_r>:
    7be4:	25de                	lhu	a5,12(a1)
    7be6:	1101                	addi	sp,sp,-32
    7be8:	cc22                	sw	s0,24(sp)
    7bea:	ca26                	sw	s1,20(sp)
    7bec:	ce06                	sw	ra,28(sp)
    7bee:	c84a                	sw	s2,16(sp)
    7bf0:	c64e                	sw	s3,12(sp)
    7bf2:	0087f713          	andi	a4,a5,8
    7bf6:	84aa                	mv	s1,a0
    7bf8:	842e                	mv	s0,a1
    7bfa:	eb79                	bnez	a4,7cd0 <__sflush_r+0xec>
    7bfc:	41d8                	lw	a4,4(a1)
    7bfe:	00e04d63          	bgtz	a4,7c18 <__sflush_r+0x34>
    7c02:	41b8                	lw	a4,64(a1)
    7c04:	00e04a63          	bgtz	a4,7c18 <__sflush_r+0x34>
    7c08:	4501                	li	a0,0
    7c0a:	40f2                	lw	ra,28(sp)
    7c0c:	4462                	lw	s0,24(sp)
    7c0e:	44d2                	lw	s1,20(sp)
    7c10:	4942                	lw	s2,16(sp)
    7c12:	49b2                	lw	s3,12(sp)
    7c14:	6105                	addi	sp,sp,32
    7c16:	8082                	ret
    7c18:	5458                	lw	a4,44(s0)
    7c1a:	d77d                	beqz	a4,7c08 <__sflush_r+0x24>
    7c1c:	0004a903          	lw	s2,0(s1)
    7c20:	01379693          	slli	a3,a5,0x13
    7c24:	0004a023          	sw	zero,0(s1)
    7c28:	0606db63          	bgez	a3,7c9e <__sflush_r+0xba>
    7c2c:	4870                	lw	a2,84(s0)
    7c2e:	245e                	lhu	a5,12(s0)
    7c30:	8b91                	andi	a5,a5,4
    7c32:	c799                	beqz	a5,7c40 <__sflush_r+0x5c>
    7c34:	405c                	lw	a5,4(s0)
    7c36:	8e1d                	sub	a2,a2,a5
    7c38:	585c                	lw	a5,52(s0)
    7c3a:	c399                	beqz	a5,7c40 <__sflush_r+0x5c>
    7c3c:	403c                	lw	a5,64(s0)
    7c3e:	8e1d                	sub	a2,a2,a5
    7c40:	545c                	lw	a5,44(s0)
    7c42:	500c                	lw	a1,32(s0)
    7c44:	4681                	li	a3,0
    7c46:	8526                	mv	a0,s1
    7c48:	9782                	jalr	a5
    7c4a:	57fd                	li	a5,-1
    7c4c:	245a                	lhu	a4,12(s0)
    7c4e:	00f51d63          	bne	a0,a5,7c68 <__sflush_r+0x84>
    7c52:	4094                	lw	a3,0(s1)
    7c54:	47f5                	li	a5,29
    7c56:	06d7e863          	bltu	a5,a3,7cc6 <__sflush_r+0xe2>
    7c5a:	204007b7          	lui	a5,0x20400
    7c5e:	0785                	addi	a5,a5,1
    7c60:	00d7d7b3          	srl	a5,a5,a3
    7c64:	8b85                	andi	a5,a5,1
    7c66:	c3a5                	beqz	a5,7cc6 <__sflush_r+0xe2>
    7c68:	481c                	lw	a5,16(s0)
    7c6a:	00042223          	sw	zero,4(s0)
    7c6e:	c01c                	sw	a5,0(s0)
    7c70:	01371793          	slli	a5,a4,0x13
    7c74:	0007d863          	bgez	a5,7c84 <__sflush_r+0xa0>
    7c78:	57fd                	li	a5,-1
    7c7a:	00f51463          	bne	a0,a5,7c82 <__sflush_r+0x9e>
    7c7e:	409c                	lw	a5,0(s1)
    7c80:	e391                	bnez	a5,7c84 <__sflush_r+0xa0>
    7c82:	c868                	sw	a0,84(s0)
    7c84:	584c                	lw	a1,52(s0)
    7c86:	0124a023          	sw	s2,0(s1)
    7c8a:	ddbd                	beqz	a1,7c08 <__sflush_r+0x24>
    7c8c:	04440793          	addi	a5,s0,68
    7c90:	00f58463          	beq	a1,a5,7c98 <__sflush_r+0xb4>
    7c94:	8526                	mv	a0,s1
    7c96:	2eed                	jal	8090 <_free_r>
    7c98:	02042a23          	sw	zero,52(s0)
    7c9c:	b7b5                	j	7c08 <__sflush_r+0x24>
    7c9e:	500c                	lw	a1,32(s0)
    7ca0:	4601                	li	a2,0
    7ca2:	4685                	li	a3,1
    7ca4:	8526                	mv	a0,s1
    7ca6:	9702                	jalr	a4
    7ca8:	57fd                	li	a5,-1
    7caa:	862a                	mv	a2,a0
    7cac:	f8f511e3          	bne	a0,a5,7c2e <__sflush_r+0x4a>
    7cb0:	409c                	lw	a5,0(s1)
    7cb2:	dfb5                	beqz	a5,7c2e <__sflush_r+0x4a>
    7cb4:	4775                	li	a4,29
    7cb6:	00e78563          	beq	a5,a4,7cc0 <__sflush_r+0xdc>
    7cba:	4759                	li	a4,22
    7cbc:	04e79363          	bne	a5,a4,7d02 <__sflush_r+0x11e>
    7cc0:	0124a023          	sw	s2,0(s1)
    7cc4:	b791                	j	7c08 <__sflush_r+0x24>
    7cc6:	04076713          	ori	a4,a4,64
    7cca:	a45a                	sh	a4,12(s0)
    7ccc:	557d                	li	a0,-1
    7cce:	bf35                	j	7c0a <__sflush_r+0x26>
    7cd0:	0105a983          	lw	s3,16(a1)
    7cd4:	f2098ae3          	beqz	s3,7c08 <__sflush_r+0x24>
    7cd8:	0005a903          	lw	s2,0(a1)
    7cdc:	8b8d                	andi	a5,a5,3
    7cde:	0135a023          	sw	s3,0(a1)
    7ce2:	41390933          	sub	s2,s2,s3
    7ce6:	4701                	li	a4,0
    7ce8:	e391                	bnez	a5,7cec <__sflush_r+0x108>
    7cea:	49d8                	lw	a4,20(a1)
    7cec:	c418                	sw	a4,8(s0)
    7cee:	f1205de3          	blez	s2,7c08 <__sflush_r+0x24>
    7cf2:	541c                	lw	a5,40(s0)
    7cf4:	500c                	lw	a1,32(s0)
    7cf6:	86ca                	mv	a3,s2
    7cf8:	864e                	mv	a2,s3
    7cfa:	8526                	mv	a0,s1
    7cfc:	9782                	jalr	a5
    7cfe:	00a04763          	bgtz	a0,7d0c <__sflush_r+0x128>
    7d02:	245e                	lhu	a5,12(s0)
    7d04:	0407e793          	ori	a5,a5,64
    7d08:	a45e                	sh	a5,12(s0)
    7d0a:	b7c9                	j	7ccc <__sflush_r+0xe8>
    7d0c:	99aa                	add	s3,s3,a0
    7d0e:	40a90933          	sub	s2,s2,a0
    7d12:	bff1                	j	7cee <__sflush_r+0x10a>

00007d14 <_fflush_r>:
    7d14:	499c                	lw	a5,16(a1)
    7d16:	c3a5                	beqz	a5,7d76 <_fflush_r+0x62>
    7d18:	1101                	addi	sp,sp,-32
    7d1a:	cc22                	sw	s0,24(sp)
    7d1c:	ce06                	sw	ra,28(sp)
    7d1e:	842a                	mv	s0,a0
    7d20:	c511                	beqz	a0,7d2c <_fflush_r+0x18>
    7d22:	4d1c                	lw	a5,24(a0)
    7d24:	e781                	bnez	a5,7d2c <_fflush_r+0x18>
    7d26:	c62e                	sw	a1,12(sp)
    7d28:	2221                	jal	7e30 <__sinit>
    7d2a:	45b2                	lw	a1,12(sp)
    7d2c:	00001797          	auipc	a5,0x1
    7d30:	0cc78793          	addi	a5,a5,204 # 8df8 <__sf_fake_stdin>
    7d34:	00f59c63          	bne	a1,a5,7d4c <_fflush_r+0x38>
    7d38:	404c                	lw	a1,4(s0)
    7d3a:	00c59783          	lh	a5,12(a1)
    7d3e:	c79d                	beqz	a5,7d6c <_fflush_r+0x58>
    7d40:	8522                	mv	a0,s0
    7d42:	4462                	lw	s0,24(sp)
    7d44:	40f2                	lw	ra,28(sp)
    7d46:	6105                	addi	sp,sp,32
    7d48:	e9dff06f          	j	7be4 <__sflush_r>
    7d4c:	00001797          	auipc	a5,0x1
    7d50:	0cc78793          	addi	a5,a5,204 # 8e18 <__sf_fake_stdout>
    7d54:	00f59463          	bne	a1,a5,7d5c <_fflush_r+0x48>
    7d58:	440c                	lw	a1,8(s0)
    7d5a:	b7c5                	j	7d3a <_fflush_r+0x26>
    7d5c:	00001797          	auipc	a5,0x1
    7d60:	07c78793          	addi	a5,a5,124 # 8dd8 <__sf_fake_stderr>
    7d64:	fcf59be3          	bne	a1,a5,7d3a <_fflush_r+0x26>
    7d68:	444c                	lw	a1,12(s0)
    7d6a:	bfc1                	j	7d3a <_fflush_r+0x26>
    7d6c:	40f2                	lw	ra,28(sp)
    7d6e:	4462                	lw	s0,24(sp)
    7d70:	4501                	li	a0,0
    7d72:	6105                	addi	sp,sp,32
    7d74:	8082                	ret
    7d76:	4501                	li	a0,0
    7d78:	8082                	ret

00007d7a <std>:
    7d7a:	1141                	addi	sp,sp,-16
    7d7c:	c422                	sw	s0,8(sp)
    7d7e:	c606                	sw	ra,12(sp)
    7d80:	842a                	mv	s0,a0
    7d82:	a54e                	sh	a1,12(a0)
    7d84:	a572                	sh	a2,14(a0)
    7d86:	00052023          	sw	zero,0(a0)
    7d8a:	00052223          	sw	zero,4(a0)
    7d8e:	00052423          	sw	zero,8(a0)
    7d92:	06052223          	sw	zero,100(a0)
    7d96:	00052823          	sw	zero,16(a0)
    7d9a:	00052a23          	sw	zero,20(a0)
    7d9e:	00052c23          	sw	zero,24(a0)
    7da2:	4621                	li	a2,8
    7da4:	4581                	li	a1,0
    7da6:	05c50513          	addi	a0,a0,92
    7daa:	bf6f80ef          	jal	ra,1a0 <memset>
    7dae:	00001797          	auipc	a5,0x1
    7db2:	bba78793          	addi	a5,a5,-1094 # 8968 <__sread>
    7db6:	d05c                	sw	a5,36(s0)
    7db8:	00001797          	auipc	a5,0x1
    7dbc:	bdc78793          	addi	a5,a5,-1060 # 8994 <__swrite>
    7dc0:	d41c                	sw	a5,40(s0)
    7dc2:	00001797          	auipc	a5,0x1
    7dc6:	c1a78793          	addi	a5,a5,-998 # 89dc <__sseek>
    7dca:	d45c                	sw	a5,44(s0)
    7dcc:	00001797          	auipc	a5,0x1
    7dd0:	c4078793          	addi	a5,a5,-960 # 8a0c <__sclose>
    7dd4:	d000                	sw	s0,32(s0)
    7dd6:	d81c                	sw	a5,48(s0)
    7dd8:	40b2                	lw	ra,12(sp)
    7dda:	4422                	lw	s0,8(sp)
    7ddc:	0141                	addi	sp,sp,16
    7dde:	8082                	ret

00007de0 <_cleanup_r>:
    7de0:	00000597          	auipc	a1,0x0
    7de4:	f3458593          	addi	a1,a1,-204 # 7d14 <_fflush_r>
    7de8:	aa91                	j	7f3c <_fwalk_reent>

00007dea <__sfmoreglue>:
    7dea:	1141                	addi	sp,sp,-16
    7dec:	c226                	sw	s1,4(sp)
    7dee:	06800613          	li	a2,104
    7df2:	fff58493          	addi	s1,a1,-1
    7df6:	02c484b3          	mul	s1,s1,a2
    7dfa:	c04a                	sw	s2,0(sp)
    7dfc:	892e                	mv	s2,a1
    7dfe:	c422                	sw	s0,8(sp)
    7e00:	c606                	sw	ra,12(sp)
    7e02:	07448593          	addi	a1,s1,116
    7e06:	2e0d                	jal	8138 <_malloc_r>
    7e08:	842a                	mv	s0,a0
    7e0a:	cd01                	beqz	a0,7e22 <__sfmoreglue+0x38>
    7e0c:	00052023          	sw	zero,0(a0)
    7e10:	01252223          	sw	s2,4(a0)
    7e14:	0531                	addi	a0,a0,12
    7e16:	c408                	sw	a0,8(s0)
    7e18:	06848613          	addi	a2,s1,104
    7e1c:	4581                	li	a1,0
    7e1e:	b82f80ef          	jal	ra,1a0 <memset>
    7e22:	8522                	mv	a0,s0
    7e24:	40b2                	lw	ra,12(sp)
    7e26:	4422                	lw	s0,8(sp)
    7e28:	4492                	lw	s1,4(sp)
    7e2a:	4902                	lw	s2,0(sp)
    7e2c:	0141                	addi	sp,sp,16
    7e2e:	8082                	ret

00007e30 <__sinit>:
    7e30:	4d1c                	lw	a5,24(a0)
    7e32:	e7a5                	bnez	a5,7e9a <__sinit+0x6a>
    7e34:	1141                	addi	sp,sp,-16
    7e36:	c606                	sw	ra,12(sp)
    7e38:	c422                	sw	s0,8(sp)
    7e3a:	00000797          	auipc	a5,0x0
    7e3e:	fa678793          	addi	a5,a5,-90 # 7de0 <_cleanup_r>
    7e42:	d51c                	sw	a5,40(a0)
    7e44:	86018793          	addi	a5,gp,-1952 # 200000d0 <_global_impure_ptr>
    7e48:	439c                	lw	a5,0(a5)
    7e4a:	04052423          	sw	zero,72(a0)
    7e4e:	04052623          	sw	zero,76(a0)
    7e52:	04052823          	sw	zero,80(a0)
    7e56:	00f51463          	bne	a0,a5,7e5e <__sinit+0x2e>
    7e5a:	4785                	li	a5,1
    7e5c:	cd1c                	sw	a5,24(a0)
    7e5e:	842a                	mv	s0,a0
    7e60:	2835                	jal	7e9c <__sfp>
    7e62:	c048                	sw	a0,4(s0)
    7e64:	8522                	mv	a0,s0
    7e66:	281d                	jal	7e9c <__sfp>
    7e68:	c408                	sw	a0,8(s0)
    7e6a:	8522                	mv	a0,s0
    7e6c:	2805                	jal	7e9c <__sfp>
    7e6e:	c448                	sw	a0,12(s0)
    7e70:	4048                	lw	a0,4(s0)
    7e72:	4601                	li	a2,0
    7e74:	4591                	li	a1,4
    7e76:	f05ff0ef          	jal	ra,7d7a <std>
    7e7a:	4408                	lw	a0,8(s0)
    7e7c:	4605                	li	a2,1
    7e7e:	45a5                	li	a1,9
    7e80:	efbff0ef          	jal	ra,7d7a <std>
    7e84:	4448                	lw	a0,12(s0)
    7e86:	4609                	li	a2,2
    7e88:	45c9                	li	a1,18
    7e8a:	ef1ff0ef          	jal	ra,7d7a <std>
    7e8e:	4785                	li	a5,1
    7e90:	cc1c                	sw	a5,24(s0)
    7e92:	40b2                	lw	ra,12(sp)
    7e94:	4422                	lw	s0,8(sp)
    7e96:	0141                	addi	sp,sp,16
    7e98:	8082                	ret
    7e9a:	8082                	ret

00007e9c <__sfp>:
    7e9c:	1141                	addi	sp,sp,-16
    7e9e:	86018793          	addi	a5,gp,-1952 # 200000d0 <_global_impure_ptr>
    7ea2:	c226                	sw	s1,4(sp)
    7ea4:	4384                	lw	s1,0(a5)
    7ea6:	c04a                	sw	s2,0(sp)
    7ea8:	c606                	sw	ra,12(sp)
    7eaa:	4c9c                	lw	a5,24(s1)
    7eac:	c422                	sw	s0,8(sp)
    7eae:	892a                	mv	s2,a0
    7eb0:	e781                	bnez	a5,7eb8 <__sfp+0x1c>
    7eb2:	8526                	mv	a0,s1
    7eb4:	f7dff0ef          	jal	ra,7e30 <__sinit>
    7eb8:	04848493          	addi	s1,s1,72
    7ebc:	4480                	lw	s0,8(s1)
    7ebe:	40dc                	lw	a5,4(s1)
    7ec0:	17fd                	addi	a5,a5,-1
    7ec2:	0007d663          	bgez	a5,7ece <__sfp+0x32>
    7ec6:	409c                	lw	a5,0(s1)
    7ec8:	cfb9                	beqz	a5,7f26 <__sfp+0x8a>
    7eca:	4084                	lw	s1,0(s1)
    7ecc:	bfc5                	j	7ebc <__sfp+0x20>
    7ece:	00c41703          	lh	a4,12(s0)
    7ed2:	e739                	bnez	a4,7f20 <__sfp+0x84>
    7ed4:	77c1                	lui	a5,0xffff0
    7ed6:	0785                	addi	a5,a5,1
    7ed8:	06042223          	sw	zero,100(s0)
    7edc:	00042023          	sw	zero,0(s0)
    7ee0:	00042223          	sw	zero,4(s0)
    7ee4:	00042423          	sw	zero,8(s0)
    7ee8:	c45c                	sw	a5,12(s0)
    7eea:	00042823          	sw	zero,16(s0)
    7eee:	00042a23          	sw	zero,20(s0)
    7ef2:	00042c23          	sw	zero,24(s0)
    7ef6:	4621                	li	a2,8
    7ef8:	4581                	li	a1,0
    7efa:	05c40513          	addi	a0,s0,92
    7efe:	aa2f80ef          	jal	ra,1a0 <memset>
    7f02:	02042a23          	sw	zero,52(s0)
    7f06:	02042c23          	sw	zero,56(s0)
    7f0a:	04042423          	sw	zero,72(s0)
    7f0e:	04042623          	sw	zero,76(s0)
    7f12:	8522                	mv	a0,s0
    7f14:	40b2                	lw	ra,12(sp)
    7f16:	4422                	lw	s0,8(sp)
    7f18:	4492                	lw	s1,4(sp)
    7f1a:	4902                	lw	s2,0(sp)
    7f1c:	0141                	addi	sp,sp,16
    7f1e:	8082                	ret
    7f20:	06840413          	addi	s0,s0,104
    7f24:	bf71                	j	7ec0 <__sfp+0x24>
    7f26:	4591                	li	a1,4
    7f28:	854a                	mv	a0,s2
    7f2a:	ec1ff0ef          	jal	ra,7dea <__sfmoreglue>
    7f2e:	c088                	sw	a0,0(s1)
    7f30:	fd49                	bnez	a0,7eca <__sfp+0x2e>
    7f32:	47b1                	li	a5,12
    7f34:	00f92023          	sw	a5,0(s2)
    7f38:	4401                	li	s0,0
    7f3a:	bfe1                	j	7f12 <__sfp+0x76>

00007f3c <_fwalk_reent>:
    7f3c:	7179                	addi	sp,sp,-48
    7f3e:	d422                	sw	s0,40(sp)
    7f40:	d04a                	sw	s2,32(sp)
    7f42:	cc52                	sw	s4,24(sp)
    7f44:	ca56                	sw	s5,20(sp)
    7f46:	c85a                	sw	s6,16(sp)
    7f48:	c65e                	sw	s7,12(sp)
    7f4a:	d606                	sw	ra,44(sp)
    7f4c:	d226                	sw	s1,36(sp)
    7f4e:	ce4e                	sw	s3,28(sp)
    7f50:	8a2a                	mv	s4,a0
    7f52:	8aae                	mv	s5,a1
    7f54:	04850413          	addi	s0,a0,72
    7f58:	4901                	li	s2,0
    7f5a:	4b05                	li	s6,1
    7f5c:	5bfd                	li	s7,-1
    7f5e:	ec09                	bnez	s0,7f78 <_fwalk_reent+0x3c>
    7f60:	50b2                	lw	ra,44(sp)
    7f62:	5422                	lw	s0,40(sp)
    7f64:	854a                	mv	a0,s2
    7f66:	5492                	lw	s1,36(sp)
    7f68:	5902                	lw	s2,32(sp)
    7f6a:	49f2                	lw	s3,28(sp)
    7f6c:	4a62                	lw	s4,24(sp)
    7f6e:	4ad2                	lw	s5,20(sp)
    7f70:	4b42                	lw	s6,16(sp)
    7f72:	4bb2                	lw	s7,12(sp)
    7f74:	6145                	addi	sp,sp,48
    7f76:	8082                	ret
    7f78:	4404                	lw	s1,8(s0)
    7f7a:	00442983          	lw	s3,4(s0)
    7f7e:	19fd                	addi	s3,s3,-1
    7f80:	0009d463          	bgez	s3,7f88 <_fwalk_reent+0x4c>
    7f84:	4000                	lw	s0,0(s0)
    7f86:	bfe1                	j	7f5e <_fwalk_reent+0x22>
    7f88:	24de                	lhu	a5,12(s1)
    7f8a:	00fb7b63          	bgeu	s6,a5,7fa0 <_fwalk_reent+0x64>
    7f8e:	00e49783          	lh	a5,14(s1)
    7f92:	01778763          	beq	a5,s7,7fa0 <_fwalk_reent+0x64>
    7f96:	85a6                	mv	a1,s1
    7f98:	8552                	mv	a0,s4
    7f9a:	9a82                	jalr	s5
    7f9c:	00a96933          	or	s2,s2,a0
    7fa0:	06848493          	addi	s1,s1,104
    7fa4:	bfe9                	j	7f7e <_fwalk_reent+0x42>

00007fa6 <__swhatbuf_r>:
    7fa6:	7119                	addi	sp,sp,-128
    7fa8:	daa6                	sw	s1,116(sp)
    7faa:	84ae                	mv	s1,a1
    7fac:	00e59583          	lh	a1,14(a1)
    7fb0:	dca2                	sw	s0,120(sp)
    7fb2:	de86                	sw	ra,124(sp)
    7fb4:	8432                	mv	s0,a2
    7fb6:	0005db63          	bgez	a1,7fcc <__swhatbuf_r+0x26>
    7fba:	24de                	lhu	a5,12(s1)
    7fbc:	0006a023          	sw	zero,0(a3)
    7fc0:	0807f793          	andi	a5,a5,128
    7fc4:	e785                	bnez	a5,7fec <__swhatbuf_r+0x46>
    7fc6:	40000793          	li	a5,1024
    7fca:	a01d                	j	7ff0 <__swhatbuf_r+0x4a>
    7fcc:	0830                	addi	a2,sp,24
    7fce:	c636                	sw	a3,12(sp)
    7fd0:	2a9000ef          	jal	ra,8a78 <_fstat_r>
    7fd4:	46b2                	lw	a3,12(sp)
    7fd6:	fe0542e3          	bltz	a0,7fba <__swhatbuf_r+0x14>
    7fda:	4772                	lw	a4,28(sp)
    7fdc:	67bd                	lui	a5,0xf
    7fde:	8ff9                	and	a5,a5,a4
    7fe0:	7779                	lui	a4,0xffffe
    7fe2:	97ba                	add	a5,a5,a4
    7fe4:	0017b793          	seqz	a5,a5
    7fe8:	c29c                	sw	a5,0(a3)
    7fea:	bff1                	j	7fc6 <__swhatbuf_r+0x20>
    7fec:	04000793          	li	a5,64
    7ff0:	c01c                	sw	a5,0(s0)
    7ff2:	50f6                	lw	ra,124(sp)
    7ff4:	5466                	lw	s0,120(sp)
    7ff6:	54d6                	lw	s1,116(sp)
    7ff8:	4501                	li	a0,0
    7ffa:	6109                	addi	sp,sp,128
    7ffc:	8082                	ret

00007ffe <__smakebuf_r>:
    7ffe:	25de                	lhu	a5,12(a1)
    8000:	1101                	addi	sp,sp,-32
    8002:	cc22                	sw	s0,24(sp)
    8004:	ce06                	sw	ra,28(sp)
    8006:	ca26                	sw	s1,20(sp)
    8008:	c84a                	sw	s2,16(sp)
    800a:	8b89                	andi	a5,a5,2
    800c:	842e                	mv	s0,a1
    800e:	cf89                	beqz	a5,8028 <__smakebuf_r+0x2a>
    8010:	04740793          	addi	a5,s0,71
    8014:	c01c                	sw	a5,0(s0)
    8016:	c81c                	sw	a5,16(s0)
    8018:	4785                	li	a5,1
    801a:	c85c                	sw	a5,20(s0)
    801c:	40f2                	lw	ra,28(sp)
    801e:	4462                	lw	s0,24(sp)
    8020:	44d2                	lw	s1,20(sp)
    8022:	4942                	lw	s2,16(sp)
    8024:	6105                	addi	sp,sp,32
    8026:	8082                	ret
    8028:	0074                	addi	a3,sp,12
    802a:	0030                	addi	a2,sp,8
    802c:	84aa                	mv	s1,a0
    802e:	f79ff0ef          	jal	ra,7fa6 <__swhatbuf_r>
    8032:	45a2                	lw	a1,8(sp)
    8034:	892a                	mv	s2,a0
    8036:	8526                	mv	a0,s1
    8038:	2201                	jal	8138 <_malloc_r>
    803a:	e919                	bnez	a0,8050 <__smakebuf_r+0x52>
    803c:	00c41783          	lh	a5,12(s0)
    8040:	2007f713          	andi	a4,a5,512
    8044:	ff61                	bnez	a4,801c <__smakebuf_r+0x1e>
    8046:	9bf1                	andi	a5,a5,-4
    8048:	0027e793          	ori	a5,a5,2
    804c:	a45e                	sh	a5,12(s0)
    804e:	b7c9                	j	8010 <__smakebuf_r+0x12>
    8050:	00000797          	auipc	a5,0x0
    8054:	d9078793          	addi	a5,a5,-624 # 7de0 <_cleanup_r>
    8058:	d49c                	sw	a5,40(s1)
    805a:	245e                	lhu	a5,12(s0)
    805c:	c008                	sw	a0,0(s0)
    805e:	c808                	sw	a0,16(s0)
    8060:	0807e793          	ori	a5,a5,128
    8064:	a45e                	sh	a5,12(s0)
    8066:	47a2                	lw	a5,8(sp)
    8068:	c85c                	sw	a5,20(s0)
    806a:	47b2                	lw	a5,12(sp)
    806c:	cf81                	beqz	a5,8084 <__smakebuf_r+0x86>
    806e:	00e41583          	lh	a1,14(s0)
    8072:	8526                	mv	a0,s1
    8074:	237000ef          	jal	ra,8aaa <_isatty_r>
    8078:	c511                	beqz	a0,8084 <__smakebuf_r+0x86>
    807a:	245e                	lhu	a5,12(s0)
    807c:	9bf1                	andi	a5,a5,-4
    807e:	0017e793          	ori	a5,a5,1
    8082:	a45e                	sh	a5,12(s0)
    8084:	245e                	lhu	a5,12(s0)
    8086:	00f96933          	or	s2,s2,a5
    808a:	01241623          	sh	s2,12(s0)
    808e:	b779                	j	801c <__smakebuf_r+0x1e>

00008090 <_free_r>:
    8090:	c1dd                	beqz	a1,8136 <_free_r+0xa6>
    8092:	ffc5a783          	lw	a5,-4(a1)
    8096:	1141                	addi	sp,sp,-16
    8098:	c422                	sw	s0,8(sp)
    809a:	c606                	sw	ra,12(sp)
    809c:	c226                	sw	s1,4(sp)
    809e:	ffc58413          	addi	s0,a1,-4
    80a2:	0007d363          	bgez	a5,80a8 <_free_r+0x18>
    80a6:	943e                	add	s0,s0,a5
    80a8:	84aa                	mv	s1,a0
    80aa:	27d000ef          	jal	ra,8b26 <__malloc_lock>
    80ae:	94418793          	addi	a5,gp,-1724 # 200001b4 <__malloc_free_list>
    80b2:	439c                	lw	a5,0(a5)
    80b4:	ef81                	bnez	a5,80cc <_free_r+0x3c>
    80b6:	00042223          	sw	zero,4(s0)
    80ba:	9481a223          	sw	s0,-1724(gp) # 200001b4 <__malloc_free_list>
    80be:	4422                	lw	s0,8(sp)
    80c0:	40b2                	lw	ra,12(sp)
    80c2:	8526                	mv	a0,s1
    80c4:	4492                	lw	s1,4(sp)
    80c6:	0141                	addi	sp,sp,16
    80c8:	2610006f          	j	8b28 <__malloc_unlock>
    80cc:	00f47e63          	bgeu	s0,a5,80e8 <_free_r+0x58>
    80d0:	4014                	lw	a3,0(s0)
    80d2:	00d40733          	add	a4,s0,a3
    80d6:	00e79663          	bne	a5,a4,80e2 <_free_r+0x52>
    80da:	4398                	lw	a4,0(a5)
    80dc:	43dc                	lw	a5,4(a5)
    80de:	9736                	add	a4,a4,a3
    80e0:	c018                	sw	a4,0(s0)
    80e2:	c05c                	sw	a5,4(s0)
    80e4:	bfd9                	j	80ba <_free_r+0x2a>
    80e6:	87ba                	mv	a5,a4
    80e8:	43d8                	lw	a4,4(a5)
    80ea:	c319                	beqz	a4,80f0 <_free_r+0x60>
    80ec:	fee47de3          	bgeu	s0,a4,80e6 <_free_r+0x56>
    80f0:	4394                	lw	a3,0(a5)
    80f2:	00d78633          	add	a2,a5,a3
    80f6:	00861f63          	bne	a2,s0,8114 <_free_r+0x84>
    80fa:	4010                	lw	a2,0(s0)
    80fc:	96b2                	add	a3,a3,a2
    80fe:	c394                	sw	a3,0(a5)
    8100:	00d78633          	add	a2,a5,a3
    8104:	fac71de3          	bne	a4,a2,80be <_free_r+0x2e>
    8108:	4310                	lw	a2,0(a4)
    810a:	4358                	lw	a4,4(a4)
    810c:	96b2                	add	a3,a3,a2
    810e:	c394                	sw	a3,0(a5)
    8110:	c3d8                	sw	a4,4(a5)
    8112:	b775                	j	80be <_free_r+0x2e>
    8114:	00c47563          	bgeu	s0,a2,811e <_free_r+0x8e>
    8118:	47b1                	li	a5,12
    811a:	c09c                	sw	a5,0(s1)
    811c:	b74d                	j	80be <_free_r+0x2e>
    811e:	4010                	lw	a2,0(s0)
    8120:	00c406b3          	add	a3,s0,a2
    8124:	00d71663          	bne	a4,a3,8130 <_free_r+0xa0>
    8128:	4314                	lw	a3,0(a4)
    812a:	4358                	lw	a4,4(a4)
    812c:	96b2                	add	a3,a3,a2
    812e:	c014                	sw	a3,0(s0)
    8130:	c058                	sw	a4,4(s0)
    8132:	c3c0                	sw	s0,4(a5)
    8134:	b769                	j	80be <_free_r+0x2e>
    8136:	8082                	ret

00008138 <_malloc_r>:
    8138:	1101                	addi	sp,sp,-32
    813a:	ca26                	sw	s1,20(sp)
    813c:	00358493          	addi	s1,a1,3
    8140:	98f1                	andi	s1,s1,-4
    8142:	ce06                	sw	ra,28(sp)
    8144:	cc22                	sw	s0,24(sp)
    8146:	c84a                	sw	s2,16(sp)
    8148:	c64e                	sw	s3,12(sp)
    814a:	04a1                	addi	s1,s1,8
    814c:	47b1                	li	a5,12
    814e:	04f4f563          	bgeu	s1,a5,8198 <_malloc_r+0x60>
    8152:	44b1                	li	s1,12
    8154:	04b4e463          	bltu	s1,a1,819c <_malloc_r+0x64>
    8158:	892a                	mv	s2,a0
    815a:	1cd000ef          	jal	ra,8b26 <__malloc_lock>
    815e:	94418793          	addi	a5,gp,-1724 # 200001b4 <__malloc_free_list>
    8162:	4398                	lw	a4,0(a5)
    8164:	843a                	mv	s0,a4
    8166:	e429                	bnez	s0,81b0 <_malloc_r+0x78>
    8168:	94818793          	addi	a5,gp,-1720 # 200001b8 <__malloc_sbrk_start>
    816c:	439c                	lw	a5,0(a5)
    816e:	e799                	bnez	a5,817c <_malloc_r+0x44>
    8170:	4581                	li	a1,0
    8172:	854a                	mv	a0,s2
    8174:	7c2000ef          	jal	ra,8936 <_sbrk_r>
    8178:	94a1a423          	sw	a0,-1720(gp) # 200001b8 <__malloc_sbrk_start>
    817c:	85a6                	mv	a1,s1
    817e:	854a                	mv	a0,s2
    8180:	7b6000ef          	jal	ra,8936 <_sbrk_r>
    8184:	59fd                	li	s3,-1
    8186:	07351963          	bne	a0,s3,81f8 <_malloc_r+0xc0>
    818a:	47b1                	li	a5,12
    818c:	00f92023          	sw	a5,0(s2)
    8190:	854a                	mv	a0,s2
    8192:	197000ef          	jal	ra,8b28 <__malloc_unlock>
    8196:	a029                	j	81a0 <_malloc_r+0x68>
    8198:	fa04dee3          	bgez	s1,8154 <_malloc_r+0x1c>
    819c:	47b1                	li	a5,12
    819e:	c11c                	sw	a5,0(a0)
    81a0:	4501                	li	a0,0
    81a2:	40f2                	lw	ra,28(sp)
    81a4:	4462                	lw	s0,24(sp)
    81a6:	44d2                	lw	s1,20(sp)
    81a8:	4942                	lw	s2,16(sp)
    81aa:	49b2                	lw	s3,12(sp)
    81ac:	6105                	addi	sp,sp,32
    81ae:	8082                	ret
    81b0:	401c                	lw	a5,0(s0)
    81b2:	8f85                	sub	a5,a5,s1
    81b4:	0207cf63          	bltz	a5,81f2 <_malloc_r+0xba>
    81b8:	46ad                	li	a3,11
    81ba:	00f6f663          	bgeu	a3,a5,81c6 <_malloc_r+0x8e>
    81be:	c01c                	sw	a5,0(s0)
    81c0:	943e                	add	s0,s0,a5
    81c2:	c004                	sw	s1,0(s0)
    81c4:	a031                	j	81d0 <_malloc_r+0x98>
    81c6:	405c                	lw	a5,4(s0)
    81c8:	02871363          	bne	a4,s0,81ee <_malloc_r+0xb6>
    81cc:	94f1a223          	sw	a5,-1724(gp) # 200001b4 <__malloc_free_list>
    81d0:	854a                	mv	a0,s2
    81d2:	157000ef          	jal	ra,8b28 <__malloc_unlock>
    81d6:	00b40513          	addi	a0,s0,11
    81da:	00440793          	addi	a5,s0,4
    81de:	9961                	andi	a0,a0,-8
    81e0:	40f50733          	sub	a4,a0,a5
    81e4:	df5d                	beqz	a4,81a2 <_malloc_r+0x6a>
    81e6:	943a                	add	s0,s0,a4
    81e8:	8f89                	sub	a5,a5,a0
    81ea:	c01c                	sw	a5,0(s0)
    81ec:	bf5d                	j	81a2 <_malloc_r+0x6a>
    81ee:	c35c                	sw	a5,4(a4)
    81f0:	b7c5                	j	81d0 <_malloc_r+0x98>
    81f2:	8722                	mv	a4,s0
    81f4:	4040                	lw	s0,4(s0)
    81f6:	bf85                	j	8166 <_malloc_r+0x2e>
    81f8:	00350413          	addi	s0,a0,3
    81fc:	9871                	andi	s0,s0,-4
    81fe:	fc8502e3          	beq	a0,s0,81c2 <_malloc_r+0x8a>
    8202:	40a405b3          	sub	a1,s0,a0
    8206:	854a                	mv	a0,s2
    8208:	273d                	jal	8936 <_sbrk_r>
    820a:	fb351ce3          	bne	a0,s3,81c2 <_malloc_r+0x8a>
    820e:	bfb5                	j	818a <_malloc_r+0x52>

00008210 <__sfputc_r>:
    8210:	461c                	lw	a5,8(a2)
    8212:	17fd                	addi	a5,a5,-1
    8214:	c61c                	sw	a5,8(a2)
    8216:	0007da63          	bgez	a5,822a <__sfputc_r+0x1a>
    821a:	4e18                	lw	a4,24(a2)
    821c:	00e7c563          	blt	a5,a4,8226 <__sfputc_r+0x16>
    8220:	47a9                	li	a5,10
    8222:	00f59463          	bne	a1,a5,822a <__sfputc_r+0x1a>
    8226:	807ff06f          	j	7a2c <__swbuf_r>
    822a:	421c                	lw	a5,0(a2)
    822c:	852e                	mv	a0,a1
    822e:	00178713          	addi	a4,a5,1
    8232:	c218                	sw	a4,0(a2)
    8234:	a38c                	sb	a1,0(a5)
    8236:	8082                	ret

00008238 <__sfputs_r>:
    8238:	1101                	addi	sp,sp,-32
    823a:	cc22                	sw	s0,24(sp)
    823c:	ca26                	sw	s1,20(sp)
    823e:	c84a                	sw	s2,16(sp)
    8240:	c64e                	sw	s3,12(sp)
    8242:	c452                	sw	s4,8(sp)
    8244:	ce06                	sw	ra,28(sp)
    8246:	892a                	mv	s2,a0
    8248:	89ae                	mv	s3,a1
    824a:	8432                	mv	s0,a2
    824c:	00d604b3          	add	s1,a2,a3
    8250:	5a7d                	li	s4,-1
    8252:	00941463          	bne	s0,s1,825a <__sfputs_r+0x22>
    8256:	4501                	li	a0,0
    8258:	a809                	j	826a <__sfputs_r+0x32>
    825a:	200c                	lbu	a1,0(s0)
    825c:	864e                	mv	a2,s3
    825e:	854a                	mv	a0,s2
    8260:	fb1ff0ef          	jal	ra,8210 <__sfputc_r>
    8264:	0405                	addi	s0,s0,1
    8266:	ff4516e3          	bne	a0,s4,8252 <__sfputs_r+0x1a>
    826a:	40f2                	lw	ra,28(sp)
    826c:	4462                	lw	s0,24(sp)
    826e:	44d2                	lw	s1,20(sp)
    8270:	4942                	lw	s2,16(sp)
    8272:	49b2                	lw	s3,12(sp)
    8274:	4a22                	lw	s4,8(sp)
    8276:	6105                	addi	sp,sp,32
    8278:	8082                	ret

0000827a <_vfiprintf_r>:
    827a:	7135                	addi	sp,sp,-160
    827c:	cd22                	sw	s0,152(sp)
    827e:	cb26                	sw	s1,148(sp)
    8280:	c94a                	sw	s2,144(sp)
    8282:	c74e                	sw	s3,140(sp)
    8284:	cf06                	sw	ra,156(sp)
    8286:	c552                	sw	s4,136(sp)
    8288:	c356                	sw	s5,132(sp)
    828a:	c15a                	sw	s6,128(sp)
    828c:	dede                	sw	s7,124(sp)
    828e:	dce2                	sw	s8,120(sp)
    8290:	dae6                	sw	s9,116(sp)
    8292:	89aa                	mv	s3,a0
    8294:	84ae                	mv	s1,a1
    8296:	8932                	mv	s2,a2
    8298:	8436                	mv	s0,a3
    829a:	c509                	beqz	a0,82a4 <_vfiprintf_r+0x2a>
    829c:	4d1c                	lw	a5,24(a0)
    829e:	e399                	bnez	a5,82a4 <_vfiprintf_r+0x2a>
    82a0:	b91ff0ef          	jal	ra,7e30 <__sinit>
    82a4:	00001797          	auipc	a5,0x1
    82a8:	b5478793          	addi	a5,a5,-1196 # 8df8 <__sf_fake_stdin>
    82ac:	0cf49963          	bne	s1,a5,837e <_vfiprintf_r+0x104>
    82b0:	0049a483          	lw	s1,4(s3) # 10004 <_data_lma+0x7190>
    82b4:	24de                	lhu	a5,12(s1)
    82b6:	8ba1                	andi	a5,a5,8
    82b8:	c7ed                	beqz	a5,83a2 <_vfiprintf_r+0x128>
    82ba:	489c                	lw	a5,16(s1)
    82bc:	c3fd                	beqz	a5,83a2 <_vfiprintf_r+0x128>
    82be:	02000793          	li	a5,32
    82c2:	02f104a3          	sb	a5,41(sp)
    82c6:	03000793          	li	a5,48
    82ca:	d202                	sw	zero,36(sp)
    82cc:	02f10523          	sb	a5,42(sp)
    82d0:	c622                	sw	s0,12(sp)
    82d2:	02500b93          	li	s7,37
    82d6:	00001a97          	auipc	s5,0x1
    82da:	b62a8a93          	addi	s5,s5,-1182 # 8e38 <__sf_fake_stdout+0x20>
    82de:	4c05                	li	s8,1
    82e0:	4b29                	li	s6,10
    82e2:	844a                	mv	s0,s2
    82e4:	201c                	lbu	a5,0(s0)
    82e6:	c399                	beqz	a5,82ec <_vfiprintf_r+0x72>
    82e8:	0f779063          	bne	a5,s7,83c8 <_vfiprintf_r+0x14e>
    82ec:	41240cb3          	sub	s9,s0,s2
    82f0:	000c8e63          	beqz	s9,830c <_vfiprintf_r+0x92>
    82f4:	86e6                	mv	a3,s9
    82f6:	864a                	mv	a2,s2
    82f8:	85a6                	mv	a1,s1
    82fa:	854e                	mv	a0,s3
    82fc:	f3dff0ef          	jal	ra,8238 <__sfputs_r>
    8300:	57fd                	li	a5,-1
    8302:	1ef50063          	beq	a0,a5,84e2 <_vfiprintf_r+0x268>
    8306:	5692                	lw	a3,36(sp)
    8308:	96e6                	add	a3,a3,s9
    830a:	d236                	sw	a3,36(sp)
    830c:	201c                	lbu	a5,0(s0)
    830e:	1c078a63          	beqz	a5,84e2 <_vfiprintf_r+0x268>
    8312:	57fd                	li	a5,-1
    8314:	00140913          	addi	s2,s0,1
    8318:	c802                	sw	zero,16(sp)
    831a:	ce02                	sw	zero,28(sp)
    831c:	ca3e                	sw	a5,20(sp)
    831e:	cc02                	sw	zero,24(sp)
    8320:	040109a3          	sb	zero,83(sp)
    8324:	d482                	sw	zero,104(sp)
    8326:	00094583          	lbu	a1,0(s2)
    832a:	4615                	li	a2,5
    832c:	8556                	mv	a0,s5
    832e:	7e0000ef          	jal	ra,8b0e <memchr>
    8332:	00190413          	addi	s0,s2,1
    8336:	47c2                	lw	a5,16(sp)
    8338:	e951                	bnez	a0,83cc <_vfiprintf_r+0x152>
    833a:	0107f713          	andi	a4,a5,16
    833e:	c709                	beqz	a4,8348 <_vfiprintf_r+0xce>
    8340:	02000713          	li	a4,32
    8344:	04e109a3          	sb	a4,83(sp)
    8348:	0087f713          	andi	a4,a5,8
    834c:	c709                	beqz	a4,8356 <_vfiprintf_r+0xdc>
    834e:	02b00713          	li	a4,43
    8352:	04e109a3          	sb	a4,83(sp)
    8356:	00094683          	lbu	a3,0(s2)
    835a:	02a00713          	li	a4,42
    835e:	06e68f63          	beq	a3,a4,83dc <_vfiprintf_r+0x162>
    8362:	47f2                	lw	a5,28(sp)
    8364:	844a                	mv	s0,s2
    8366:	4681                	li	a3,0
    8368:	4625                	li	a2,9
    836a:	2018                	lbu	a4,0(s0)
    836c:	00140593          	addi	a1,s0,1
    8370:	fd070713          	addi	a4,a4,-48 # ffffdfd0 <_eusrstack+0xdffedfd0>
    8374:	0ae67763          	bgeu	a2,a4,8422 <_vfiprintf_r+0x1a8>
    8378:	cab5                	beqz	a3,83ec <_vfiprintf_r+0x172>
    837a:	ce3e                	sw	a5,28(sp)
    837c:	a885                	j	83ec <_vfiprintf_r+0x172>
    837e:	00001797          	auipc	a5,0x1
    8382:	a9a78793          	addi	a5,a5,-1382 # 8e18 <__sf_fake_stdout>
    8386:	00f49563          	bne	s1,a5,8390 <_vfiprintf_r+0x116>
    838a:	0089a483          	lw	s1,8(s3)
    838e:	b71d                	j	82b4 <_vfiprintf_r+0x3a>
    8390:	00001797          	auipc	a5,0x1
    8394:	a4878793          	addi	a5,a5,-1464 # 8dd8 <__sf_fake_stderr>
    8398:	f0f49ee3          	bne	s1,a5,82b4 <_vfiprintf_r+0x3a>
    839c:	00c9a483          	lw	s1,12(s3)
    83a0:	bf11                	j	82b4 <_vfiprintf_r+0x3a>
    83a2:	85a6                	mv	a1,s1
    83a4:	854e                	mv	a0,s3
    83a6:	f42ff0ef          	jal	ra,7ae8 <__swsetup_r>
    83aa:	d911                	beqz	a0,82be <_vfiprintf_r+0x44>
    83ac:	557d                	li	a0,-1
    83ae:	40fa                	lw	ra,156(sp)
    83b0:	446a                	lw	s0,152(sp)
    83b2:	44da                	lw	s1,148(sp)
    83b4:	494a                	lw	s2,144(sp)
    83b6:	49ba                	lw	s3,140(sp)
    83b8:	4a2a                	lw	s4,136(sp)
    83ba:	4a9a                	lw	s5,132(sp)
    83bc:	4b0a                	lw	s6,128(sp)
    83be:	5bf6                	lw	s7,124(sp)
    83c0:	5c66                	lw	s8,120(sp)
    83c2:	5cd6                	lw	s9,116(sp)
    83c4:	610d                	addi	sp,sp,160
    83c6:	8082                	ret
    83c8:	0405                	addi	s0,s0,1
    83ca:	bf29                	j	82e4 <_vfiprintf_r+0x6a>
    83cc:	41550533          	sub	a0,a0,s5
    83d0:	00ac1533          	sll	a0,s8,a0
    83d4:	8fc9                	or	a5,a5,a0
    83d6:	c83e                	sw	a5,16(sp)
    83d8:	8922                	mv	s2,s0
    83da:	b7b1                	j	8326 <_vfiprintf_r+0xac>
    83dc:	4732                	lw	a4,12(sp)
    83de:	00470693          	addi	a3,a4,4
    83e2:	4318                	lw	a4,0(a4)
    83e4:	c636                	sw	a3,12(sp)
    83e6:	02074763          	bltz	a4,8414 <_vfiprintf_r+0x19a>
    83ea:	ce3a                	sw	a4,28(sp)
    83ec:	2018                	lbu	a4,0(s0)
    83ee:	02e00793          	li	a5,46
    83f2:	04f71d63          	bne	a4,a5,844c <_vfiprintf_r+0x1d2>
    83f6:	3018                	lbu	a4,1(s0)
    83f8:	02a00793          	li	a5,42
    83fc:	02f71b63          	bne	a4,a5,8432 <_vfiprintf_r+0x1b8>
    8400:	47b2                	lw	a5,12(sp)
    8402:	0409                	addi	s0,s0,2
    8404:	00478713          	addi	a4,a5,4
    8408:	439c                	lw	a5,0(a5)
    840a:	c63a                	sw	a4,12(sp)
    840c:	0207c163          	bltz	a5,842e <_vfiprintf_r+0x1b4>
    8410:	ca3e                	sw	a5,20(sp)
    8412:	a82d                	j	844c <_vfiprintf_r+0x1d2>
    8414:	40e00733          	neg	a4,a4
    8418:	0027e793          	ori	a5,a5,2
    841c:	ce3a                	sw	a4,28(sp)
    841e:	c83e                	sw	a5,16(sp)
    8420:	b7f1                	j	83ec <_vfiprintf_r+0x172>
    8422:	036787b3          	mul	a5,a5,s6
    8426:	4685                	li	a3,1
    8428:	842e                	mv	s0,a1
    842a:	97ba                	add	a5,a5,a4
    842c:	bf3d                	j	836a <_vfiprintf_r+0xf0>
    842e:	57fd                	li	a5,-1
    8430:	b7c5                	j	8410 <_vfiprintf_r+0x196>
    8432:	0405                	addi	s0,s0,1
    8434:	ca02                	sw	zero,20(sp)
    8436:	4681                	li	a3,0
    8438:	4781                	li	a5,0
    843a:	4625                	li	a2,9
    843c:	2018                	lbu	a4,0(s0)
    843e:	00140593          	addi	a1,s0,1
    8442:	fd070713          	addi	a4,a4,-48
    8446:	06e67463          	bgeu	a2,a4,84ae <_vfiprintf_r+0x234>
    844a:	f2f9                	bnez	a3,8410 <_vfiprintf_r+0x196>
    844c:	200c                	lbu	a1,0(s0)
    844e:	460d                	li	a2,3
    8450:	00001517          	auipc	a0,0x1
    8454:	9f050513          	addi	a0,a0,-1552 # 8e40 <__sf_fake_stdout+0x28>
    8458:	2d5d                	jal	8b0e <memchr>
    845a:	cd11                	beqz	a0,8476 <_vfiprintf_r+0x1fc>
    845c:	00001797          	auipc	a5,0x1
    8460:	9e478793          	addi	a5,a5,-1564 # 8e40 <__sf_fake_stdout+0x28>
    8464:	8d1d                	sub	a0,a0,a5
    8466:	04000793          	li	a5,64
    846a:	00a797b3          	sll	a5,a5,a0
    846e:	4542                	lw	a0,16(sp)
    8470:	0405                	addi	s0,s0,1
    8472:	8d5d                	or	a0,a0,a5
    8474:	c82a                	sw	a0,16(sp)
    8476:	200c                	lbu	a1,0(s0)
    8478:	4619                	li	a2,6
    847a:	00001517          	auipc	a0,0x1
    847e:	9ca50513          	addi	a0,a0,-1590 # 8e44 <__sf_fake_stdout+0x2c>
    8482:	00140913          	addi	s2,s0,1
    8486:	02b10423          	sb	a1,40(sp)
    848a:	2551                	jal	8b0e <memchr>
    848c:	c135                	beqz	a0,84f0 <_vfiprintf_r+0x276>
    848e:	ffff8797          	auipc	a5,0xffff8
    8492:	b7278793          	addi	a5,a5,-1166 # 0 <_sinit>
    8496:	e795                	bnez	a5,84c2 <_vfiprintf_r+0x248>
    8498:	4742                	lw	a4,16(sp)
    849a:	47b2                	lw	a5,12(sp)
    849c:	10077713          	andi	a4,a4,256
    84a0:	cf09                	beqz	a4,84ba <_vfiprintf_r+0x240>
    84a2:	0791                	addi	a5,a5,4
    84a4:	c63e                	sw	a5,12(sp)
    84a6:	5792                	lw	a5,36(sp)
    84a8:	97d2                	add	a5,a5,s4
    84aa:	d23e                	sw	a5,36(sp)
    84ac:	bd1d                	j	82e2 <_vfiprintf_r+0x68>
    84ae:	036787b3          	mul	a5,a5,s6
    84b2:	4685                	li	a3,1
    84b4:	842e                	mv	s0,a1
    84b6:	97ba                	add	a5,a5,a4
    84b8:	b751                	j	843c <_vfiprintf_r+0x1c2>
    84ba:	079d                	addi	a5,a5,7
    84bc:	9be1                	andi	a5,a5,-8
    84be:	07a1                	addi	a5,a5,8
    84c0:	b7d5                	j	84a4 <_vfiprintf_r+0x22a>
    84c2:	0078                	addi	a4,sp,12
    84c4:	00000697          	auipc	a3,0x0
    84c8:	d7468693          	addi	a3,a3,-652 # 8238 <__sfputs_r>
    84cc:	8626                	mv	a2,s1
    84ce:	080c                	addi	a1,sp,16
    84d0:	854e                	mv	a0,s3
    84d2:	00000097          	auipc	ra,0x0
    84d6:	000000e7          	jalr	zero # 0 <_sinit>
    84da:	57fd                	li	a5,-1
    84dc:	8a2a                	mv	s4,a0
    84de:	fcf514e3          	bne	a0,a5,84a6 <_vfiprintf_r+0x22c>
    84e2:	24de                	lhu	a5,12(s1)
    84e4:	0407f793          	andi	a5,a5,64
    84e8:	ec0792e3          	bnez	a5,83ac <_vfiprintf_r+0x132>
    84ec:	5512                	lw	a0,36(sp)
    84ee:	b5c1                	j	83ae <_vfiprintf_r+0x134>
    84f0:	0078                	addi	a4,sp,12
    84f2:	00000697          	auipc	a3,0x0
    84f6:	d4668693          	addi	a3,a3,-698 # 8238 <__sfputs_r>
    84fa:	8626                	mv	a2,s1
    84fc:	080c                	addi	a1,sp,16
    84fe:	854e                	mv	a0,s3
    8500:	2a01                	jal	8610 <_printf_i>
    8502:	bfe1                	j	84da <_vfiprintf_r+0x260>

00008504 <_printf_common>:
    8504:	7179                	addi	sp,sp,-48
    8506:	ca56                	sw	s5,20(sp)
    8508:	499c                	lw	a5,16(a1)
    850a:	8aba                	mv	s5,a4
    850c:	4598                	lw	a4,8(a1)
    850e:	d422                	sw	s0,40(sp)
    8510:	d226                	sw	s1,36(sp)
    8512:	ce4e                	sw	s3,28(sp)
    8514:	cc52                	sw	s4,24(sp)
    8516:	d606                	sw	ra,44(sp)
    8518:	d04a                	sw	s2,32(sp)
    851a:	c85a                	sw	s6,16(sp)
    851c:	c65e                	sw	s7,12(sp)
    851e:	89aa                	mv	s3,a0
    8520:	842e                	mv	s0,a1
    8522:	84b2                	mv	s1,a2
    8524:	8a36                	mv	s4,a3
    8526:	00e7d363          	bge	a5,a4,852c <_printf_common+0x28>
    852a:	87ba                	mv	a5,a4
    852c:	c09c                	sw	a5,0(s1)
    852e:	04344703          	lbu	a4,67(s0)
    8532:	c319                	beqz	a4,8538 <_printf_common+0x34>
    8534:	0785                	addi	a5,a5,1
    8536:	c09c                	sw	a5,0(s1)
    8538:	401c                	lw	a5,0(s0)
    853a:	0207f793          	andi	a5,a5,32
    853e:	c781                	beqz	a5,8546 <_printf_common+0x42>
    8540:	409c                	lw	a5,0(s1)
    8542:	0789                	addi	a5,a5,2
    8544:	c09c                	sw	a5,0(s1)
    8546:	00042903          	lw	s2,0(s0)
    854a:	00697913          	andi	s2,s2,6
    854e:	00091a63          	bnez	s2,8562 <_printf_common+0x5e>
    8552:	01940b13          	addi	s6,s0,25
    8556:	5bfd                	li	s7,-1
    8558:	445c                	lw	a5,12(s0)
    855a:	4098                	lw	a4,0(s1)
    855c:	8f99                	sub	a5,a5,a4
    855e:	04f94c63          	blt	s2,a5,85b6 <_printf_common+0xb2>
    8562:	401c                	lw	a5,0(s0)
    8564:	04344683          	lbu	a3,67(s0)
    8568:	0207f793          	andi	a5,a5,32
    856c:	00d036b3          	snez	a3,a3
    8570:	eba5                	bnez	a5,85e0 <_printf_common+0xdc>
    8572:	04340613          	addi	a2,s0,67
    8576:	85d2                	mv	a1,s4
    8578:	854e                	mv	a0,s3
    857a:	9a82                	jalr	s5
    857c:	57fd                	li	a5,-1
    857e:	04f50363          	beq	a0,a5,85c4 <_printf_common+0xc0>
    8582:	401c                	lw	a5,0(s0)
    8584:	4611                	li	a2,4
    8586:	4098                	lw	a4,0(s1)
    8588:	8b99                	andi	a5,a5,6
    858a:	4454                	lw	a3,12(s0)
    858c:	4481                	li	s1,0
    858e:	00c79763          	bne	a5,a2,859c <_printf_common+0x98>
    8592:	40e684b3          	sub	s1,a3,a4
    8596:	0004d363          	bgez	s1,859c <_printf_common+0x98>
    859a:	4481                	li	s1,0
    859c:	441c                	lw	a5,8(s0)
    859e:	4818                	lw	a4,16(s0)
    85a0:	00f75463          	bge	a4,a5,85a8 <_printf_common+0xa4>
    85a4:	8f99                	sub	a5,a5,a4
    85a6:	94be                	add	s1,s1,a5
    85a8:	4901                	li	s2,0
    85aa:	0469                	addi	s0,s0,26
    85ac:	5b7d                	li	s6,-1
    85ae:	05249863          	bne	s1,s2,85fe <_printf_common+0xfa>
    85b2:	4501                	li	a0,0
    85b4:	a809                	j	85c6 <_printf_common+0xc2>
    85b6:	4685                	li	a3,1
    85b8:	865a                	mv	a2,s6
    85ba:	85d2                	mv	a1,s4
    85bc:	854e                	mv	a0,s3
    85be:	9a82                	jalr	s5
    85c0:	01751e63          	bne	a0,s7,85dc <_printf_common+0xd8>
    85c4:	557d                	li	a0,-1
    85c6:	50b2                	lw	ra,44(sp)
    85c8:	5422                	lw	s0,40(sp)
    85ca:	5492                	lw	s1,36(sp)
    85cc:	5902                	lw	s2,32(sp)
    85ce:	49f2                	lw	s3,28(sp)
    85d0:	4a62                	lw	s4,24(sp)
    85d2:	4ad2                	lw	s5,20(sp)
    85d4:	4b42                	lw	s6,16(sp)
    85d6:	4bb2                	lw	s7,12(sp)
    85d8:	6145                	addi	sp,sp,48
    85da:	8082                	ret
    85dc:	0905                	addi	s2,s2,1
    85de:	bfad                	j	8558 <_printf_common+0x54>
    85e0:	00d40733          	add	a4,s0,a3
    85e4:	03000613          	li	a2,48
    85e8:	04c701a3          	sb	a2,67(a4)
    85ec:	04544703          	lbu	a4,69(s0)
    85f0:	00168793          	addi	a5,a3,1
    85f4:	97a2                	add	a5,a5,s0
    85f6:	0689                	addi	a3,a3,2
    85f8:	04e781a3          	sb	a4,67(a5)
    85fc:	bf9d                	j	8572 <_printf_common+0x6e>
    85fe:	4685                	li	a3,1
    8600:	8622                	mv	a2,s0
    8602:	85d2                	mv	a1,s4
    8604:	854e                	mv	a0,s3
    8606:	9a82                	jalr	s5
    8608:	fb650ee3          	beq	a0,s6,85c4 <_printf_common+0xc0>
    860c:	0905                	addi	s2,s2,1
    860e:	b745                	j	85ae <_printf_common+0xaa>

00008610 <_printf_i>:
    8610:	7179                	addi	sp,sp,-48
    8612:	d422                	sw	s0,40(sp)
    8614:	d226                	sw	s1,36(sp)
    8616:	d04a                	sw	s2,32(sp)
    8618:	ce4e                	sw	s3,28(sp)
    861a:	d606                	sw	ra,44(sp)
    861c:	cc52                	sw	s4,24(sp)
    861e:	ca56                	sw	s5,20(sp)
    8620:	c85a                	sw	s6,16(sp)
    8622:	89b6                	mv	s3,a3
    8624:	2d94                	lbu	a3,24(a1)
    8626:	06900793          	li	a5,105
    862a:	8932                	mv	s2,a2
    862c:	84aa                	mv	s1,a0
    862e:	842e                	mv	s0,a1
    8630:	04358613          	addi	a2,a1,67
    8634:	02f68d63          	beq	a3,a5,866e <_printf_i+0x5e>
    8638:	06d7e263          	bltu	a5,a3,869c <_printf_i+0x8c>
    863c:	05800793          	li	a5,88
    8640:	18f68663          	beq	a3,a5,87cc <_printf_i+0x1bc>
    8644:	00d7ed63          	bltu	a5,a3,865e <_printf_i+0x4e>
    8648:	20068e63          	beqz	a3,8864 <_printf_i+0x254>
    864c:	04300793          	li	a5,67
    8650:	0af68e63          	beq	a3,a5,870c <_printf_i+0xfc>
    8654:	04240a93          	addi	s5,s0,66
    8658:	04d40123          	sb	a3,66(s0)
    865c:	a0c9                	j	871e <_printf_i+0x10e>
    865e:	06300793          	li	a5,99
    8662:	0af68563          	beq	a3,a5,870c <_printf_i+0xfc>
    8666:	06400793          	li	a5,100
    866a:	fef695e3          	bne	a3,a5,8654 <_printf_i+0x44>
    866e:	401c                	lw	a5,0(s0)
    8670:	4308                	lw	a0,0(a4)
    8672:	0807f693          	andi	a3,a5,128
    8676:	00450593          	addi	a1,a0,4
    867a:	c6c5                	beqz	a3,8722 <_printf_i+0x112>
    867c:	411c                	lw	a5,0(a0)
    867e:	c30c                	sw	a1,0(a4)
    8680:	0007d863          	bgez	a5,8690 <_printf_i+0x80>
    8684:	02d00713          	li	a4,45
    8688:	40f007b3          	neg	a5,a5
    868c:	04e401a3          	sb	a4,67(s0)
    8690:	00000697          	auipc	a3,0x0
    8694:	7bc68693          	addi	a3,a3,1980 # 8e4c <__sf_fake_stdout+0x34>
    8698:	4729                	li	a4,10
    869a:	a865                	j	8752 <_printf_i+0x142>
    869c:	07000793          	li	a5,112
    86a0:	16f68263          	beq	a3,a5,8804 <_printf_i+0x1f4>
    86a4:	02d7e563          	bltu	a5,a3,86ce <_printf_i+0xbe>
    86a8:	06e00793          	li	a5,110
    86ac:	18f68963          	beq	a3,a5,883e <_printf_i+0x22e>
    86b0:	06f00793          	li	a5,111
    86b4:	faf690e3          	bne	a3,a5,8654 <_printf_i+0x44>
    86b8:	400c                	lw	a1,0(s0)
    86ba:	431c                	lw	a5,0(a4)
    86bc:	0805f813          	andi	a6,a1,128
    86c0:	00478513          	addi	a0,a5,4
    86c4:	06080763          	beqz	a6,8732 <_printf_i+0x122>
    86c8:	c308                	sw	a0,0(a4)
    86ca:	439c                	lw	a5,0(a5)
    86cc:	a885                	j	873c <_printf_i+0x12c>
    86ce:	07500793          	li	a5,117
    86d2:	fef683e3          	beq	a3,a5,86b8 <_printf_i+0xa8>
    86d6:	07800793          	li	a5,120
    86da:	12f68963          	beq	a3,a5,880c <_printf_i+0x1fc>
    86de:	07300793          	li	a5,115
    86e2:	f6f699e3          	bne	a3,a5,8654 <_printf_i+0x44>
    86e6:	431c                	lw	a5,0(a4)
    86e8:	41d0                	lw	a2,4(a1)
    86ea:	4581                	li	a1,0
    86ec:	00478693          	addi	a3,a5,4
    86f0:	c314                	sw	a3,0(a4)
    86f2:	0007aa83          	lw	s5,0(a5)
    86f6:	8556                	mv	a0,s5
    86f8:	2919                	jal	8b0e <memchr>
    86fa:	c501                	beqz	a0,8702 <_printf_i+0xf2>
    86fc:	41550533          	sub	a0,a0,s5
    8700:	c048                	sw	a0,4(s0)
    8702:	405c                	lw	a5,4(s0)
    8704:	c81c                	sw	a5,16(s0)
    8706:	040401a3          	sb	zero,67(s0)
    870a:	a861                	j	87a2 <_printf_i+0x192>
    870c:	431c                	lw	a5,0(a4)
    870e:	04240a93          	addi	s5,s0,66
    8712:	00478693          	addi	a3,a5,4
    8716:	439c                	lw	a5,0(a5)
    8718:	c314                	sw	a3,0(a4)
    871a:	04f40123          	sb	a5,66(s0)
    871e:	4785                	li	a5,1
    8720:	b7d5                	j	8704 <_printf_i+0xf4>
    8722:	0407f693          	andi	a3,a5,64
    8726:	411c                	lw	a5,0(a0)
    8728:	c30c                	sw	a1,0(a4)
    872a:	dab9                	beqz	a3,8680 <_printf_i+0x70>
    872c:	07c2                	slli	a5,a5,0x10
    872e:	87c1                	srai	a5,a5,0x10
    8730:	bf81                	j	8680 <_printf_i+0x70>
    8732:	0405f593          	andi	a1,a1,64
    8736:	c308                	sw	a0,0(a4)
    8738:	d9c9                	beqz	a1,86ca <_printf_i+0xba>
    873a:	239e                	lhu	a5,0(a5)
    873c:	06f00713          	li	a4,111
    8740:	0ee68763          	beq	a3,a4,882e <_printf_i+0x21e>
    8744:	00000697          	auipc	a3,0x0
    8748:	70868693          	addi	a3,a3,1800 # 8e4c <__sf_fake_stdout+0x34>
    874c:	4729                	li	a4,10
    874e:	040401a3          	sb	zero,67(s0)
    8752:	404c                	lw	a1,4(s0)
    8754:	c40c                	sw	a1,8(s0)
    8756:	0005c563          	bltz	a1,8760 <_printf_i+0x150>
    875a:	4008                	lw	a0,0(s0)
    875c:	996d                	andi	a0,a0,-5
    875e:	c008                	sw	a0,0(s0)
    8760:	e399                	bnez	a5,8766 <_printf_i+0x156>
    8762:	8ab2                	mv	s5,a2
    8764:	cd89                	beqz	a1,877e <_printf_i+0x16e>
    8766:	8ab2                	mv	s5,a2
    8768:	02e7f5b3          	remu	a1,a5,a4
    876c:	1afd                	addi	s5,s5,-1
    876e:	95b6                	add	a1,a1,a3
    8770:	218c                	lbu	a1,0(a1)
    8772:	00ba8023          	sb	a1,0(s5)
    8776:	02e7d5b3          	divu	a1,a5,a4
    877a:	0ce7f063          	bgeu	a5,a4,883a <_printf_i+0x22a>
    877e:	47a1                	li	a5,8
    8780:	00f71e63          	bne	a4,a5,879c <_printf_i+0x18c>
    8784:	401c                	lw	a5,0(s0)
    8786:	8b85                	andi	a5,a5,1
    8788:	cb91                	beqz	a5,879c <_printf_i+0x18c>
    878a:	4058                	lw	a4,4(s0)
    878c:	481c                	lw	a5,16(s0)
    878e:	00e7c763          	blt	a5,a4,879c <_printf_i+0x18c>
    8792:	03000793          	li	a5,48
    8796:	fefa8fa3          	sb	a5,-1(s5)
    879a:	1afd                	addi	s5,s5,-1
    879c:	41560633          	sub	a2,a2,s5
    87a0:	c810                	sw	a2,16(s0)
    87a2:	874e                	mv	a4,s3
    87a4:	86ca                	mv	a3,s2
    87a6:	0070                	addi	a2,sp,12
    87a8:	85a2                	mv	a1,s0
    87aa:	8526                	mv	a0,s1
    87ac:	d59ff0ef          	jal	ra,8504 <_printf_common>
    87b0:	5a7d                	li	s4,-1
    87b2:	0b451d63          	bne	a0,s4,886c <_printf_i+0x25c>
    87b6:	557d                	li	a0,-1
    87b8:	50b2                	lw	ra,44(sp)
    87ba:	5422                	lw	s0,40(sp)
    87bc:	5492                	lw	s1,36(sp)
    87be:	5902                	lw	s2,32(sp)
    87c0:	49f2                	lw	s3,28(sp)
    87c2:	4a62                	lw	s4,24(sp)
    87c4:	4ad2                	lw	s5,20(sp)
    87c6:	4b42                	lw	s6,16(sp)
    87c8:	6145                	addi	sp,sp,48
    87ca:	8082                	ret
    87cc:	04d582a3          	sb	a3,69(a1)
    87d0:	00000697          	auipc	a3,0x0
    87d4:	67c68693          	addi	a3,a3,1660 # 8e4c <__sf_fake_stdout+0x34>
    87d8:	400c                	lw	a1,0(s0)
    87da:	4308                	lw	a0,0(a4)
    87dc:	0805f813          	andi	a6,a1,128
    87e0:	411c                	lw	a5,0(a0)
    87e2:	0511                	addi	a0,a0,4
    87e4:	02080d63          	beqz	a6,881e <_printf_i+0x20e>
    87e8:	c308                	sw	a0,0(a4)
    87ea:	0015f713          	andi	a4,a1,1
    87ee:	c701                	beqz	a4,87f6 <_printf_i+0x1e6>
    87f0:	0205e593          	ori	a1,a1,32
    87f4:	c00c                	sw	a1,0(s0)
    87f6:	4741                	li	a4,16
    87f8:	fbb9                	bnez	a5,874e <_printf_i+0x13e>
    87fa:	400c                	lw	a1,0(s0)
    87fc:	fdf5f593          	andi	a1,a1,-33
    8800:	c00c                	sw	a1,0(s0)
    8802:	b7b1                	j	874e <_printf_i+0x13e>
    8804:	419c                	lw	a5,0(a1)
    8806:	0207e793          	ori	a5,a5,32
    880a:	c19c                	sw	a5,0(a1)
    880c:	07800793          	li	a5,120
    8810:	04f402a3          	sb	a5,69(s0)
    8814:	00000697          	auipc	a3,0x0
    8818:	64c68693          	addi	a3,a3,1612 # 8e60 <__sf_fake_stdout+0x48>
    881c:	bf75                	j	87d8 <_printf_i+0x1c8>
    881e:	0405f813          	andi	a6,a1,64
    8822:	c308                	sw	a0,0(a4)
    8824:	fc0803e3          	beqz	a6,87ea <_printf_i+0x1da>
    8828:	07c2                	slli	a5,a5,0x10
    882a:	83c1                	srli	a5,a5,0x10
    882c:	bf7d                	j	87ea <_printf_i+0x1da>
    882e:	00000697          	auipc	a3,0x0
    8832:	61e68693          	addi	a3,a3,1566 # 8e4c <__sf_fake_stdout+0x34>
    8836:	4721                	li	a4,8
    8838:	bf19                	j	874e <_printf_i+0x13e>
    883a:	87ae                	mv	a5,a1
    883c:	b735                	j	8768 <_printf_i+0x158>
    883e:	4194                	lw	a3,0(a1)
    8840:	431c                	lw	a5,0(a4)
    8842:	49cc                	lw	a1,20(a1)
    8844:	0806f813          	andi	a6,a3,128
    8848:	00478513          	addi	a0,a5,4
    884c:	00080663          	beqz	a6,8858 <_printf_i+0x248>
    8850:	c308                	sw	a0,0(a4)
    8852:	439c                	lw	a5,0(a5)
    8854:	c38c                	sw	a1,0(a5)
    8856:	a039                	j	8864 <_printf_i+0x254>
    8858:	c308                	sw	a0,0(a4)
    885a:	0406f693          	andi	a3,a3,64
    885e:	439c                	lw	a5,0(a5)
    8860:	daf5                	beqz	a3,8854 <_printf_i+0x244>
    8862:	a38e                	sh	a1,0(a5)
    8864:	00042823          	sw	zero,16(s0)
    8868:	8ab2                	mv	s5,a2
    886a:	bf25                	j	87a2 <_printf_i+0x192>
    886c:	4814                	lw	a3,16(s0)
    886e:	8656                	mv	a2,s5
    8870:	85ca                	mv	a1,s2
    8872:	8526                	mv	a0,s1
    8874:	9982                	jalr	s3
    8876:	f54500e3          	beq	a0,s4,87b6 <_printf_i+0x1a6>
    887a:	401c                	lw	a5,0(s0)
    887c:	8b89                	andi	a5,a5,2
    887e:	e78d                	bnez	a5,88a8 <_printf_i+0x298>
    8880:	47b2                	lw	a5,12(sp)
    8882:	4448                	lw	a0,12(s0)
    8884:	f2f55ae3          	bge	a0,a5,87b8 <_printf_i+0x1a8>
    8888:	853e                	mv	a0,a5
    888a:	b73d                	j	87b8 <_printf_i+0x1a8>
    888c:	4685                	li	a3,1
    888e:	8656                	mv	a2,s5
    8890:	85ca                	mv	a1,s2
    8892:	8526                	mv	a0,s1
    8894:	9982                	jalr	s3
    8896:	f36500e3          	beq	a0,s6,87b6 <_printf_i+0x1a6>
    889a:	0a05                	addi	s4,s4,1
    889c:	445c                	lw	a5,12(s0)
    889e:	4732                	lw	a4,12(sp)
    88a0:	8f99                	sub	a5,a5,a4
    88a2:	fefa45e3          	blt	s4,a5,888c <_printf_i+0x27c>
    88a6:	bfe9                	j	8880 <_printf_i+0x270>
    88a8:	4a01                	li	s4,0
    88aa:	01940a93          	addi	s5,s0,25
    88ae:	5b7d                	li	s6,-1
    88b0:	b7f5                	j	889c <_printf_i+0x28c>

000088b2 <_putc_r>:
    88b2:	1101                	addi	sp,sp,-32
    88b4:	cc22                	sw	s0,24(sp)
    88b6:	ce06                	sw	ra,28(sp)
    88b8:	842a                	mv	s0,a0
    88ba:	c909                	beqz	a0,88cc <_putc_r+0x1a>
    88bc:	4d1c                	lw	a5,24(a0)
    88be:	e799                	bnez	a5,88cc <_putc_r+0x1a>
    88c0:	c632                	sw	a2,12(sp)
    88c2:	c42e                	sw	a1,8(sp)
    88c4:	d6cff0ef          	jal	ra,7e30 <__sinit>
    88c8:	4632                	lw	a2,12(sp)
    88ca:	45a2                	lw	a1,8(sp)
    88cc:	00000797          	auipc	a5,0x0
    88d0:	52c78793          	addi	a5,a5,1324 # 8df8 <__sf_fake_stdin>
    88d4:	02f61663          	bne	a2,a5,8900 <_putc_r+0x4e>
    88d8:	4050                	lw	a2,4(s0)
    88da:	461c                	lw	a5,8(a2)
    88dc:	17fd                	addi	a5,a5,-1
    88de:	c61c                	sw	a5,8(a2)
    88e0:	0407d063          	bgez	a5,8920 <_putc_r+0x6e>
    88e4:	4e18                	lw	a4,24(a2)
    88e6:	00e7c763          	blt	a5,a4,88f4 <_putc_r+0x42>
    88ea:	0ff5f793          	andi	a5,a1,255
    88ee:	4729                	li	a4,10
    88f0:	02e79863          	bne	a5,a4,8920 <_putc_r+0x6e>
    88f4:	8522                	mv	a0,s0
    88f6:	4462                	lw	s0,24(sp)
    88f8:	40f2                	lw	ra,28(sp)
    88fa:	6105                	addi	sp,sp,32
    88fc:	930ff06f          	j	7a2c <__swbuf_r>
    8900:	00000797          	auipc	a5,0x0
    8904:	51878793          	addi	a5,a5,1304 # 8e18 <__sf_fake_stdout>
    8908:	00f61463          	bne	a2,a5,8910 <_putc_r+0x5e>
    890c:	4410                	lw	a2,8(s0)
    890e:	b7f1                	j	88da <_putc_r+0x28>
    8910:	00000797          	auipc	a5,0x0
    8914:	4c878793          	addi	a5,a5,1224 # 8dd8 <__sf_fake_stderr>
    8918:	fcf611e3          	bne	a2,a5,88da <_putc_r+0x28>
    891c:	4450                	lw	a2,12(s0)
    891e:	bf75                	j	88da <_putc_r+0x28>
    8920:	421c                	lw	a5,0(a2)
    8922:	0ff5f513          	andi	a0,a1,255
    8926:	00178713          	addi	a4,a5,1
    892a:	c218                	sw	a4,0(a2)
    892c:	a38c                	sb	a1,0(a5)
    892e:	40f2                	lw	ra,28(sp)
    8930:	4462                	lw	s0,24(sp)
    8932:	6105                	addi	sp,sp,32
    8934:	8082                	ret

00008936 <_sbrk_r>:
    8936:	1141                	addi	sp,sp,-16
    8938:	c422                	sw	s0,8(sp)
    893a:	842a                	mv	s0,a0
    893c:	852e                	mv	a0,a1
    893e:	1fffc797          	auipc	a5,0x1fffc
    8942:	9807ab23          	sw	zero,-1642(a5) # 200042d4 <errno>
    8946:	c606                	sw	ra,12(sp)
    8948:	bebf80ef          	jal	ra,1532 <_sbrk>
    894c:	57fd                	li	a5,-1
    894e:	00f51963          	bne	a0,a5,8960 <_sbrk_r+0x2a>
    8952:	1fffc797          	auipc	a5,0x1fffc
    8956:	98278793          	addi	a5,a5,-1662 # 200042d4 <errno>
    895a:	439c                	lw	a5,0(a5)
    895c:	c391                	beqz	a5,8960 <_sbrk_r+0x2a>
    895e:	c01c                	sw	a5,0(s0)
    8960:	40b2                	lw	ra,12(sp)
    8962:	4422                	lw	s0,8(sp)
    8964:	0141                	addi	sp,sp,16
    8966:	8082                	ret

00008968 <__sread>:
    8968:	1141                	addi	sp,sp,-16
    896a:	c422                	sw	s0,8(sp)
    896c:	842e                	mv	s0,a1
    896e:	00e59583          	lh	a1,14(a1)
    8972:	c606                	sw	ra,12(sp)
    8974:	2a5d                	jal	8b2a <_read_r>
    8976:	00054963          	bltz	a0,8988 <__sread+0x20>
    897a:	487c                	lw	a5,84(s0)
    897c:	97aa                	add	a5,a5,a0
    897e:	c87c                	sw	a5,84(s0)
    8980:	40b2                	lw	ra,12(sp)
    8982:	4422                	lw	s0,8(sp)
    8984:	0141                	addi	sp,sp,16
    8986:	8082                	ret
    8988:	245e                	lhu	a5,12(s0)
    898a:	777d                	lui	a4,0xfffff
    898c:	177d                	addi	a4,a4,-1
    898e:	8ff9                	and	a5,a5,a4
    8990:	a45e                	sh	a5,12(s0)
    8992:	b7fd                	j	8980 <__sread+0x18>

00008994 <__swrite>:
    8994:	25de                	lhu	a5,12(a1)
    8996:	1101                	addi	sp,sp,-32
    8998:	cc22                	sw	s0,24(sp)
    899a:	ca26                	sw	s1,20(sp)
    899c:	c84a                	sw	s2,16(sp)
    899e:	c64e                	sw	s3,12(sp)
    89a0:	ce06                	sw	ra,28(sp)
    89a2:	1007f793          	andi	a5,a5,256
    89a6:	84aa                	mv	s1,a0
    89a8:	842e                	mv	s0,a1
    89aa:	8932                	mv	s2,a2
    89ac:	89b6                	mv	s3,a3
    89ae:	c791                	beqz	a5,89ba <__swrite+0x26>
    89b0:	00e59583          	lh	a1,14(a1)
    89b4:	4689                	li	a3,2
    89b6:	4601                	li	a2,0
    89b8:	220d                	jal	8ada <_lseek_r>
    89ba:	245e                	lhu	a5,12(s0)
    89bc:	777d                	lui	a4,0xfffff
    89be:	177d                	addi	a4,a4,-1
    89c0:	8ff9                	and	a5,a5,a4
    89c2:	a45e                	sh	a5,12(s0)
    89c4:	00e41583          	lh	a1,14(s0)
    89c8:	4462                	lw	s0,24(sp)
    89ca:	40f2                	lw	ra,28(sp)
    89cc:	86ce                	mv	a3,s3
    89ce:	864a                	mv	a2,s2
    89d0:	49b2                	lw	s3,12(sp)
    89d2:	4942                	lw	s2,16(sp)
    89d4:	8526                	mv	a0,s1
    89d6:	44d2                	lw	s1,20(sp)
    89d8:	6105                	addi	sp,sp,32
    89da:	a825                	j	8a12 <_write_r>

000089dc <__sseek>:
    89dc:	1141                	addi	sp,sp,-16
    89de:	c422                	sw	s0,8(sp)
    89e0:	842e                	mv	s0,a1
    89e2:	00e59583          	lh	a1,14(a1)
    89e6:	c606                	sw	ra,12(sp)
    89e8:	28cd                	jal	8ada <_lseek_r>
    89ea:	57fd                	li	a5,-1
    89ec:	245a                	lhu	a4,12(s0)
    89ee:	00f51a63          	bne	a0,a5,8a02 <__sseek+0x26>
    89f2:	77fd                	lui	a5,0xfffff
    89f4:	17fd                	addi	a5,a5,-1
    89f6:	8ff9                	and	a5,a5,a4
    89f8:	a45e                	sh	a5,12(s0)
    89fa:	40b2                	lw	ra,12(sp)
    89fc:	4422                	lw	s0,8(sp)
    89fe:	0141                	addi	sp,sp,16
    8a00:	8082                	ret
    8a02:	6785                	lui	a5,0x1
    8a04:	8fd9                	or	a5,a5,a4
    8a06:	a45e                	sh	a5,12(s0)
    8a08:	c868                	sw	a0,84(s0)
    8a0a:	bfc5                	j	89fa <__sseek+0x1e>

00008a0c <__sclose>:
    8a0c:	00e59583          	lh	a1,14(a1)
    8a10:	a825                	j	8a48 <_close_r>

00008a12 <_write_r>:
    8a12:	1141                	addi	sp,sp,-16
    8a14:	c422                	sw	s0,8(sp)
    8a16:	842a                	mv	s0,a0
    8a18:	852e                	mv	a0,a1
    8a1a:	85b2                	mv	a1,a2
    8a1c:	8636                	mv	a2,a3
    8a1e:	1fffc797          	auipc	a5,0x1fffc
    8a22:	8a07ab23          	sw	zero,-1866(a5) # 200042d4 <errno>
    8a26:	c606                	sw	ra,12(sp)
    8a28:	acdf80ef          	jal	ra,14f4 <_write>
    8a2c:	57fd                	li	a5,-1
    8a2e:	00f51963          	bne	a0,a5,8a40 <_write_r+0x2e>
    8a32:	1fffc797          	auipc	a5,0x1fffc
    8a36:	8a278793          	addi	a5,a5,-1886 # 200042d4 <errno>
    8a3a:	439c                	lw	a5,0(a5)
    8a3c:	c391                	beqz	a5,8a40 <_write_r+0x2e>
    8a3e:	c01c                	sw	a5,0(s0)
    8a40:	40b2                	lw	ra,12(sp)
    8a42:	4422                	lw	s0,8(sp)
    8a44:	0141                	addi	sp,sp,16
    8a46:	8082                	ret

00008a48 <_close_r>:
    8a48:	1141                	addi	sp,sp,-16
    8a4a:	c422                	sw	s0,8(sp)
    8a4c:	842a                	mv	s0,a0
    8a4e:	852e                	mv	a0,a1
    8a50:	1fffc797          	auipc	a5,0x1fffc
    8a54:	8807a223          	sw	zero,-1916(a5) # 200042d4 <errno>
    8a58:	c606                	sw	ra,12(sp)
    8a5a:	2211                	jal	8b5e <_close>
    8a5c:	57fd                	li	a5,-1
    8a5e:	00f51963          	bne	a0,a5,8a70 <_close_r+0x28>
    8a62:	1fffc797          	auipc	a5,0x1fffc
    8a66:	87278793          	addi	a5,a5,-1934 # 200042d4 <errno>
    8a6a:	439c                	lw	a5,0(a5)
    8a6c:	c391                	beqz	a5,8a70 <_close_r+0x28>
    8a6e:	c01c                	sw	a5,0(s0)
    8a70:	40b2                	lw	ra,12(sp)
    8a72:	4422                	lw	s0,8(sp)
    8a74:	0141                	addi	sp,sp,16
    8a76:	8082                	ret

00008a78 <_fstat_r>:
    8a78:	1141                	addi	sp,sp,-16
    8a7a:	c422                	sw	s0,8(sp)
    8a7c:	842a                	mv	s0,a0
    8a7e:	852e                	mv	a0,a1
    8a80:	85b2                	mv	a1,a2
    8a82:	1fffc797          	auipc	a5,0x1fffc
    8a86:	8407a923          	sw	zero,-1966(a5) # 200042d4 <errno>
    8a8a:	c606                	sw	ra,12(sp)
    8a8c:	20cd                	jal	8b6e <_fstat>
    8a8e:	57fd                	li	a5,-1
    8a90:	00f51963          	bne	a0,a5,8aa2 <_fstat_r+0x2a>
    8a94:	1fffc797          	auipc	a5,0x1fffc
    8a98:	84078793          	addi	a5,a5,-1984 # 200042d4 <errno>
    8a9c:	439c                	lw	a5,0(a5)
    8a9e:	c391                	beqz	a5,8aa2 <_fstat_r+0x2a>
    8aa0:	c01c                	sw	a5,0(s0)
    8aa2:	40b2                	lw	ra,12(sp)
    8aa4:	4422                	lw	s0,8(sp)
    8aa6:	0141                	addi	sp,sp,16
    8aa8:	8082                	ret

00008aaa <_isatty_r>:
    8aaa:	1141                	addi	sp,sp,-16
    8aac:	c422                	sw	s0,8(sp)
    8aae:	842a                	mv	s0,a0
    8ab0:	852e                	mv	a0,a1
    8ab2:	1fffc797          	auipc	a5,0x1fffc
    8ab6:	8207a123          	sw	zero,-2014(a5) # 200042d4 <errno>
    8aba:	c606                	sw	ra,12(sp)
    8abc:	20c9                	jal	8b7e <_isatty>
    8abe:	57fd                	li	a5,-1
    8ac0:	00f51963          	bne	a0,a5,8ad2 <_isatty_r+0x28>
    8ac4:	1fffc797          	auipc	a5,0x1fffc
    8ac8:	81078793          	addi	a5,a5,-2032 # 200042d4 <errno>
    8acc:	439c                	lw	a5,0(a5)
    8ace:	c391                	beqz	a5,8ad2 <_isatty_r+0x28>
    8ad0:	c01c                	sw	a5,0(s0)
    8ad2:	40b2                	lw	ra,12(sp)
    8ad4:	4422                	lw	s0,8(sp)
    8ad6:	0141                	addi	sp,sp,16
    8ad8:	8082                	ret

00008ada <_lseek_r>:
    8ada:	1141                	addi	sp,sp,-16
    8adc:	c422                	sw	s0,8(sp)
    8ade:	842a                	mv	s0,a0
    8ae0:	852e                	mv	a0,a1
    8ae2:	85b2                	mv	a1,a2
    8ae4:	8636                	mv	a2,a3
    8ae6:	1fffb797          	auipc	a5,0x1fffb
    8aea:	7e07a723          	sw	zero,2030(a5) # 200042d4 <errno>
    8aee:	c606                	sw	ra,12(sp)
    8af0:	2879                	jal	8b8e <_lseek>
    8af2:	57fd                	li	a5,-1
    8af4:	00f51963          	bne	a0,a5,8b06 <_lseek_r+0x2c>
    8af8:	1fffb797          	auipc	a5,0x1fffb
    8afc:	7dc78793          	addi	a5,a5,2012 # 200042d4 <errno>
    8b00:	439c                	lw	a5,0(a5)
    8b02:	c391                	beqz	a5,8b06 <_lseek_r+0x2c>
    8b04:	c01c                	sw	a5,0(s0)
    8b06:	40b2                	lw	ra,12(sp)
    8b08:	4422                	lw	s0,8(sp)
    8b0a:	0141                	addi	sp,sp,16
    8b0c:	8082                	ret

00008b0e <memchr>:
    8b0e:	0ff5f593          	andi	a1,a1,255
    8b12:	962a                	add	a2,a2,a0
    8b14:	00c51463          	bne	a0,a2,8b1c <memchr+0xe>
    8b18:	4501                	li	a0,0
    8b1a:	8082                	ret
    8b1c:	211c                	lbu	a5,0(a0)
    8b1e:	feb78ee3          	beq	a5,a1,8b1a <memchr+0xc>
    8b22:	0505                	addi	a0,a0,1
    8b24:	bfc5                	j	8b14 <memchr+0x6>

00008b26 <__malloc_lock>:
    8b26:	8082                	ret

00008b28 <__malloc_unlock>:
    8b28:	8082                	ret

00008b2a <_read_r>:
    8b2a:	1141                	addi	sp,sp,-16
    8b2c:	c422                	sw	s0,8(sp)
    8b2e:	842a                	mv	s0,a0
    8b30:	852e                	mv	a0,a1
    8b32:	85b2                	mv	a1,a2
    8b34:	8636                	mv	a2,a3
    8b36:	1fffb797          	auipc	a5,0x1fffb
    8b3a:	7807af23          	sw	zero,1950(a5) # 200042d4 <errno>
    8b3e:	c606                	sw	ra,12(sp)
    8b40:	28b9                	jal	8b9e <_read>
    8b42:	57fd                	li	a5,-1
    8b44:	00f51963          	bne	a0,a5,8b56 <_read_r+0x2c>
    8b48:	1fffb797          	auipc	a5,0x1fffb
    8b4c:	78c78793          	addi	a5,a5,1932 # 200042d4 <errno>
    8b50:	439c                	lw	a5,0(a5)
    8b52:	c391                	beqz	a5,8b56 <_read_r+0x2c>
    8b54:	c01c                	sw	a5,0(s0)
    8b56:	40b2                	lw	ra,12(sp)
    8b58:	4422                	lw	s0,8(sp)
    8b5a:	0141                	addi	sp,sp,16
    8b5c:	8082                	ret

00008b5e <_close>:
    8b5e:	05800793          	li	a5,88
    8b62:	1fffb717          	auipc	a4,0x1fffb
    8b66:	76f72923          	sw	a5,1906(a4) # 200042d4 <errno>
    8b6a:	557d                	li	a0,-1
    8b6c:	8082                	ret

00008b6e <_fstat>:
    8b6e:	05800793          	li	a5,88
    8b72:	1fffb717          	auipc	a4,0x1fffb
    8b76:	76f72123          	sw	a5,1890(a4) # 200042d4 <errno>
    8b7a:	557d                	li	a0,-1
    8b7c:	8082                	ret

00008b7e <_isatty>:
    8b7e:	05800793          	li	a5,88
    8b82:	1fffb717          	auipc	a4,0x1fffb
    8b86:	74f72923          	sw	a5,1874(a4) # 200042d4 <errno>
    8b8a:	4501                	li	a0,0
    8b8c:	8082                	ret

00008b8e <_lseek>:
    8b8e:	05800793          	li	a5,88
    8b92:	1fffb717          	auipc	a4,0x1fffb
    8b96:	74f72123          	sw	a5,1858(a4) # 200042d4 <errno>
    8b9a:	557d                	li	a0,-1
    8b9c:	8082                	ret

00008b9e <_read>:
    8b9e:	05800793          	li	a5,88
    8ba2:	1fffb717          	auipc	a4,0x1fffb
    8ba6:	72f72923          	sw	a5,1842(a4) # 200042d4 <errno>
    8baa:	557d                	li	a0,-1
    8bac:	8082                	ret
    8bae:	0000                	unimp
    8bb0:	6148                	flw	fa0,4(a0)
    8bb2:	6472                	flw	fs0,28(sp)
    8bb4:	6146                	flw	ft2,80(sp)
    8bb6:	6c75                	lui	s8,0x1d
    8bb8:	5f74                	lw	a3,124(a4)
    8bba:	6148                	flw	fa0,4(a0)
    8bbc:	646e                	flw	fs0,216(sp)
    8bbe:	656c                	flw	fa1,76(a0)
    8bc0:	0d72                	slli	s10,s10,0x1c
    8bc2:	0000                	unimp
    8bc4:	636d                	lui	t1,0x1b
    8bc6:	7561                	lui	a0,0xffff8
    8bc8:	253a6573          	csrrsi	a0,0x253,20
    8bcc:	3830                	lbu	a2,19(s0)
    8bce:	0d78                	addi	a4,sp,668
    8bd0:	000a                	c.slli	zero,0x2
    8bd2:	0000                	unimp
    8bd4:	746d                	lui	s0,0xffffb
    8bd6:	6176                	flw	ft2,92(sp)
    8bd8:	3a6c                	lbu	a1,23(a2)
    8bda:	3025                	jal	8402 <_vfiprintf_r+0x188>
    8bdc:	7838                	flw	fa4,112(s0)
    8bde:	0a0d                	addi	s4,s4,3
    8be0:	0000                	unimp
    8be2:	0000                	unimp
    8be4:	656d                	lui	a0,0x1b
    8be6:	6370                	flw	fa2,68(a4)
    8be8:	253a                	lhu	a4,10(a0)
    8bea:	3830                	lbu	a2,19(s0)
    8bec:	0d78                	addi	a4,sp,668
    8bee:	000a                	c.slli	zero,0x2
    8bf0:	4e484357          	0x4e484357
    8bf4:	5445                	li	s0,-15
    8bf6:	535f 636f 656b      	0x656b636f535f
    8bfc:	4374                	lw	a3,68(a4)
    8bfe:	6572                	flw	fa0,28(sp)
    8c00:	7461                	lui	s0,0xffff8
    8c02:	2520                	lbu	s0,10(a0)
    8c04:	0d64                	addi	s1,sp,668
    8c06:	000a                	c.slli	zero,0x2
    8c08:	6e69                	lui	t3,0x1a
    8c0a:	5f70                	lw	a2,124(a4)
    8c0c:	6164                	flw	fs1,68(a0)
    8c0e:	6174                	flw	fa3,68(a0)
    8c10:	003a                	c.slli	zero,0xe
    8c12:	0000                	unimp
    8c14:	544e4947          	0x544e4947
    8c18:	535f 4154 5f54      	0x5f544154535f
    8c1e:	4e55                	li	t3,21
    8c20:	4552                	lw	a0,20(sp)
    8c22:	4341                	li	t1,16
    8c24:	0d48                	addi	a0,sp,660
    8c26:	0000                	unimp
    8c28:	544e4947          	0x544e4947
    8c2c:	535f 4154 5f54      	0x5f544154535f
    8c32:	5049                	c.li	zero,-14
    8c34:	435f 4e4f 4c46      	0x4c464e4f435f
    8c3a:	0d49                	addi	s10,s10,18
    8c3c:	0000                	unimp
    8c3e:	0000                	unimp
    8c40:	4850                	lw	a2,20(s0)
    8c42:	2059                	jal	8cc8 <_read+0x12a>
    8c44:	694c                	flw	fa1,20(a0)
    8c46:	6b6e                	flw	fs6,216(sp)
    8c48:	5320                	lw	s0,96(a4)
    8c4a:	6375                	lui	t1,0x1d
    8c4c:	73736563          	bltu	t1,s7,9376 <_data_lma+0x502>
    8c50:	000d                	c.nop	3
    8c52:	0000                	unimp
    8c54:	4354                	lw	a3,4(a4)
    8c56:	2050                	lbu	a2,4(s0)
    8c58:	6e6e6f43          	fmadd.q	ft10,ft8,ft6,fa3,unknown
    8c5c:	6365                	lui	t1,0x19
    8c5e:	2074                	lbu	a3,6(s0)
    8c60:	63637553          	0x63637553
    8c64:	7365                	lui	t1,0xffff9
    8c66:	00000d73          	0xd73
    8c6a:	0000                	unimp
    8c6c:	4354                	lw	a3,4(a4)
    8c6e:	2050                	lbu	a2,4(s0)
    8c70:	6944                	flw	fs1,20(a0)
    8c72:	6e6f6373          	csrrsi	t1,0x6e6,30
    8c76:	656e                	flw	fa0,216(sp)
    8c78:	000d7463          	bgeu	s10,zero,8c80 <_read+0xe2>
    8c7c:	4354                	lw	a3,4(a4)
    8c7e:	2050                	lbu	a2,4(s0)
    8c80:	6954                	flw	fa3,20(a0)
    8c82:	656d                	lui	a0,0x1b
    8c84:	0d74756f          	jal	a0,5055a <_data_lma+0x476e6>
    8c88:	0000                	unimp
    8c8a:	0000                	unimp
    8c8c:	7245                	lui	tp,0xffff1
    8c8e:	6f72                	flw	ft10,28(sp)
    8c90:	3a72                	lhu	a2,54(a2)
    8c92:	2520                	lbu	s0,10(a0)
    8c94:	3230                	lbu	a2,3(a2)
    8c96:	0d58                	addi	a4,sp,660
    8c98:	000a                	c.slli	zero,0x2
    8c9a:	0000                	unimp
    8c9c:	4455                	li	s0,21
    8c9e:	4350                	lw	a2,4(a4)
    8ca0:	696c                	flw	fa1,84(a0)
    8ca2:	6e65                	lui	t3,0x19
    8ca4:	2074                	lbu	a3,6(s0)
    8ca6:	6554                	flw	fa3,12(a0)
    8ca8:	000d7473          	csrrci	s0,ustatus,26
    8cac:	74737953          	0x74737953
    8cb0:	6d65                	lui	s10,0x19
    8cb2:	3a6b6c43          	fmadd.d	fs8,fs6,ft6,ft7,unknown
    8cb6:	6425                	lui	s0,0x9
    8cb8:	0a0d                	addi	s4,s4,3
    8cba:	0000                	unimp
    8cbc:	7245                	lui	tp,0xffff1
    8cbe:	6f72                	flw	ft10,28(sp)
    8cc0:	3a72                	lhu	a2,54(a2)
    8cc2:	5020                	lw	s0,96(s0)
    8cc4:	656c                	flw	fa1,76(a0)
    8cc6:	7361                	lui	t1,0xffff8
    8cc8:	2065                	jal	8d70 <MemSize+0x8>
    8cca:	6f6f6863          	bltu	t5,s6,93ba <_data_lma+0x546>
    8cce:	36206573          	csrrsi	a0,0x362,0
    8cd2:	4d30                	lw	a2,88(a0)
    8cd4:	7a48                	flw	fa0,52(a2)
    8cd6:	6120                	flw	fs0,64(a0)
    8cd8:	646e                	flw	fs0,216(sp)
    8cda:	3120                	lbu	s0,3(a0)
    8cdc:	3032                	lhu	a2,34(s0)
    8cde:	484d                	li	a6,19
    8ce0:	207a                	lhu	a4,6(s0)
    8ce2:	636f6c63          	bltu	t5,s6,931a <_data_lma+0x4a6>
    8ce6:	6877206b          	0x6877206b
    8cea:	6e65                	lui	t3,0x19
    8cec:	7520                	flw	fs0,104(a0)
    8cee:	676e6973          	csrrsi	s2,0x676,28
    8cf2:	4520                	lw	s0,72(a0)
    8cf4:	6874                	flw	fa3,84(s0)
    8cf6:	7265                	lui	tp,0xffff9
    8cf8:	656e                	flw	fa0,216(sp)
    8cfa:	2174                	lbu	a3,6(a0)
    8cfc:	000d                	c.nop	3
    8cfe:	0000                	unimp
    8d00:	656e                	flw	fa0,216(sp)
    8d02:	2074                	lbu	a3,6(s0)
    8d04:	6576                	flw	fa0,92(sp)
    8d06:	7372                	flw	ft6,60(sp)
    8d08:	6f69                	lui	t5,0x1a
    8d0a:	3a6e                	lhu	a1,54(a2)
    8d0c:	7825                	lui	a6,0xfffe9
    8d0e:	000a                	c.slli	zero,0x2
    8d10:	6576                	flw	fa0,92(sp)
    8d12:	7372                	flw	ft6,60(sp)
    8d14:	6f69                	lui	t5,0x1a
    8d16:	206e                	lhu	a1,6(s0)
    8d18:	7265                	lui	tp,0xffff9
    8d1a:	6f72                	flw	ft10,28(sp)
    8d1c:	2e72                	lhu	a2,30(a2)
    8d1e:	0000                	unimp
    8d20:	616d                	addi	sp,sp,240
    8d22:	64612063          	0x64612063
    8d26:	7264                	flw	fs1,100(a2)
    8d28:	003a                	c.slli	zero,0xe
    8d2a:	0000                	unimp
    8d2c:	7825                	lui	a6,0xfffe9
    8d2e:	0020                	addi	s0,sp,8
    8d30:	6f6c                	flw	fa1,92(a4)
    8d32:	6461                	lui	s0,0x18
    8d34:	645f 6665 665f      	0x665f6665645f
    8d3a:	616c                	flw	fa1,68(a0)
    8d3c:	00006873          	csrrsi	a6,ustatus,0
    8d40:	4e484357          	0x4e484357
    8d44:	5445                	li	s0,-15
    8d46:	4c5f 6269 6e49      	0x6e4962694c5f
    8d4c:	7469                	lui	s0,0xffffa
    8d4e:	5320                	lw	s0,96(a4)
    8d50:	6375                	lui	t1,0x1d
    8d52:	73736563          	bltu	t1,s7,947c <_data_lma+0x608>
    8d56:	000d                	c.nop	3

00008d58 <MemNum>:
    8d58:	0000 0001 0000 0000 0000 0000 0002 0002     ................

00008d68 <MemSize>:
    8d68:	001c 0020 00b4 0024 0014 0020 0010 0600     .. ...$... .....

00008d78 <ErrTable>:
    8d78:	1100 1312 1514 1716 1918 1b1a 1d1c 1f1e     ................
    8d88:	4a1c 0000 4a62 0000 4a7c 0000 4a8c 0000     .J..bJ..|J...J..
    8d98:	4a8c 0000 4a78 0000 4a78 0000 4a9a 0000     .J..xJ..xJ...J..

00008da8 <tcp_backoff>:
    8da8:	0201 0403 0605 0707 0707 0707 0007 0000     ................
    8db8:	5e98 0000 5fa6 0000 6092 0000 609a 0000     .^..._...`...`..
    8dc8:	6140 0000 6092 0000 6186 0000 61c2 0000     @a...`...a...a..

00008dd8 <__sf_fake_stderr>:
	...

00008df8 <__sf_fake_stdin>:
	...

00008e18 <__sf_fake_stdout>:
	...
    8e38:	2d23 2b30 0020 0000 6c68 004c 6665 4567     #-0+ ...hlL.efgE
    8e48:	4746 0000 3130 3332 3534 3736 3938 4241     FG..0123456789AB
    8e58:	4443 4645 0000 0000 3130 3332 3534 3736     CDEF....01234567
    8e68:	3938 6261 6463 6665 0000 0000               89abcdef....
